

Microchip MPLAB XC8 Assembler V2.20 build 20200408173844 
                                                                                               Mon May 30 15:23:35 2022

Microchip MPLAB XC8 C Compiler v2.20 (Free license) build 20200408173844 Og1 
     1                           	processor	18F4520
     2                           	fnconf	rparam,??,?,0
     3                           	pagewidth 120
     4                           	opt	flic
     5                           	psect	idataCOMRAM,global,class=CODE,delta=1,noexec
     6                           	psect	cinit,global,reloc=2,class=CODE,delta=1
     7                           	psect	bitbssCOMRAM,global,bit,class=COMRAM,space=1,delta=1,lowdata,noexec
     8                           	psect	bssCOMRAM,global,class=COMRAM,space=1,delta=1,lowdata,noexec
     9                           	psect	dataCOMRAM,global,class=COMRAM,space=1,delta=1,lowdata,noexec
    10                           	psect	bssBIGRAM,global,class=BIGRAM,space=1,delta=1,lowdata,noexec
    11                           	psect	cstackCOMRAM,global,class=COMRAM,space=1,delta=1,lowdata,noexec
    12                           	psect	text0,global,reloc=2,class=CODE,delta=1,codecov
    13                           	psect	text1,global,reloc=2,class=CODE,delta=1,codecov
    14                           	psect	text2,global,reloc=2,class=CODE,delta=1,codecov
    15                           	psect	text3,global,reloc=2,class=CODE,delta=1,codecov
    16                           	psect	text4,global,reloc=2,class=CODE,delta=1,codecov
    17                           	psect	text5,global,reloc=2,class=CODE,delta=1,codecov
    18                           	psect	text6,global,reloc=2,class=CODE,delta=1,codecov
    19                           	psect	text7,global,reloc=2,class=CODE,delta=1,codecov
    20                           	psect	text8,global,reloc=2,class=CODE,delta=1,codecov
    21                           	psect	text9,global,reloc=2,class=CODE,delta=1,codecov
    22                           	psect	text10,global,reloc=2,class=CODE,delta=1,codecov
    23                           	psect	text11,global,reloc=2,class=CODE,delta=1,codecov
    24                           	psect	text12,global,reloc=2,class=CODE,delta=1,group=1
    25                           	psect	text13,global,reloc=2,class=CODE,delta=1,codecov
    26                           	psect	text14,global,reloc=2,class=CODE,delta=1,codecov
    27                           	psect	text15,global,reloc=2,class=CODE,delta=1,codecov
    28                           	psect	intcode,global,reloc=2,class=CODE,delta=1
    29                           	psect	intcode_body,global,reloc=2,class=CODE,delta=1
    30                           	psect	text17,global,reloc=2,class=CODE,delta=1,group=1
    31                           	psect	codecov_info_hdr,global,note,abs,reloc=1,space=6,delta=1,noexec
    32                           	psect	codecov_info,global,note,abs,reloc=1,space=6,delta=1,noexec
    33                           	psect	intsave_regs,global,class=BIGRAM,space=1,delta=1,noexec
    34                           	psect	text18,global,reloc=2,class=CODE,delta=1,group=1
    35                           	psect	rparam,global,class=COMRAM,space=1,delta=1,noexec
    36                           	psect	temp,global,ovrld,common,class=COMRAM,space=1,delta=1
    37                           	psect	idloc,global,abs,ovrld,class=IDLOC,space=5,delta=1,noexec
    38                           	psect	config,global,abs,ovrld,class=CONFIG,space=4,delta=1,noexec
    39  0000                     
    40                           ; Version 2.40
    41                           ; Generated 17/11/2021 GMT
    42                           ; 
    43                           ; Copyright © 2021, Microchip Technology Inc. and its subsidiaries ("Microchip")
    44                           ; All rights reserved.
    45                           ; 
    46                           ; This software is developed by Microchip Technology Inc. and its subsidiaries ("Microch
      +                          ip").
    47                           ; 
    48                           ; Redistribution and use in source and binary forms, with or without modification, are
    49                           ; permitted provided that the following conditions are met:
    50                           ; 
    51                           ;     1. Redistributions of source code must retain the above copyright notice, this lis
      +                          t of
    52                           ;        conditions and the following disclaimer.
    53                           ; 
    54                           ;     2. Redistributions in binary form must reproduce the above copyright notice, this 
      +                          list
    55                           ;        of conditions and the following disclaimer in the documentation and/or other
    56                           ;        materials provided with the distribution. Publication is not required when
    57                           ;        this file is used in an embedded application.
    58                           ; 
    59                           ;     3. Microchip's name may not be used to endorse or promote products derived from th
      +                          is
    60                           ;        software without specific prior written permission.
    61                           ; 
    62                           ; THIS SOFTWARE IS PROVIDED BY MICROCHIP "AS IS" AND ANY EXPRESS OR IMPLIED WARRANTIES,
    63                           ; INCLUDING, BUT NOT LIMITED TO, THE IMPLIED WARRANTIES OF MERCHANTABILITY AND FITNESS F
      +                          OR
    64                           ; PURPOSE ARE DISCLAIMED.  IN NO EVENT SHALL MICROCHIP BE LIABLE FOR ANY DIRECT, INDIREC
      +                          T,
    65                           ; INCIDENTAL, SPECIAL, EXEMPLARY, OR CONSEQUENTIAL DAMAGES (INCLUDING BUT NOT LIMITED TO
    66                           ; PROCUREMENT OF SUBSTITUTE GOODS OR SERVICES; LOSS OF USE, DATA OR PROFITS; OR BUSINESS
    67                           ; INTERRUPTION) HOWSOEVER CAUSED AND ON ANY THEORY OF LIABILITY, WHETHER IN CONTRACT, ST
      +                          RICT
    68                           ; LIABILITY, OR TORT (INCLUDING NEGLIGENCE OR OTHERWISE) ARISING IN ANY WAY OUT OF THE U
      +                          SE OF
    69                           ; THIS SOFTWARE, EVEN IF ADVISED OF THE POSSIBILITY OF SUCH DAMAGE.
    70                           ; 
    71                           ; 
    72                           ; Code-generator required, PIC18F4520 Definitions
    73                           ; 
    74                           ; SFR Addresses
    75  0000                     
    76 ;;_new_task	offset	0
    77 ;;_id	offset=-2 (param)
    78 ;;_prior	offset=-4 (param)
    79 ;;_task	offset=-6 (param)
    80 ;;_resource	offset=-2 (param)
    81 ;;_task_pos	offset	0
    82 ;;_p_context	offset	2
    83 ;;_task_pos	offset	4
    84 ;;_p_context	offset	6
    85 ;;_resource	offset=-2 (param)
    86 ;;_task_pos	offset	0
    87 ;;_p_context	offset	2
    88 ;;_task_pos	offset	4
    89 ;;_p_context	offset	6
    90 ;;_resource	offset=-2 (param)
    91 ;;_task_pos	offset	0
    92 ;;_p_context	offset	2
    93 ;;_task_pos	offset	4
    94 ;;_p_context	offset	6
    95 ;;_time	offset=-2 (param)
    96 ;;_task_to_run	offset	0
    97 ;;_times	offset	2
    98 ;;_counter	offset	0
    99 ;;_dividend	offset=-2 (param)
   100 ;;_divisor	offset=-4 (param)
   101 ;;_task_to_run	offset	0
   102 ;;_times	offset	2
   103 ;;_counter	offset	0
   104 ;;_dividend	offset=-2 (param)
   105 ;;_divisor	offset=-4 (param)
   106 ;;_product	offset	0
   107 ;;_multiplier	offset=-2 (param)
   108 ;;_multiplicand	offset=-4 (param)
   109                           
   110                           	psect	idataCOMRAM
   111  001ACC                     __pidataCOMRAM:
   112                           	callstack 0
   113                           
   114                           ;initializer for _rr_quantum_control
   115  001ACC  0008               	dw	8
   116  0000                     _TOS	set	4093
   117  0000                     _TMR0	set	4054
   118  0000                     _PORTCbits	set	3970
   119  0000                     _LATCbits	set	3979
   120  0000                     _T0CONbits	set	4053
   121  0000                     _TRISBbits	set	3987
   122  0000                     _TRISCbits	set	3988
   123  0000                     _STKPTR	set	4092
   124  0000                     _STATUS	set	4056
   125  0000                     _WREG	set	4072
   126  0000                     _BSR	set	4064
   127  0000                     _INTCONbits	set	4082
   128  0000                     _PORTDbits	set	3971
   129  0000                     _LATDbits	set	3980
   130  0000                     _TRISDbits	set	3989
   131                           
   132                           ; #config settings
   133                           
   134                           	psect	cinit
   135  0019AA                     __pcinit:
   136                           	callstack 0
   137  0019AA                     start_initialization:
   138                           	callstack 0
   139  0019AA                     __initialization:
   140                           	callstack 0
   141                           
   142                           ; Initialize objects allocated to COMRAM (2 bytes)
   143                           ; load TBLPTR registers with __pidataCOMRAM
   144  0019AA  0ECC               	movlw	low __pidataCOMRAM
   145  0019AC  6EF6               	movwf	tblptrl,c
   146  0019AE  0E1A               	movlw	high __pidataCOMRAM
   147  0019B0  6EF7               	movwf	tblptrh,c
   148  0019B2  0E00               	movlw	low (__pidataCOMRAM shr (0+16))
   149  0019B4  6EF8               	movwf	tblptru,c
   150  0019B6  0009               	tblrd		*+	;fetch initializer
   151  0019B8  CFF5 F050          	movff	tablat,__pdataCOMRAM
   152  0019BC  0009               	tblrd		*+	;fetch initializer
   153  0019BE  CFF5 F051          	movff	tablat,__pdataCOMRAM+1
   154                           
   155                           ; Clear objects allocated to BIGRAM (1096 bytes)
   156  0019C2  EE01  F0B8         	lfsr	0,__pbssBIGRAM
   157  0019C6  EE24 F048          	lfsr	2,1096
   158  0019CA                     clear_0:
   159  0019CA  6AEE               	clrf	postinc0,c
   160  0019CC  50DD               	movf	postdec2,w,c
   161  0019CE  50D9               	movf	fsr2l,w,c
   162  0019D0  E1FC               	bnz	clear_0
   163  0019D2  50DA               	movf	fsr2h,w,c
   164  0019D4  E1FA               	bnz	clear_0
   165                           
   166                           ; Clear objects allocated to BITCOMRAM (7 bytes)
   167  0019D6  EE00  F001         	lfsr	0,__pbitbssCOMRAM/(0+8)
   168  0019DA  0E07               	movlw	7
   169  0019DC                     clear_1:
   170  0019DC  6AEE               	clrf	postinc0,c
   171  0019DE  06E8               	decf	wreg,f,c
   172  0019E0  E1FD               	bnz	clear_1
   173                           
   174                           ; Clear objects allocated to COMRAM (15 bytes)
   175  0019E2  EE00  F041         	lfsr	0,__pbssCOMRAM
   176  0019E6  0E0F               	movlw	15
   177  0019E8                     clear_2:
   178  0019E8  6AEE               	clrf	postinc0,c
   179  0019EA  06E8               	decf	wreg,f,c
   180  0019EC  E1FD               	bnz	clear_2
   181  0019EE                     end_of_initialization:
   182                           	callstack 0
   183  0019EE                     __end_of__initialization:
   184                           	callstack 0
   185  0019EE  0100               	movlb	0
   186  0019F0  EF50  F00C         	goto	_main	;jump to C main() function
   187                           
   188                           	psect	bitbssCOMRAM
   189  000008                     __pbitbssCOMRAM:
   190                           	callstack 0
   191  000008                     __ccovbit43_49:
   192                           	callstack 0
   193  000008                     	ds	1
   194  000009                     __ccovbit39_48:
   195                           	callstack 0
   196  000009                     	ds	1
   197  00000A                     __ccovbit37_47:
   198                           	callstack 0
   199  00000A                     	ds	1
   200  00000B                     __ccovbit34_46:
   201                           	callstack 0
   202  00000B                     	ds	1
   203  00000C                     __ccovbit32_45:
   204                           	callstack 0
   205  00000C                     	ds	1
   206  00000D                     __ccovbit18_44:
   207                           	callstack 0
   208  00000D                     	ds	1
   209  00000E                     __ccovbit15_43:
   210                           	callstack 0
   211  00000E                     	ds	1
   212  00000F                     __ccovbit44_42:
   213                           	callstack 0
   214  00000F                     	ds	1
   215  000010                     __ccovbit40_41:
   216                           	callstack 0
   217  000010                     	ds	1
   218  000011                     __ccovbit38_40:
   219                           	callstack 0
   220  000011                     	ds	1
   221  000012                     __ccovbit35_39:
   222                           	callstack 0
   223  000012                     	ds	1
   224  000013                     __ccovbit33_38:
   225                           	callstack 0
   226  000013                     	ds	1
   227  000014                     __ccovbit19_37:
   228                           	callstack 0
   229  000014                     	ds	1
   230  000015                     __ccovbit16_36:
   231                           	callstack 0
   232  000015                     	ds	1
   233  000016                     __ccovbit2_35:
   234                           	callstack 0
   235  000016                     	ds	1
   236  000017                     __ccovbit4_34:
   237                           	callstack 0
   238  000017                     	ds	1
   239  000018                     __ccovbit1_33:
   240                           	callstack 0
   241  000018                     	ds	1
   242  000019                     __ccovbit13_32:
   243                           	callstack 0
   244  000019                     	ds	1
   245  00001A                     __ccovbit11_31:
   246                           	callstack 0
   247  00001A                     	ds	1
   248  00001B                     __ccovbit8_30:
   249                           	callstack 0
   250  00001B                     	ds	1
   251  00001C                     __ccovbit4_29:
   252                           	callstack 0
   253  00001C                     	ds	1
   254  00001D                     __ccovbit1_28:
   255                           	callstack 0
   256  00001D                     	ds	1
   257  00001E                     __ccovbit2_27:
   258                           	callstack 0
   259  00001E                     	ds	1
   260  00001F                     __ccovbit37_26:
   261                           	callstack 0
   262  00001F                     	ds	1
   263  000020                     __ccovbit33_25:
   264                           	callstack 0
   265  000020                     	ds	1
   266  000021                     __ccovbit30_24:
   267                           	callstack 0
   268  000021                     	ds	1
   269  000022                     __ccovbit28_23:
   270                           	callstack 0
   271  000022                     	ds	1
   272  000023                     __ccovbit14_22:
   273                           	callstack 0
   274  000023                     	ds	1
   275  000024                     __ccovbit11_21:
   276                           	callstack 0
   277  000024                     	ds	1
   278  000025                     __ccovbit8_20:
   279                           	callstack 0
   280  000025                     	ds	1
   281  000026                     __ccovbit14_19:
   282                           	callstack 0
   283  000026                     	ds	1
   284  000027                     __ccovbit55_18:
   285                           	callstack 0
   286  000027                     	ds	1
   287  000028                     __ccovbit50_17:
   288                           	callstack 0
   289  000028                     	ds	1
   290  000029                     __ccovbit48_16:
   291                           	callstack 0
   292  000029                     	ds	1
   293  00002A                     __ccovbit45_15:
   294                           	callstack 0
   295  00002A                     	ds	1
   296  00002B                     __ccovbit43_14:
   297                           	callstack 0
   298  00002B                     	ds	1
   299  00002C                     __ccovbit29_13:
   300                           	callstack 0
   301  00002C                     	ds	1
   302  00002D                     __ccovbit27_12:
   303                           	callstack 0
   304  00002D                     	ds	1
   305  00002E                     __ccovbit17_11:
   306                           	callstack 0
   307  00002E                     	ds	1
   308  00002F                     __ccovbit12_10:
   309                           	callstack 0
   310  00002F                     	ds	1
   311  000030                     __ccovbit9_9:
   312                           	callstack 0
   313  000030                     	ds	1
   314  000031                     __ccovbit8_8:
   315                           	callstack 0
   316  000031                     	ds	1
   317  000032                     __ccovbit2_7:
   318                           	callstack 0
   319  000032                     	ds	1
   320  000033                     __ccovbit1_6:
   321                           	callstack 0
   322  000033                     	ds	1
   323  000034                     __ccovbit2_5:
   324                           	callstack 0
   325  000034                     	ds	1
   326  000035                     __ccovbit3_4:
   327                           	callstack 0
   328  000035                     	ds	1
   329  000036                     __ccovbit4_3:
   330                           	callstack 0
   331  000036                     	ds	1
   332  000037                     __ccovbit2_2:
   333                           	callstack 0
   334  000037                     	ds	1
   335  000038                     __ccovbit3_1:
   336                           	callstack 0
   337  000038                     	ds	1
   338                           
   339                           	psect	bssCOMRAM
   340  000041                     __pbssCOMRAM:
   341                           	callstack 0
   342  000041                     _m_test:
   343                           	callstack 0
   344  000041                     	ds	15
   345                           
   346                           	psect	dataCOMRAM
   347  000050                     __pdataCOMRAM:
   348                           	callstack 0
   349  000050                     _rr_quantum_control:
   350                           	callstack 0
   351  000050                     	ds	2
   352                           
   353                           	psect	bssBIGRAM
   354  0001B8                     __pbssBIGRAM:
   355                           	callstack 0
   356  0001B8                     _ready_queue:
   357                           	callstack 0
   358  0001B8                     	ds	584
   359  000400                     __uDynamicHeap:
   360                           	callstack 0
   361  000400                     	ds	512
   362                           
   363                           	psect	cstackCOMRAM
   364  000028                     __pcstackCOMRAM:
   365                           	callstack 0
   366  000028                     ??_isr_INTERRUPTS:
   367                           
   368                           ; 1 bytes @ 0x0
   369  000028                     	ds	15
   370  000037                     isr_INTERRUPTS@p_context:
   371                           	callstack 0
   372                           
   373                           ; 2 bytes @ 0xF
   374  000037                     	ds	2
   375  000039                     isr_INTERRUPTS@p_context_624:
   376                           	callstack 0
   377                           
   378                           ; 2 bytes @ 0x11
   379  000039                     	ds	2
   380  00003B                     isr_INTERRUPTS@i:
   381                           	callstack 0
   382                           
   383                           ; 2 bytes @ 0x13
   384  00003B                     	ds	2
   385  00003D                     isr_INTERRUPTS@task_pos:
   386                           	callstack 0
   387                           
   388                           ; 2 bytes @ 0x15
   389  00003D                     	ds	2
   390  00003F                     isr_INTERRUPTS@task_pos_623:
   391                           	callstack 0
   392                           
   393                           ; 2 bytes @ 0x17
   394  00003F                     	ds	2
   395                           
   396 ;;
   397 ;;Main: autosize = 0, tempsize = 0, incstack = 0, save=0
   398 ;;
   399 ;; *************** function _main *****************
   400 ;; Defined at:
   401 ;;		line 3 in file "main.c"
   402 ;; Parameters:    Size  Location     Type
   403 ;;		None
   404 ;; Auto vars:     Size  Location     Type
   405 ;;		None
   406 ;; Return value:  Size  Location     Type
   407 ;;                  2  [STACK] int 
   408 ;; Registers used:
   409 ;;		wreg, fsr0l, fsr0h, fsr1l, fsr1h, fsr2l, fsr2h, status,2, status,0, btemp, btemp+8, btemp+9, btemp+10, btemp+11, pro
      +dl, prodh
   410 ;; Tracked objects:
   411 ;;		On entry : 0/0
   412 ;;		On exit  : 0/0
   413 ;;		Unchanged: 0/0
   414 ;; Data sizes:     COMRAM   BANK0   BANK1   BANK2   BANK3   BANK4   BANK5
   415 ;;      Params:         0       0       0       0       0       0       0
   416 ;;      Locals:         0       0       0       0       0       0       0
   417 ;;      Temps:          0       0       0       0       0       0       0
   418 ;;      Totals:         0       0       0       0       0       0       0
   419 ;;Total ram usage:        0 bytes
   420 ;; Hardware stack levels required when called:   12
   421 ;; This function calls:
   422 ;;		_config_os
   423 ;;		_create_task
   424 ;;		_start_os
   425 ;; This function is called by:
   426 ;;		Startup code after reset
   427 ;; This function uses a reentrant model
   428 ;;
   429                           
   430                           	psect	text0
   431  0018A0                     __ptext0:
   432                           	callstack 0
   433  0018A0                     _main:
   434                           	callstack 19
   435                           
   436                           ; autosize = 0, savesize = 0, parsavesize = 0, tempsize = 0 parsize = 0, argsize = 0 var
      +                          gsize = 0, retsize = 0 argfudge = 0
   437                           ;incstack = 0
   438  0018A0                     
   439                           ;main.c: 6:    config_os();
   440  0018A0  EC83  F00C         	call	_config_os	;wreg free
   441                           
   442                           ;main.c: 9:    create_task(1, 3, task_1);
   443  0018A4  0E5E               	movlw	low _task_1
   444  0018A6  6EE6               	movwf	postinc1,c
   445  0018A8  0E19               	movlw	high _task_1
   446  0018AA  6EE6               	movwf	postinc1,c
   447  0018AC  0E03               	movlw	3
   448  0018AE  6EE6               	movwf	postinc1,c
   449  0018B0  0E00               	movlw	0
   450  0018B2  6EE6               	movwf	postinc1,c
   451  0018B4  0E01               	movlw	1
   452  0018B6  6EE6               	movwf	postinc1,c
   453  0018B8  0E00               	movlw	0
   454  0018BA  6EE6               	movwf	postinc1,c
   455  0018BC  ECDC  F00A         	call	_create_task	;wreg free
   456                           
   457                           ;main.c: 10:    create_task(2, 2, task_2);
   458  0018C0  0EF4               	movlw	low _task_2
   459  0018C2  6EE6               	movwf	postinc1,c
   460  0018C4  0E19               	movlw	high _task_2
   461  0018C6  6EE6               	movwf	postinc1,c
   462  0018C8  0E02               	movlw	2
   463  0018CA  6EE6               	movwf	postinc1,c
   464  0018CC  0E00               	movlw	0
   465  0018CE  6EE6               	movwf	postinc1,c
   466  0018D0  0E02               	movlw	2
   467  0018D2  6EE6               	movwf	postinc1,c
   468  0018D4  0E00               	movlw	0
   469  0018D6  6EE6               	movwf	postinc1,c
   470  0018D8  ECDC  F00A         	call	_create_task	;wreg free
   471                           
   472                           ;main.c: 11:    create_task(3, 1, task_3);
   473  0018DC  0E36               	movlw	low _task_3
   474  0018DE  6EE6               	movwf	postinc1,c
   475  0018E0  0E1A               	movlw	high _task_3
   476  0018E2  6EE6               	movwf	postinc1,c
   477  0018E4  0E01               	movlw	1
   478  0018E6  6EE6               	movwf	postinc1,c
   479  0018E8  0E00               	movlw	0
   480  0018EA  6EE6               	movwf	postinc1,c
   481  0018EC  0E03               	movlw	3
   482  0018EE  6EE6               	movwf	postinc1,c
   483  0018F0  0E00               	movlw	0
   484  0018F2  6EE6               	movwf	postinc1,c
   485  0018F4  ECDC  F00A         	call	_create_task	;wreg free
   486  0018F8                     __ccov1_end_blk0:
   487                           	callstack 19
   488  0018F8                     __ccov2_start_blk1:
   489                           	callstack 19
   490  0018F8                     
   491                           ;main.c: 14:    start_os();
   492  0018F8  EC56  F00D         	call	_start_os	;wreg free
   493  0018FC                     __ccov2_end_blk1:
   494                           	callstack 19
   495  0018FC                     l17:
   496  0018FC                     __ccov4_start_blk3:
   497                           	callstack 19
   498  0018FC  8007               	bsf	(__ccovbit3_1/(0+8))^0,__ccovbit3_1& (0+7),c	;volatile
   499  0018FE  EF7E  F00C         	goto	l17
   500  001902                     __ccov4_end_blk3:
   501                           	callstack 19
   502  001902  EF06  F000         	goto	start
   503  001906                     __end_of_main:
   504                           	callstack 0
   505                           
   506 ;; *************** function _start_os *****************
   507 ;; Defined at:
   508 ;;		line 149 in file "kernel.c"
   509 ;; Parameters:    Size  Location     Type
   510 ;;		None
   511 ;; Auto vars:     Size  Location     Type
   512 ;;		None
   513 ;; Return value:  Size  Location     Type
   514 ;;                  1  [STACK] void 
   515 ;; Registers used:
   516 ;;		wreg, status,2
   517 ;; Tracked objects:
   518 ;;		On entry : 0/0
   519 ;;		On exit  : 0/0
   520 ;;		Unchanged: 0/0
   521 ;; Data sizes:     COMRAM   BANK0   BANK1   BANK2   BANK3   BANK4   BANK5
   522 ;;      Params:         0       0       0       0       0       0       0
   523 ;;      Locals:         0       0       0       0       0       0       0
   524 ;;      Temps:          0       0       0       0       0       0       0
   525 ;;      Totals:         0       0       0       0       0       0       0
   526 ;;Total ram usage:        0 bytes
   527 ;; Hardware stack levels used:    1
   528 ;; Hardware stack levels required when called:    9
   529 ;; This function calls:
   530 ;;		Nothing
   531 ;; This function is called by:
   532 ;;		_main
   533 ;; This function uses a reentrant model
   534 ;;
   535                           
   536                           	psect	text1
   537  001AAC                     __ptext1:
   538                           	callstack 0
   539  001AAC                     _start_os:
   540                           	callstack 21
   541                           
   542                           ; autosize = 0, savesize = 0, parsavesize = 0, tempsize = 0 parsize = 0, argsize = 0 var
      +                          gsize = 0, retsize = 0 argfudge = 0
   543                           ;incstack = 0
   544  001AAC                     
   545                           ;kernel.c: 156:    INTCONbits.GIE = 1;
   546  001AAC  8EF2               	bsf	242,7,c	;volatile
   547                           
   548                           ;kernel.c: 158:    T0CONbits.TMR0ON = 1;
   549  001AAE  8ED5               	bsf	213,7,c	;volatile
   550  001AB0                     __ccov111_end_blk0:
   551                           	callstack 21
   552  001AB0                     __ccov112_start_blk1:
   553                           	callstack 21
   554  001AB0                     
   555                           ;kernel.c: 159:    TMR0 = 64;
   556  001AB0  0E00               	movlw	0
   557  001AB2  6ED7               	movwf	215,c	;volatile
   558  001AB4  0E40               	movlw	64
   559  001AB6  6ED6               	movwf	214,c	;volatile
   560  001AB8                     __ccov112_end_blk1:
   561                           	callstack 21
   562  001AB8                     __ccov113_start_blk2:
   563                           	callstack 21
   564  001AB8  8C03               	bsf	(__ccovbit2_27/(0+8))^0,__ccovbit2_27& (0+7),c	;volatile
   565                           
   566                           ; _start_os: autosize = 0, savesize = 0, parsavesize = 0, tempsize = 0 parsize = 0, args
      +                          ize = 0, vargsize = 0
   567  001ABA  0012               	return		;funcret
   568  001ABC                     __end_of_start_os:
   569                           	callstack 0
   570  0000                     
   571 ;; *************** function _config_os *****************
   572 ;; Defined at:
   573 ;;		line 53 in file "kernel.c"
   574 ;; Parameters:    Size  Location     Type
   575 ;;		None
   576 ;; Auto vars:     Size  Location     Type
   577 ;;		None
   578 ;; Return value:  Size  Location     Type
   579 ;;                  1  [STACK] void 
   580 ;; Registers used:
   581 ;;		wreg, fsr0l, fsr0h, fsr1l, fsr1h, fsr2l, fsr2h, status,2, status,0, btemp, btemp+8, btemp+9, btemp+10, btemp+11, pro
      +dl, prodh
   582 ;; Tracked objects:
   583 ;;		On entry : 0/0
   584 ;;		On exit  : 0/0
   585 ;;		Unchanged: 0/0
   586 ;; Data sizes:     COMRAM   BANK0   BANK1   BANK2   BANK3   BANK4   BANK5
   587 ;;      Params:         0       0       0       0       0       0       0
   588 ;;      Locals:         0       0       0       0       0       0       0
   589 ;;      Temps:          0       0       0       0       0       0       0
   590 ;;      Totals:         0       0       0       0       0       0       0
   591 ;;Total ram usage:        0 bytes
   592 ;; Hardware stack levels used:    1
   593 ;; Hardware stack levels required when called:   11
   594 ;; This function calls:
   595 ;;		_config_tasks
   596 ;;		_create_task
   597 ;; This function is called by:
   598 ;;		_main
   599 ;; This function uses a reentrant model
   600 ;;
   601                           
   602                           	psect	text2
   603  001906                     __ptext2:
   604                           	callstack 0
   605  001906                     _config_os:
   606                           	callstack 19
   607                           
   608                           ; autosize = 0, savesize = 0, parsavesize = 0, tempsize = 0 parsize = 0, argsize = 0 var
      +                          gsize = 0, retsize = 0 argfudge = 0
   609                           ;incstack = 0
   610  001906                     
   611                           ;kernel.c: 56:    ready_queue.task_running = 0;
   612  001906  0E00               	movlw	0
   613  001908  CFE8 F3FE          	movff	wreg,_ready_queue+582
   614  00190C  0E00               	movlw	0
   615  00190E  CFE8 F3FF          	movff	wreg,_ready_queue+583
   616                           
   617                           ;kernel.c: 57:    ready_queue.tasks_installed = 0;
   618  001912  0E00               	movlw	0
   619  001914  CFE8 F3FC          	movff	wreg,_ready_queue+580
   620  001918  0E00               	movlw	0
   621  00191A  CFE8 F3FD          	movff	wreg,_ready_queue+581	;# 
   622  00191E                     __ccov59_end_blk0:
   623                           	callstack 19
   624  00191E                     __ccov60_start_blk1:
   625                           	callstack 19
   626  00191E                     
   627                           ;kernel.c: 62:    create_task(0, 0, task_idle);
   628  00191E  0E6E               	movlw	low _task_idle
   629  001920  6EE6               	movwf	postinc1,c
   630  001922  0E1A               	movlw	high _task_idle
   631  001924  6EE6               	movwf	postinc1,c
   632  001926  0E00               	movlw	0
   633  001928  6EE6               	movwf	postinc1,c
   634  00192A  0E00               	movlw	0
   635  00192C  6EE6               	movwf	postinc1,c
   636  00192E  0E00               	movlw	0
   637  001930  6EE6               	movwf	postinc1,c
   638  001932  0E00               	movlw	0
   639  001934  6EE6               	movwf	postinc1,c
   640  001936  ECDC  F00A         	call	_create_task	;wreg free
   641  00193A                     __ccov60_end_blk1:
   642                           	callstack 19
   643  00193A                     __ccov61_start_blk2:
   644                           	callstack 19
   645  00193A                     
   646                           ;kernel.c: 65:    TRISCbits.RC0 = 0;
   647  00193A  9094               	bcf	148,0,c	;volatile
   648  00193C                     __ccov61_end_blk2:
   649                           	callstack 19
   650  00193C                     __ccov62_start_blk3:
   651                           	callstack 19
   652  00193C                     
   653                           ;kernel.c: 70:    TRISBbits.RB0 = 1;
   654  00193C  8093               	bsf	147,0,c	;volatile
   655  00193E                     __ccov62_end_blk3:
   656                           	callstack 19
   657  00193E                     __ccov63_start_blk4:
   658                           	callstack 19
   659  00193E                     
   660                           ;kernel.c: 71:    INTCONbits.INT0IE = 1;
   661  00193E  88F2               	bsf	242,4,c	;volatile
   662  001940                     __ccov63_end_blk4:
   663                           	callstack 19
   664  001940                     __ccov64_start_blk5:
   665                           	callstack 19
   666  001940                     
   667                           ;kernel.c: 72:    INTCONbits.INT0IF = 0;
   668  001940  92F2               	bcf	242,1,c	;volatile
   669  001942                     __ccov64_end_blk5:
   670                           	callstack 19
   671  001942                     __ccov65_start_blk6:
   672                           	callstack 19
   673  001942                     
   674                           ;kernel.c: 74:    INTCONbits.PEIE = 1;
   675  001942  8CF2               	bsf	242,6,c	;volatile
   676  001944                     __ccov65_end_blk6:
   677                           	callstack 19
   678  001944                     __ccov66_start_blk7:
   679                           	callstack 19
   680  001944                     
   681                           ;kernel.c: 75:    INTCONbits.TMR0IE = 1;
   682  001944  8AF2               	bsf	242,5,c	;volatile
   683  001946                     __ccov66_end_blk7:
   684                           	callstack 19
   685  001946                     __ccov67_start_blk8:
   686                           	callstack 19
   687  001946                     
   688                           ;kernel.c: 76:    INTCONbits.TMR0IF = 0;
   689  001946  94F2               	bcf	242,2,c	;volatile
   690  001948                     __ccov67_end_blk8:
   691                           	callstack 19
   692  001948                     __ccov68_start_blk9:
   693                           	callstack 19
   694  001948                     
   695                           ;kernel.c: 77:    T0CONbits.TMR0ON = 0;
   696  001948  9ED5               	bcf	213,7,c	;volatile
   697  00194A                     __ccov68_end_blk9:
   698                           	callstack 19
   699  00194A                     __ccov69_start_blk10:
   700                           	callstack 19
   701  00194A                     
   702                           ;kernel.c: 78:    T0CONbits.T0CS = 0;
   703  00194A  9AD5               	bcf	213,5,c	;volatile
   704  00194C                     __ccov69_end_blk10:
   705                           	callstack 19
   706  00194C                     __ccov70_start_blk11:
   707                           	callstack 19
   708  00194C                     
   709                           ;kernel.c: 79:    T0CONbits.PSA = 0;
   710  00194C  96D5               	bcf	213,3,c	;volatile
   711  00194E                     __ccov70_end_blk11:
   712                           	callstack 19
   713  00194E                     __ccov71_start_blk12:
   714                           	callstack 19
   715  00194E                     
   716                           ;kernel.c: 80:    T0CONbits.T0PS = 0b101;
   717  00194E  50D5               	movf	213,w,c	;volatile
   718  001950  0BF8               	andlw	-8
   719  001952  0905               	iorlw	5
   720  001954  6ED5               	movwf	213,c	;volatile
   721  001956                     __ccov71_end_blk12:
   722                           	callstack 19
   723  001956                     __ccov72_start_blk13:
   724                           	callstack 19
   725  001956                     
   726                           ;kernel.c: 83:    config_tasks();
   727  001956  EC4B  F00D         	call	_config_tasks	;wreg free
   728  00195A                     __ccov72_end_blk13:
   729                           	callstack 19
   730  00195A                     __ccov73_start_blk14:
   731                           	callstack 19
   732  00195A  8C04               	bsf	(__ccovbit14_19/(0+8))^0,__ccovbit14_19& (0+7),c	;volatile
   733                           
   734                           ; _config_os: autosize = 0, savesize = 0, parsavesize = 0, tempsize = 0 parsize = 0, arg
      +                          size = 0, vargsize = 0
   735  00195C  0012               	return		;funcret
   736  00195E                     __end_of_config_os:
   737                           	callstack 0
   738  0000                     
   739 ;; *************** function _create_task *****************
   740 ;; Defined at:
   741 ;;		line 108 in file "kernel.c"
   742 ;; Parameters:    Size  Location     Type
   743 ;;  id              2  [STACK] unsigned int 
   744 ;;  prior           2  [STACK] unsigned int 
   745 ;;  task            2  [STACK] PTR FTN()void 
   746 ;;		 -> task_idle(1), task_3(1), task_2(1), task_1(1), 
   747 ;; Auto vars:     Size  Location     Type
   748 ;;  new_task      116  [STACK] struct TCB
   749 ;; Return value:  Size  Location     Type
   750 ;;                  1  [STACK] void 
   751 ;; Registers used:
   752 ;;		wreg, fsr0l, fsr0h, fsr1l, fsr1h, fsr2l, fsr2h, status,2, status,0, btemp, btemp+8, btemp+9, btemp+10, btemp+11, pro
      +dl, prodh
   753 ;; Tracked objects:
   754 ;;		On entry : 0/0
   755 ;;		On exit  : 0/0
   756 ;;		Unchanged: 0/0
   757 ;; Data sizes:     COMRAM   BANK0   BANK1   BANK2   BANK3   BANK4   BANK5
   758 ;;      Params:         0       0       0       0       0       0       0
   759 ;;      Locals:         0       0       0       0       0       0       0
   760 ;;      Temps:          0       0       0       0       0       0       0
   761 ;;      Totals:         0       0       0       0       0       0       0
   762 ;;Total ram usage:        0 bytes
   763 ;; Hardware stack levels used:    1
   764 ;; Hardware stack levels required when called:    9
   765 ;; This function calls:
   766 ;;		Nothing
   767 ;; This function is called by:
   768 ;;		_main
   769 ;;		_config_os
   770 ;; This function uses a reentrant model
   771 ;;
   772                           
   773                           	psect	text3
   774  0015B8                     __ptext3:
   775                           	callstack 0
   776  0015B8                     _create_task:
   777                           	callstack 0
   778                           
   779                           ; autosize = 116, savesize = 0, parsavesize = 0, tempsize = 0 parsize = 6, argsize = 6 v
      +                          argsize = 0, retsize = 0 argfudge = 0
   780  0015B8  0E74               	movlw	116
   781  0015BA  26E1               	addwf	fsr1l,f,c
   782  0015BC  0E00               	movlw	0
   783  0015BE  22E2               	addwfc	fsr1h,f,c
   784                           
   785                           ;incstack = 0
   786  0015C0                     
   787                           ;kernel.c: 108: void create_task(u_int id, u_int prior, f_task task);kernel.c: 109: {;ke
      +                          rnel.c: 110:    TCB_t new_task;;kernel.c: 113:    new_task.task_ID = id;
   788                           ;stkvar	_id @ sp[(-116)+-2]
   789                           ;stkvar	_new_task @ sp[(-116)+0]
   790  0015C0  0E8A               	movlw	-118
   791  0015C2  CFE3 F008          	movff	plusw1,btemp
   792  0015C6  0E8C               	movlw	-116
   793  0015C8  C008  FFE3         	movff	btemp,plusw1
   794  0015CC  0E8B               	movlw	-117
   795  0015CE  CFE3 F008          	movff	plusw1,btemp
   796  0015D2  0E8D               	movlw	-115
   797  0015D4  C008  FFE3         	movff	btemp,plusw1
   798  0015D8                     __ccov74_end_blk0:
   799                           	callstack 21
   800  0015D8                     __ccov75_start_blk1:
   801                           	callstack 21
   802  0015D8                     
   803                           ;kernel.c: 114:    new_task.task_PRIOR = prior;
   804                           ;stkvar	_prior @ sp[(-116)+-4]
   805  0015D8  50E1               	movf	fsr1l,w,c
   806  0015DA  0F88               	addlw	-120
   807  0015DC  6ED9               	movwf	fsr2l,c
   808  0015DE  50E2               	movf	fsr1h,w,c
   809  0015E0  6EDA               	movwf	fsr2h,c
   810  0015E2  0EFF               	movlw	255
   811  0015E4  22DA               	addwfc	fsr2h,f,c
   812                           
   813                           ;stkvar	_new_task @ sp[(-116)+0]
   814  0015E6  0E8E               	movlw	142
   815  0015E8  24E1               	addwf	fsr1l,w,c
   816  0015EA  6EE9               	movwf	fsr0l,c
   817  0015EC  0EFF               	movlw	255
   818  0015EE  20E2               	addwfc	fsr1h,w,c
   819  0015F0  6EEA               	movwf	fsr0h,c
   820  0015F2  CFDE FFEE          	movff	postinc2,postinc0
   821  0015F6  CFDD FFED          	movff	postdec2,postdec0
   822  0015FA                     __ccov75_end_blk1:
   823                           	callstack 21
   824  0015FA                     __ccov76_start_blk2:
   825                           	callstack 21
   826  0015FA                     
   827                           ;kernel.c: 115:    new_task.task_PTR = task;
   828                           ;stkvar	_task @ sp[(-116)+-6]
   829  0015FA  50E1               	movf	fsr1l,w,c
   830  0015FC  0F86               	addlw	-122
   831  0015FE  6ED9               	movwf	fsr2l,c
   832  001600  50E2               	movf	fsr1h,w,c
   833  001602  6EDA               	movwf	fsr2h,c
   834  001604  0EFF               	movlw	255
   835  001606  22DA               	addwfc	fsr2h,f,c
   836                           
   837                           ;stkvar	_new_task @ sp[(-116)+0]
   838  001608  0E90               	movlw	144
   839  00160A  24E1               	addwf	fsr1l,w,c
   840  00160C  6EE9               	movwf	fsr0l,c
   841  00160E  0EFF               	movlw	255
   842  001610  20E2               	addwfc	fsr1h,w,c
   843  001612  6EEA               	movwf	fsr0h,c
   844  001614  CFDE FFEE          	movff	postinc2,postinc0
   845  001618  CFDD FFED          	movff	postdec2,postdec0
   846  00161C                     __ccov76_end_blk2:
   847                           	callstack 21
   848  00161C                     __ccov77_start_blk3:
   849                           	callstack 21
   850  00161C                     
   851                           ;kernel.c: 116:    new_task.task_STATE = READY;
   852                           ;stkvar	_new_task @ sp[(-116)+0]
   853  00161C  0EFD               	movlw	253
   854  00161E  24E1               	addwf	fsr1l,w,c
   855  001620  6ED9               	movwf	fsr2l,c
   856  001622  0EFF               	movlw	255
   857  001624  20E2               	addwfc	fsr1h,w,c
   858  001626  6EDA               	movwf	fsr2h,c
   859  001628  0E00               	movlw	0
   860  00162A  6EDF               	movwf	indf2,c
   861  00162C                     __ccov77_end_blk3:
   862                           	callstack 21
   863  00162C                     __ccov78_start_blk4:
   864                           	callstack 21
   865  00162C                     
   866                           ;kernel.c: 117:    new_task.task_stack_real_size = 0;
   867                           ;stkvar	_new_task @ sp[(-116)+0]
   868  00162C  0EFB               	movlw	251
   869  00162E  24E1               	addwf	fsr1l,w,c
   870  001630  6ED9               	movwf	fsr2l,c
   871  001632  0EFF               	movlw	255
   872  001634  20E2               	addwfc	fsr1h,w,c
   873  001636  6EDA               	movwf	fsr2h,c
   874  001638  0E00               	movlw	0
   875  00163A  6EDE               	movwf	postinc2,c
   876  00163C  0E00               	movlw	0
   877  00163E  6EDD               	movwf	postdec2,c
   878  001640                     __ccov78_end_blk4:
   879                           	callstack 21
   880  001640                     __ccov79_start_blk5:
   881                           	callstack 21
   882  001640                     
   883                           ;kernel.c: 118:    new_task.delay_waiting = 0;
   884                           ;stkvar	_new_task @ sp[(-116)+0]
   885  001640  0EFE               	movlw	254
   886  001642  24E1               	addwf	fsr1l,w,c
   887  001644  6ED9               	movwf	fsr2l,c
   888  001646  0EFF               	movlw	255
   889  001648  20E2               	addwfc	fsr1h,w,c
   890  00164A  6EDA               	movwf	fsr2h,c
   891  00164C  0E00               	movlw	0
   892  00164E  6EDE               	movwf	postinc2,c
   893  001650  0E00               	movlw	0
   894  001652  6EDD               	movwf	postdec2,c
   895  001654                     __ccov79_end_blk5:
   896                           	callstack 21
   897  001654                     __ccov80_start_blk6:
   898                           	callstack 21
   899  001654                     
   900                           ;kernel.c: 120:    ready_queue.tasks_list[ready_queue.tasks_installed] = new_task;
   901                           ;stkvar	_new_task @ sp[(-116)+0]
   902  001654  0E8C               	movlw	140
   903  001656  24E1               	addwf	fsr1l,w,c
   904  001658  6ED9               	movwf	fsr2l,c
   905  00165A  0EFF               	movlw	255
   906  00165C  20E2               	addwfc	fsr1h,w,c
   907  00165E  6EDA               	movwf	fsr2h,c
   908  001660  EE03  F0FC         	lfsr	0,_ready_queue+580
   909  001664  CFEE F012          	movff	postinc0,btemp+10
   910  001668  CFED F013          	movff	postdec0,btemp+11
   911  00166C  0E74               	movlw	116
   912  00166E  0212               	mulwf	(btemp+10)^0,c
   913  001670  CFF3 F010          	movff	prodl,btemp+8
   914  001674  CFF4 F011          	movff	prodh,btemp+9
   915  001678  0213               	mulwf	(btemp+11)^0,c
   916  00167A  50F3               	movf	prodl,w,c
   917  00167C  2611               	addwf	(btemp+9)^0,f,c
   918  00167E  0EB8               	movlw	low _ready_queue
   919  001680  2410               	addwf	(btemp+8)^0,w,c
   920  001682  6EE9               	movwf	fsr0l,c
   921  001684  0E01               	movlw	high _ready_queue
   922  001686  2011               	addwfc	(btemp+9)^0,w,c
   923  001688  6EEA               	movwf	fsr0h,c
   924  00168A  0E73               	movlw	115
   925  00168C                     u51:
   926  00168C  CFDB FFEB          	movff	plusw2,plusw0
   927  001690  06E8               	decf	wreg,f,c
   928  001692  E2FC               	bc	u51
   929  001694                     __ccov80_end_blk6:
   930                           	callstack 21
   931  001694                     __ccov81_start_blk7:
   932                           	callstack 21
   933  001694                     
   934                           ;kernel.c: 121:    ready_queue.tasks_installed += 1;
   935  001694  EE23  F0FC         	lfsr	2,_ready_queue+580
   936  001698  2ADE               	incf	postinc2,f,c
   937  00169A  0E00               	movlw	0
   938  00169C  22DD               	addwfc	postdec2,f,c
   939  00169E                     __ccov81_end_blk7:
   940                           	callstack 21
   941  00169E                     __ccov82_start_blk8:
   942                           	callstack 21
   943  00169E  8A04               	bsf	(__ccovbit8_20/(0+8))^0,__ccovbit8_20& (0+7),c	;volatile
   944                           
   945                           ; _create_task: autosize = 116, savesize = 0, parsavesize = 0, tempsize = 0 parsize = 6,
      +                           argsize = 6, vargsize = 0
   946  0016A0  0E86               	movlw	134
   947  0016A2  26E1               	addwf	fsr1l,f,c
   948  0016A4  0EFF               	movlw	255
   949  0016A6  22E2               	addwfc	fsr1h,f,c
   950  0016A8  0012               	return		;funcret
   951  0016AA                     __end_of_create_task:
   952                           	callstack 0
   953  0000                     
   954 ;; *************** function _config_tasks *****************
   955 ;; Defined at:
   956 ;;		line 9 in file "user_tasks.c"
   957 ;; Parameters:    Size  Location     Type
   958 ;;		None
   959 ;; Auto vars:     Size  Location     Type
   960 ;;		None
   961 ;; Return value:  Size  Location     Type
   962 ;;                  1  [STACK] void 
   963 ;; Registers used:
   964 ;;		wreg, fsr1l, fsr1h, fsr2l, fsr2h, status,2, status,0, btemp+10, btemp+11
   965 ;; Tracked objects:
   966 ;;		On entry : 0/0
   967 ;;		On exit  : 0/0
   968 ;;		Unchanged: 0/0
   969 ;; Data sizes:     COMRAM   BANK0   BANK1   BANK2   BANK3   BANK4   BANK5
   970 ;;      Params:         0       0       0       0       0       0       0
   971 ;;      Locals:         0       0       0       0       0       0       0
   972 ;;      Temps:          0       0       0       0       0       0       0
   973 ;;      Totals:         0       0       0       0       0       0       0
   974 ;;Total ram usage:        0 bytes
   975 ;; Hardware stack levels used:    1
   976 ;; Hardware stack levels required when called:   10
   977 ;; This function calls:
   978 ;;		_init_mutex
   979 ;; This function is called by:
   980 ;;		_config_os
   981 ;; This function uses a reentrant model
   982 ;;
   983                           
   984                           	psect	text4
   985  001A96                     __ptext4:
   986                           	callstack 0
   987  001A96                     _config_tasks:
   988                           	callstack 19
   989                           
   990                           ; autosize = 0, savesize = 0, parsavesize = 0, tempsize = 0 parsize = 0, argsize = 0 var
      +                          gsize = 0, retsize = 0 argfudge = 0
   991                           ;incstack = 0
   992  001A96                     
   993                           ;user_tasks.c: 11:    TRISDbits.RD0 = 0;
   994  001A96  9095               	bcf	149,0,c	;volatile
   995                           
   996                           ;user_tasks.c: 12:    TRISDbits.RD1 = 0;
   997  001A98  9295               	bcf	149,1,c	;volatile
   998                           
   999                           ;user_tasks.c: 13:    TRISDbits.RD2 = 0;
  1000  001A9A  9495               	bcf	149,2,c	;volatile
  1001  001A9C                     __ccov5_end_blk0:
  1002                           	callstack 19
  1003  001A9C                     __ccov6_start_blk1:
  1004                           	callstack 19
  1005  001A9C                     
  1006                           ;user_tasks.c: 16:    init_mutex(&m_test);
  1007  001A9C  0E41               	movlw	low _m_test
  1008  001A9E  6EE6               	movwf	postinc1,c
  1009  001AA0  0E00               	movlw	high _m_test
  1010  001AA2  6EE6               	movwf	postinc1,c
  1011  001AA4  EC14  F00C         	call	_init_mutex	;# 
  1012  001AA8                     __ccov6_end_blk1:
  1013                           	callstack 19
  1014  001AA8                     __ccov7_start_blk2:
  1015                           	callstack 19
  1016  001AA8  8E06               	bsf	(__ccovbit2_2/(0+8))^0,__ccovbit2_2& (0+7),c	;volatile
  1017                           
  1018                           ; _config_tasks: autosize = 0, savesize = 0, parsavesize = 0, tempsize = 0 parsize = 0, 
      +                          argsize = 0, vargsize = 0
  1019  001AAA  0012               	return		;funcret
  1020  001AAC                     __end_of_config_tasks:
  1021                           	callstack 0
  1022  0000                     
  1023 ;; *************** function _init_mutex *****************
  1024 ;; Defined at:
  1025 ;;		line 6 in file "sync.c"
  1026 ;; Parameters:    Size  Location     Type
  1027 ;;  resource        2  [STACK] PTR struct mutex
  1028 ;;		 -> m_test(15), 
  1029 ;; Auto vars:     Size  Location     Type
  1030 ;;		None
  1031 ;; Return value:  Size  Location     Type
  1032 ;;                  1  [STACK] void 
  1033 ;; Registers used:
  1034 ;;		wreg, fsr1l, fsr1h, fsr2l, fsr2h, status,2, status,0, btemp+10, btemp+11
  1035 ;; Tracked objects:
  1036 ;;		On entry : 0/0
  1037 ;;		On exit  : 0/0
  1038 ;;		Unchanged: 0/0
  1039 ;; Data sizes:     COMRAM   BANK0   BANK1   BANK2   BANK3   BANK4   BANK5
  1040 ;;      Params:         0       0       0       0       0       0       0
  1041 ;;      Locals:         0       0       0       0       0       0       0
  1042 ;;      Temps:          0       0       0       0       0       0       0
  1043 ;;      Totals:         0       0       0       0       0       0       0
  1044 ;;Total ram usage:        0 bytes
  1045 ;; Hardware stack levels used:    1
  1046 ;; Hardware stack levels required when called:    9
  1047 ;; This function calls:
  1048 ;;		Nothing
  1049 ;; This function is called by:
  1050 ;;		_config_tasks
  1051 ;; This function uses a reentrant model
  1052 ;;
  1053                           
  1054                           	psect	text5
  1055  001828                     __ptext5:
  1056                           	callstack 0
  1057  001828                     _init_mutex:
  1058                           	callstack 19
  1059                           
  1060                           ; autosize = 0, savesize = 0, parsavesize = 0, tempsize = 0 parsize = 2, argsize = 2 var
      +                          gsize = 0, retsize = 0 argfudge = 0
  1061                           ;incstack = 0
  1062  001828                     
  1063                           ;sync.c: 6: void init_mutex(mutex_t *resource);sync.c: 7: {;sync.c: 8:    resource->mute
      +                          x_flag = 0;
  1064                           ;stkvar	_resource @ sp[(0)+-2]
  1065  001828  0EFE               	movlw	-2
  1066  00182A  CFE3 FFD9          	movff	plusw1,fsr2l
  1067  00182E  0EFF               	movlw	-1
  1068  001830  CFE3 FFDA          	movff	plusw1,fsr2h
  1069  001834  0E00               	movlw	0
  1070  001836  6EDF               	movwf	indf2,c
  1071  001838                     __ccov126_end_blk0:
  1072                           	callstack 19
  1073  001838                     __ccov127_start_blk1:
  1074                           	callstack 19
  1075  001838                     
  1076                           ;sync.c: 9:    resource->mutex_bloqued_queue.nr_of_tasks_bloqued = 0;
  1077                           ;stkvar	_resource @ sp[(0)+-2]
  1078  001838  0EFE               	movlw	-2
  1079  00183A  CFE3 F012          	movff	plusw1,btemp+10
  1080  00183E  0EFF               	movlw	-1
  1081  001840  CFE3 F013          	movff	plusw1,btemp+11
  1082  001844  0E0D               	movlw	13
  1083  001846  2412               	addwf	(btemp+10)^0,w,c
  1084  001848  6ED9               	movwf	fsr2l,c
  1085  00184A  0E00               	movlw	0
  1086  00184C  2013               	addwfc	(btemp+11)^0,w,c
  1087  00184E  6EDA               	movwf	fsr2h,c
  1088  001850  0E00               	movlw	0
  1089  001852  6EDE               	movwf	postinc2,c
  1090  001854  0E00               	movlw	0
  1091  001856  6EDD               	movwf	postdec2,c
  1092  001858                     __ccov127_end_blk1:
  1093                           	callstack 19
  1094  001858                     __ccov128_start_blk2:
  1095                           	callstack 19
  1096  001858                     
  1097                           ;sync.c: 10:    resource->mutex_bloqued_queue.input_pos = 0;
  1098                           ;stkvar	_resource @ sp[(0)+-2]
  1099  001858  0EFE               	movlw	-2
  1100  00185A  CFE3 F012          	movff	plusw1,btemp+10
  1101  00185E  0EFF               	movlw	-1
  1102  001860  CFE3 F013          	movff	plusw1,btemp+11
  1103  001864  0E09               	movlw	9
  1104  001866  2412               	addwf	(btemp+10)^0,w,c
  1105  001868  6ED9               	movwf	fsr2l,c
  1106  00186A  0E00               	movlw	0
  1107  00186C  2013               	addwfc	(btemp+11)^0,w,c
  1108  00186E  6EDA               	movwf	fsr2h,c
  1109  001870  0E00               	movlw	0
  1110  001872  6EDE               	movwf	postinc2,c
  1111  001874  0E00               	movlw	0
  1112  001876  6EDD               	movwf	postdec2,c
  1113  001878                     __ccov128_end_blk2:
  1114                           	callstack 19
  1115  001878                     __ccov129_start_blk3:
  1116                           	callstack 19
  1117  001878                     
  1118                           ;sync.c: 11:    resource->mutex_bloqued_queue.output_pos = 0;
  1119                           ;stkvar	_resource @ sp[(0)+-2]
  1120  001878  0EFE               	movlw	-2
  1121  00187A  CFE3 F012          	movff	plusw1,btemp+10
  1122  00187E  0EFF               	movlw	-1
  1123  001880  CFE3 F013          	movff	plusw1,btemp+11
  1124  001884  0E0B               	movlw	11
  1125  001886  2412               	addwf	(btemp+10)^0,w,c
  1126  001888  6ED9               	movwf	fsr2l,c
  1127  00188A  0E00               	movlw	0
  1128  00188C  2013               	addwfc	(btemp+11)^0,w,c
  1129  00188E  6EDA               	movwf	fsr2h,c
  1130  001890  0E00               	movlw	0
  1131  001892  6EDE               	movwf	postinc2,c
  1132  001894  0E00               	movlw	0
  1133  001896  6EDD               	movwf	postdec2,c
  1134  001898                     __ccov129_end_blk3:
  1135                           	callstack 19
  1136  001898                     __ccov130_start_blk4:
  1137                           	callstack 19
  1138  001898  8E02               	bsf	(__ccovbit4_34/(0+8))^0,__ccovbit4_34& (0+7),c	;volatile
  1139                           
  1140                           ; _init_mutex: autosize = 0, savesize = 0, parsavesize = 0, tempsize = 0 parsize = 2, ar
      +                          gsize = 2, vargsize = 0
  1141  00189A  52E5               	movf	postdec1,f,c
  1142  00189C  52E5               	movf	postdec1,f,c
  1143  00189E  0012               	return		;funcret
  1144  0018A0                     __end_of_init_mutex:
  1145                           	callstack 0
  1146  0000                     
  1147 ;; *************** function _task_1 *****************
  1148 ;; Defined at:
  1149 ;;		line 22 in file "user_tasks.c"
  1150 ;; Parameters:    Size  Location     Type
  1151 ;;		None
  1152 ;; Auto vars:     Size  Location     Type
  1153 ;;		None
  1154 ;; Return value:  Size  Location     Type
  1155 ;;                  1  [STACK] void 
  1156 ;; Registers used:
  1157 ;;		wreg, fsr0l, fsr0h, fsr1l, fsr1h, fsr2l, fsr2h, status,2, status,0, pclath, btemp, btemp+1, btemp+2, btemp+3, btemp+
      +4, btemp+5, btemp+6, btemp+7, btemp+8, btemp+9, btemp+10, btemp+11, btemp+12, btemp+13, btemp+14, btemp+15, btemp+16, bt
      +emp+17, btemp+18, btemp+19, btemp+20, btemp+21, btemp+22, btemp+23, btemp+24, btemp+25, btemp+26, btemp+27, btemp+28, bt
      +emp+29, btemp+30, btemp+31, tosl, structret, tblptrl, tblptrh, tblptru, prodl, prodh, bsr, cstack
  1158 ;; Tracked objects:
  1159 ;;		On entry : 0/0
  1160 ;;		On exit  : 0/0
  1161 ;;		Unchanged: 0/0
  1162 ;; Data sizes:     COMRAM   BANK0   BANK1   BANK2   BANK3   BANK4   BANK5
  1163 ;;      Params:         0       0       0       0       0       0       0
  1164 ;;      Locals:         0       0       0       0       0       0       0
  1165 ;;      Temps:          0       0       0       0       0       0       0
  1166 ;;      Totals:         0       0       0       0       0       0       0
  1167 ;;Total ram usage:        0 bytes
  1168 ;; Hardware stack levels used:    1
  1169 ;; Hardware stack levels required when called:    8
  1170 ;; This function calls:
  1171 ;;		_delay_task
  1172 ;;		_lock
  1173 ;;		_unlock
  1174 ;; This function is called by:
  1175 ;;		_main
  1176 ;; This function uses a reentrant model
  1177 ;;
  1178                           
  1179                           	psect	text6
  1180  00195E                     __ptext6:
  1181                           	callstack 0
  1182  00195E                     _task_1:
  1183                           	callstack 19
  1184  00195E                     l44:
  1185  00195E                     
  1186                           ;user_tasks.c: 27:       LATDbits.LATD0 = ~PORTDbits.RD0;
  1187  00195E  B083               	btfsc	131,0,c	;volatile
  1188  001960  EFB4  F00C         	goto	u23_21
  1189  001964  EFB7  F00C         	goto	u23_20
  1190  001968                     u23_21:
  1191  001968  0E01               	movlw	1
  1192  00196A  EFB8  F00C         	goto	u23_26
  1193  00196E                     u23_20:
  1194  00196E  0E00               	movlw	0
  1195  001970                     u23_26:
  1196  001970  0AFF               	xorlw	255
  1197  001972  6E13               	movwf	(btemp+11)^0,c
  1198  001974  508C               	movf	140,w,c	;volatile
  1199  001976  1813               	xorwf	(btemp+11)^0,w,c
  1200  001978  0BFE               	andlw	-2
  1201  00197A  1813               	xorwf	(btemp+11)^0,w,c
  1202  00197C  6E8C               	movwf	140,c	;volatile
  1203  00197E                     __ccov9_end_blk1:
  1204                           	callstack 19
  1205  00197E                     __ccov10_start_blk2:
  1206                           	callstack 19
  1207  00197E                     
  1208                           ;user_tasks.c: 28:       lock(&m_test);
  1209  00197E  0E41               	movlw	low _m_test
  1210  001980  6EE6               	movwf	postinc1,c
  1211  001982  0E00               	movlw	high _m_test
  1212  001984  6EE6               	movwf	postinc1,c
  1213  001986  ECCC  F002         	call	_lock	;wreg free
  1214  00198A                     __ccov10_end_blk2:
  1215                           	callstack 19
  1216  00198A                     __ccov11_start_blk3:
  1217                           	callstack 19
  1218  00198A                     
  1219                           ;user_tasks.c: 29:       delay_task(600);
  1220  00198A  0E58               	movlw	88
  1221  00198C  6EE6               	movwf	postinc1,c
  1222  00198E  0E02               	movlw	2
  1223  001990  6EE6               	movwf	postinc1,c
  1224  001992  ECEC  F007         	call	_delay_task	;wreg free
  1225  001996                     __ccov11_end_blk3:
  1226                           	callstack 19
  1227  001996                     __ccov12_start_blk4:
  1228                           	callstack 19
  1229  001996  8C06               	bsf	(__ccovbit4_3/(0+8))^0,__ccovbit4_3& (0+7),c	;volatile
  1230                           
  1231                           ;user_tasks.c: 30:       unlock(&m_test);
  1232  001998  0E41               	movlw	low _m_test
  1233  00199A  6EE6               	movwf	postinc1,c
  1234  00199C  0E00               	movlw	high _m_test
  1235  00199E  6EE6               	movwf	postinc1,c
  1236  0019A0  EC0A  F000         	call	_unlock	;wreg free
  1237  0019A4  EFAF  F00C         	goto	l44
  1238  0019A8                     __ccov12_end_blk4:
  1239                           	callstack 19
  1240                           
  1241                           ; _task_1: autosize = 0, savesize = 0, parsavesize = 0, tempsize = 0 parsize = 0, argsiz
      +                          e = 0, vargsize = 0
  1242  0019A8  0012               	return		;funcret
  1243  0019AA                     __end_of_task_1:
  1244                           	callstack 0
  1245                           
  1246 ;; *************** function _unlock *****************
  1247 ;; Defined at:
  1248 ;;		line 31 in file "sync.c"
  1249 ;; Parameters:    Size  Location     Type
  1250 ;;  resource        2  [STACK] PTR struct mutex
  1251 ;;		 -> m_test(15), 
  1252 ;; Auto vars:     Size  Location     Type
  1253 ;;  task_pos        2  [STACK] unsigned int 
  1254 ;;  p_context       2  [STACK] unsigned int 
  1255 ;;  task_pos        2  [STACK] unsigned int 
  1256 ;;  p_context       2  [STACK] unsigned int 
  1257 ;; Return value:  Size  Location     Type
  1258 ;;                  1  [STACK] void 
  1259 ;; Registers used:
  1260 ;;		wreg, fsr0l, fsr0h, fsr1l, fsr1h, fsr2l, fsr2h, status,2, status,0, pclath, btemp, btemp+1, btemp+2, btemp+3, btemp+
      +4, btemp+5, btemp+6, btemp+7, btemp+8, btemp+9, btemp+10, btemp+11, btemp+12, btemp+13, btemp+14, btemp+15, btemp+16, bt
      +emp+17, btemp+18, btemp+19, btemp+20, btemp+21, btemp+22, btemp+23, btemp+24, btemp+25, btemp+26, btemp+27, btemp+28, bt
      +emp+29, btemp+30, btemp+31, tosl, structret, tblptrl, tblptrh, tblptru, prodl, prodh, bsr, cstack
  1261 ;; Tracked objects:
  1262 ;;		On entry : 0/0
  1263 ;;		On exit  : 0/0
  1264 ;;		Unchanged: 0/0
  1265 ;; Data sizes:     COMRAM   BANK0   BANK1   BANK2   BANK3   BANK4   BANK5
  1266 ;;      Params:         0       0       0       0       0       0       0
  1267 ;;      Locals:         0       0       0       0       0       0       0
  1268 ;;      Temps:          0       0       0       0       0       0       0
  1269 ;;      Totals:         0       0       0       0       0       0       0
  1270 ;;Total ram usage:        0 bytes
  1271 ;; Hardware stack levels used:    1
  1272 ;; Hardware stack levels required when called:    7
  1273 ;; This function calls:
  1274 ;;		_scheduler
  1275 ;; This function is called by:
  1276 ;;		_task_1
  1277 ;;		_task_2
  1278 ;; This function uses a reentrant model
  1279 ;;
  1280                           
  1281                           	psect	text7
  1282  000014                     __ptext7:
  1283                           	callstack 0
  1284  000014                     _unlock:
  1285                           	callstack 0
  1286                           
  1287                           ; autosize = 8, savesize = 0, parsavesize = 0, tempsize = 0 parsize = 2, argsize = 2 var
      +                          gsize = 0, retsize = 0 argfudge = 0
  1288  000014  0E08               	movlw	8
  1289  000016  26E1               	addwf	fsr1l,f,c
  1290  000018  0E00               	movlw	0
  1291  00001A  22E2               	addwfc	fsr1h,f,c
  1292                           
  1293                           ;incstack = 0
  1294  00001C                     
  1295                           ;sync.c: 31: void unlock(mutex_t *resource);sync.c: 32: {;sync.c: 33:    INTCONbits.GIE 
      +                          = 0;
  1296  00001C  9EF2               	bcf	242,7,c	;volatile
  1297  00001E                     __ccov164_end_blk0:
  1298                           	callstack 19
  1299  00001E                     __ccov165_start_blk1:
  1300                           	callstack 19
  1301  00001E                     
  1302                           ;sync.c: 35:    resource->mutex_flag = 0;
  1303                           ;stkvar	_resource @ sp[(-8)+-2]
  1304  00001E  0EF6               	movlw	-10
  1305  000020  CFE3 FFD9          	movff	plusw1,fsr2l
  1306  000024  0EF7               	movlw	-9
  1307  000026  CFE3 FFDA          	movff	plusw1,fsr2h
  1308  00002A  0E00               	movlw	0
  1309  00002C  6EDF               	movwf	indf2,c
  1310  00002E                     __ccov165_end_blk1:
  1311                           	callstack 19
  1312  00002E                     __ccov166_start_blk2:
  1313                           	callstack 19
  1314  00002E                     
  1315                           ;sync.c: 37:    if (resource->mutex_bloqued_queue.nr_of_tasks_bloqued > 0) {
  1316                           ;stkvar	_resource @ sp[(-8)+-2]
  1317  00002E  0EF6               	movlw	-10
  1318  000030  CFE3 F012          	movff	plusw1,btemp+10
  1319  000034  0EF7               	movlw	-9
  1320  000036  CFE3 F013          	movff	plusw1,btemp+11
  1321  00003A  0E0D               	movlw	13
  1322  00003C  2412               	addwf	(btemp+10)^0,w,c
  1323  00003E  6ED9               	movwf	fsr2l,c
  1324  000040  0E00               	movlw	0
  1325  000042  2013               	addwfc	(btemp+11)^0,w,c
  1326  000044  6EDA               	movwf	fsr2h,c
  1327  000046  50DE               	movf	postinc2,w,c
  1328  000048  10DE               	iorwf	postinc2,w,c
  1329  00004A  B4D8               	btfsc	status,2,c
  1330  00004C  EF2A  F000         	goto	u18_21
  1331  000050  EF2C  F000         	goto	u18_20
  1332  000054                     u18_21:
  1333  000054  EFC5  F002         	goto	l1248
  1334  000058                     u18_20:
  1335  000058                     __ccov166_end_blk2:
  1336                           	callstack 19
  1337  000058                     __ccov167_start_blk3:
  1338                           	callstack 19
  1339  000058                     
  1340                           ;sync.c: 39:       ready_queue.tasks_list[resource->mutex_bloqued_queue.queue[resource->
      +                          mutex_bloqued_queue.output_pos]].task_STATE = READY;
  1341                           ;stkvar	_resource @ sp[(-8)+-2]
  1342  000058  0EF6               	movlw	-10
  1343  00005A  CFE3 F012          	movff	plusw1,btemp+10
  1344  00005E  0EF7               	movlw	-9
  1345  000060  CFE3 F013          	movff	plusw1,btemp+11
  1346  000064  0E0B               	movlw	11
  1347  000066  2412               	addwf	(btemp+10)^0,w,c
  1348  000068  6ED9               	movwf	fsr2l,c
  1349  00006A  0E00               	movlw	0
  1350  00006C  2013               	addwfc	(btemp+11)^0,w,c
  1351  00006E  6EDA               	movwf	fsr2h,c
  1352  000070  CFDE F012          	movff	postinc2,btemp+10
  1353  000074  CFDD F013          	movff	postdec2,btemp+11
  1354  000078  90D8               	bcf	status,0,c
  1355  00007A  3412               	rlcf	(btemp+10)^0,w,c
  1356  00007C  6E10               	movwf	(btemp+8)^0,c
  1357  00007E  3413               	rlcf	(btemp+11)^0,w,c
  1358  000080  6E11               	movwf	(btemp+9)^0,c
  1359                           
  1360                           ;stkvar	_resource @ sp[(-8)+-2]
  1361  000082  0EF6               	movlw	-10
  1362  000084  50E3               	movf	plusw1,w,c
  1363  000086  2610               	addwf	(btemp+8)^0,f,c
  1364  000088  0EF7               	movlw	-9
  1365  00008A  50E3               	movf	plusw1,w,c
  1366  00008C  2211               	addwfc	(btemp+9)^0,f,c
  1367  00008E  0E01               	movlw	1
  1368  000090  2410               	addwf	(btemp+8)^0,w,c
  1369  000092  6ED9               	movwf	fsr2l,c
  1370  000094  0E00               	movlw	0
  1371  000096  2011               	addwfc	(btemp+9)^0,w,c
  1372  000098  6EDA               	movwf	fsr2h,c
  1373  00009A  CFDE F012          	movff	postinc2,btemp+10
  1374  00009E  CFDD F013          	movff	postdec2,btemp+11
  1375  0000A2  0E74               	movlw	116
  1376  0000A4  0212               	mulwf	(btemp+10)^0,c
  1377  0000A6  CFF3 F010          	movff	prodl,btemp+8
  1378  0000AA  CFF4 F011          	movff	prodh,btemp+9
  1379  0000AE  0213               	mulwf	(btemp+11)^0,c
  1380  0000B0  50F3               	movf	prodl,w,c
  1381  0000B2  2611               	addwf	(btemp+9)^0,f,c
  1382  0000B4  0E29               	movlw	low (_ready_queue+113)
  1383  0000B6  2410               	addwf	(btemp+8)^0,w,c
  1384  0000B8  6ED9               	movwf	fsr2l,c
  1385  0000BA  0E02               	movlw	high (_ready_queue+113)
  1386  0000BC  2011               	addwfc	(btemp+9)^0,w,c
  1387  0000BE  6EDA               	movwf	fsr2h,c
  1388  0000C0  0E00               	movlw	0
  1389  0000C2  6EDF               	movwf	indf2,c
  1390  0000C4                     __ccov167_end_blk3:
  1391                           	callstack 19
  1392  0000C4                     __ccov168_start_blk4:
  1393                           	callstack 19
  1394  0000C4                     
  1395                           ;sync.c: 40:       resource->mutex_bloqued_queue.output_pos = (resource->mutex_bloqued_q
      +                          ueue.output_pos+1) % 4;
  1396                           ;stkvar	_resource @ sp[(-8)+-2]
  1397  0000C4  0EF6               	movlw	-10
  1398  0000C6  CFE3 F012          	movff	plusw1,btemp+10
  1399  0000CA  0EF7               	movlw	-9
  1400  0000CC  CFE3 F013          	movff	plusw1,btemp+11
  1401  0000D0  0E0B               	movlw	11
  1402  0000D2  2412               	addwf	(btemp+10)^0,w,c
  1403  0000D4  6ED9               	movwf	fsr2l,c
  1404  0000D6  0E00               	movlw	0
  1405  0000D8  2013               	addwfc	(btemp+11)^0,w,c
  1406  0000DA  6EDA               	movwf	fsr2h,c
  1407  0000DC  CFDE F012          	movff	postinc2,btemp+10
  1408  0000E0  CFDD F013          	movff	postdec2,btemp+11
  1409  0000E4  0E01               	movlw	1
  1410  0000E6  2612               	addwf	(btemp+10)^0,f,c
  1411  0000E8  0E00               	movlw	0
  1412  0000EA  2213               	addwfc	(btemp+11)^0,f,c
  1413  0000EC  0E03               	movlw	3
  1414  0000EE  1612               	andwf	(btemp+10)^0,f,c
  1415  0000F0  0E00               	movlw	0
  1416  0000F2  1613               	andwf	(btemp+11)^0,f,c
  1417                           
  1418                           ;stkvar	_resource @ sp[(-8)+-2]
  1419  0000F4  0EF6               	movlw	-10
  1420  0000F6  CFE3 F010          	movff	plusw1,btemp+8
  1421  0000FA  0EF7               	movlw	-9
  1422  0000FC  CFE3 F011          	movff	plusw1,btemp+9
  1423  000100  0E0B               	movlw	11
  1424  000102  2410               	addwf	(btemp+8)^0,w,c
  1425  000104  6ED9               	movwf	fsr2l,c
  1426  000106  0E00               	movlw	0
  1427  000108  2011               	addwfc	(btemp+9)^0,w,c
  1428  00010A  6EDA               	movwf	fsr2h,c
  1429  00010C  C012  FFDE         	movff	btemp+10,postinc2
  1430  000110  C013  FFDD         	movff	btemp+11,postdec2
  1431  000114                     __ccov168_end_blk4:
  1432                           	callstack 19
  1433  000114                     __ccov169_start_blk5:
  1434                           	callstack 19
  1435  000114                     
  1436                           ;sync.c: 41:       resource->mutex_bloqued_queue.nr_of_tasks_bloqued--;
  1437                           ;stkvar	_resource @ sp[(-8)+-2]
  1438  000114  0EF6               	movlw	-10
  1439  000116  CFE3 F012          	movff	plusw1,btemp+10
  1440  00011A  0EF7               	movlw	-9
  1441  00011C  CFE3 F013          	movff	plusw1,btemp+11
  1442  000120  0E0D               	movlw	13
  1443  000122  2412               	addwf	(btemp+10)^0,w,c
  1444  000124  6ED9               	movwf	fsr2l,c
  1445  000126  0E00               	movlw	0
  1446  000128  2013               	addwfc	(btemp+11)^0,w,c
  1447  00012A  6EDA               	movwf	fsr2h,c
  1448  00012C  06DE               	decf	postinc2,f,c
  1449  00012E  0E00               	movlw	0
  1450  000130  5ADD               	subwfb	postdec2,f,c
  1451  000132                     __ccov169_end_blk5:
  1452                           	callstack 19
  1453  000132                     __ccov170_start_blk6:
  1454                           	callstack 19
  1455  000132                     
  1456                           ;sync.c: 42:       { u_int p_context = 0, task_pos = ready_queue.task_running;do { INTCO
      +                          Nbits.GIE = 0; if (ready_queue.tasks_list[task_pos].task_STATE == RUNNING) { ready_queue
      +                          .tasks_list[task_pos].task_BSR_reg = BSR; ready_queue.tasks_list[task_pos].task_WORK_reg
      +                           = WREG; ready_queue.tasks_list[task_pos].task_STATUS_reg = STATUS; do { ready_queue.tas
      +                          ks_list[task_pos].task_CONTEXT[p_context] = TOS; __asm("POP"); p_context += 1; } while (
      +                          STKPTR); ready_queue.tasks_list[task_pos].task_stack_real_size = p_context; ready_queue.
      +                          tasks_list[task_pos].task_STATE = READY; } INTCONbits.GIE = 1; } while(0); };
  1457                           ;stkvar	_p_context @ sp[(-8)+6]
  1458  000132  0EFE               	movlw	-2
  1459  000134  6AE3               	clrf	plusw1,c
  1460  000136  0EFF               	movlw	-1
  1461  000138  6AE3               	clrf	plusw1,c
  1462  00013A                     __ccov170_end_blk6:
  1463                           	callstack 19
  1464  00013A                     __ccov171_start_blk7:
  1465                           	callstack 19
  1466  00013A                     
  1467                           ;stkvar	_task_pos @ sp[(-8)+4]
  1468  00013A  0EFC               	movlw	-4
  1469  00013C  C3FE  FFE3         	movff	_ready_queue+582,plusw1
  1470  000140  0EFD               	movlw	-3
  1471  000142  C3FF  FFE3         	movff	_ready_queue+583,plusw1
  1472  000146                     __ccov171_end_blk7:
  1473                           	callstack 19
  1474  000146                     __ccov172_start_blk9:
  1475                           	callstack 19
  1476  000146  9EF2               	bcf	242,7,c	;volatile
  1477  000148                     __ccov172_end_blk9:
  1478                           	callstack 19
  1479  000148                     __ccov173_start_blk10:
  1480                           	callstack 19
  1481  000148                     
  1482                           ;stkvar	_task_pos @ sp[(-8)+4]
  1483  000148  0EFC               	movlw	-4
  1484  00014A  CFE3 F012          	movff	plusw1,btemp+10
  1485  00014E  0EFD               	movlw	-3
  1486  000150  CFE3 F013          	movff	plusw1,btemp+11
  1487  000154  0E74               	movlw	116
  1488  000156  0212               	mulwf	(btemp+10)^0,c
  1489  000158  CFF3 F010          	movff	prodl,btemp+8
  1490  00015C  CFF4 F011          	movff	prodh,btemp+9
  1491  000160  0213               	mulwf	(btemp+11)^0,c
  1492  000162  50F3               	movf	prodl,w,c
  1493  000164  2611               	addwf	(btemp+9)^0,f,c
  1494  000166  0E29               	movlw	low (_ready_queue+113)
  1495  000168  2410               	addwf	(btemp+8)^0,w,c
  1496  00016A  6ED9               	movwf	fsr2l,c
  1497  00016C  0E02               	movlw	high (_ready_queue+113)
  1498  00016E  2011               	addwfc	(btemp+9)^0,w,c
  1499  000170  6EDA               	movwf	fsr2h,c
  1500  000172  04DE               	decf	postinc2,w,c
  1501  000174  A4D8               	btfss	status,2,c
  1502  000176  EFBF  F000         	goto	u19_21
  1503  00017A  EFC1  F000         	goto	u19_20
  1504  00017E                     u19_21:
  1505  00017E  EFA4  F001         	goto	l1222
  1506  000182                     u19_20:
  1507  000182                     __ccov173_end_blk10:
  1508                           	callstack 19
  1509  000182                     __ccov174_start_blk11:
  1510                           	callstack 19
  1511  000182  50E0               	movf	224,w,c	;volatile
  1512  000184  6E11               	movwf	(btemp+9)^0,c
  1513  000186  6A12               	clrf	(btemp+10)^0,c
  1514  000188  6A13               	clrf	(btemp+11)^0,c
  1515                           
  1516                           ;stkvar	_task_pos @ sp[(-8)+4]
  1517  00018A  0EFC               	movlw	-4
  1518  00018C  CFE3 F00E          	movff	plusw1,btemp+6
  1519  000190  0EFD               	movlw	-3
  1520  000192  CFE3 F00F          	movff	plusw1,btemp+7
  1521  000196  0E74               	movlw	116
  1522  000198  020E               	mulwf	(btemp+6)^0,c
  1523  00019A  CFF3 F00C          	movff	prodl,btemp+4
  1524  00019E  CFF4 F00D          	movff	prodh,btemp+5
  1525  0001A2  020F               	mulwf	(btemp+7)^0,c
  1526  0001A4  50F3               	movf	prodl,w,c
  1527  0001A6  260D               	addwf	(btemp+5)^0,f,c
  1528  0001A8  0E1E               	movlw	low (_ready_queue+102)
  1529  0001AA  240C               	addwf	(btemp+4)^0,w,c
  1530  0001AC  6ED9               	movwf	fsr2l,c
  1531  0001AE  0E02               	movlw	high (_ready_queue+102)
  1532  0001B0  200D               	addwfc	(btemp+5)^0,w,c
  1533  0001B2  6EDA               	movwf	fsr2h,c
  1534  0001B4  C011  FFDE         	movff	btemp+9,postinc2
  1535  0001B8  C012  FFDE         	movff	btemp+10,postinc2
  1536  0001BC  C013  FFDE         	movff	btemp+11,postinc2
  1537  0001C0  6E11               	movwf	(btemp+9)^0,c
  1538  0001C2  6A12               	clrf	(btemp+10)^0,c
  1539  0001C4  6A13               	clrf	(btemp+11)^0,c
  1540                           
  1541                           ;stkvar	_task_pos @ sp[(-8)+4]
  1542  0001C6  0EFC               	movlw	-4
  1543  0001C8  CFE3 F00E          	movff	plusw1,btemp+6
  1544  0001CC  0EFD               	movlw	-3
  1545  0001CE  CFE3 F00F          	movff	plusw1,btemp+7
  1546  0001D2  0E74               	movlw	116
  1547  0001D4  020E               	mulwf	(btemp+6)^0,c
  1548  0001D6  CFF3 F00C          	movff	prodl,btemp+4
  1549  0001DA  CFF4 F00D          	movff	prodh,btemp+5
  1550  0001DE  020F               	mulwf	(btemp+7)^0,c
  1551  0001E0  50F3               	movf	prodl,w,c
  1552  0001E2  260D               	addwf	(btemp+5)^0,f,c
  1553  0001E4  0E21               	movlw	low (_ready_queue+105)
  1554  0001E6  240C               	addwf	(btemp+4)^0,w,c
  1555  0001E8  6ED9               	movwf	fsr2l,c
  1556  0001EA  0E02               	movlw	high (_ready_queue+105)
  1557  0001EC  200D               	addwfc	(btemp+5)^0,w,c
  1558  0001EE  6EDA               	movwf	fsr2h,c
  1559  0001F0  C011  FFDE         	movff	btemp+9,postinc2
  1560  0001F4  C012  FFDE         	movff	btemp+10,postinc2
  1561  0001F8  C013  FFDE         	movff	btemp+11,postinc2
  1562  0001FC  50D8               	movf	216,w,c	;volatile
  1563  0001FE  6E11               	movwf	(btemp+9)^0,c
  1564  000200  6A12               	clrf	(btemp+10)^0,c
  1565  000202  6A13               	clrf	(btemp+11)^0,c
  1566                           
  1567                           ;stkvar	_task_pos @ sp[(-8)+4]
  1568  000204  0EFC               	movlw	-4
  1569  000206  CFE3 F00E          	movff	plusw1,btemp+6
  1570  00020A  0EFD               	movlw	-3
  1571  00020C  CFE3 F00F          	movff	plusw1,btemp+7
  1572  000210  0E74               	movlw	116
  1573  000212  020E               	mulwf	(btemp+6)^0,c
  1574  000214  CFF3 F00C          	movff	prodl,btemp+4
  1575  000218  CFF4 F00D          	movff	prodh,btemp+5
  1576  00021C  020F               	mulwf	(btemp+7)^0,c
  1577  00021E  50F3               	movf	prodl,w,c
  1578  000220  260D               	addwf	(btemp+5)^0,f,c
  1579  000222  0E24               	movlw	low (_ready_queue+108)
  1580  000224  240C               	addwf	(btemp+4)^0,w,c
  1581  000226  6ED9               	movwf	fsr2l,c
  1582  000228  0E02               	movlw	high (_ready_queue+108)
  1583  00022A  200D               	addwfc	(btemp+5)^0,w,c
  1584  00022C  6EDA               	movwf	fsr2h,c
  1585  00022E  C011  FFDE         	movff	btemp+9,postinc2
  1586  000232  C012  FFDE         	movff	btemp+10,postinc2
  1587  000236  C013  FFDE         	movff	btemp+11,postinc2
  1588  00023A                     __ccov174_end_blk11:
  1589                           	callstack 19
  1590  00023A                     __ccov175_start_blk13:
  1591                           	callstack 19
  1592  00023A                     l1212:
  1593                           
  1594                           ;stkvar	_p_context @ sp[(-8)+6]
  1595  00023A  0EFE               	movlw	-2
  1596  00023C  CFE3 F012          	movff	plusw1,btemp+10
  1597  000240  0EFF               	movlw	-1
  1598  000242  CFE3 F013          	movff	plusw1,btemp+11
  1599  000246  0E03               	movlw	3
  1600  000248  0212               	mulwf	(btemp+10)^0,c
  1601  00024A  CFF3 F010          	movff	prodl,btemp+8
  1602  00024E  CFF4 F011          	movff	prodh,btemp+9
  1603  000252  0213               	mulwf	(btemp+11)^0,c
  1604  000254  50F3               	movf	prodl,w,c
  1605  000256  2611               	addwf	(btemp+9)^0,f,c
  1606                           
  1607                           ;stkvar	_task_pos @ sp[(-8)+4]
  1608  000258  0EFC               	movlw	-4
  1609  00025A  CFE3 F012          	movff	plusw1,btemp+10
  1610  00025E  0EFD               	movlw	-3
  1611  000260  CFE3 F013          	movff	plusw1,btemp+11
  1612  000264  0E74               	movlw	116
  1613  000266  0212               	mulwf	(btemp+10)^0,c
  1614  000268  CFF3 F00E          	movff	prodl,btemp+6
  1615  00026C  CFF4 F00F          	movff	prodh,btemp+7
  1616  000270  0213               	mulwf	(btemp+11)^0,c
  1617  000272  50F3               	movf	prodl,w,c
  1618  000274  260F               	addwf	(btemp+7)^0,f,c
  1619  000276  0EB8               	movlw	low _ready_queue
  1620  000278  6E12               	movwf	(btemp+10)^0,c
  1621  00027A  0E01               	movlw	high _ready_queue
  1622  00027C  6E13               	movwf	(btemp+11)^0,c
  1623  00027E  0E06               	movlw	6
  1624  000280  2612               	addwf	(btemp+10)^0,f,c
  1625  000282  0E00               	movlw	0
  1626  000284  2213               	addwfc	(btemp+11)^0,f,c
  1627  000286  500E               	movf	(btemp+6)^0,w,c
  1628  000288  2612               	addwf	(btemp+10)^0,f,c
  1629  00028A  500F               	movf	(btemp+7)^0,w,c
  1630  00028C  2213               	addwfc	(btemp+11)^0,f,c
  1631  00028E  5010               	movf	(btemp+8)^0,w,c
  1632  000290  2412               	addwf	(btemp+10)^0,w,c
  1633  000292  6ED9               	movwf	fsr2l,c
  1634  000294  5011               	movf	(btemp+9)^0,w,c
  1635  000296  2013               	addwfc	(btemp+11)^0,w,c
  1636  000298  6EDA               	movwf	fsr2h,c
  1637  00029A  CFFD FFDE          	movff	tosl,postinc2	;volatile
  1638  00029E  CFFE FFDE          	movff	tosh,postinc2	;volatile
  1639  0002A2  CFFF FFDE          	movff	tosu,postinc2	;volatile
  1640  0002A6  0006               	pop		;# 
  1641  0002A8                     __ccov175_end_blk13:
  1642                           	callstack 19
  1643  0002A8                     __ccov176_start_blk14:
  1644                           	callstack 19
  1645  0002A8                     
  1646                           ;stkvar	_p_context @ sp[(-8)+6]
  1647  0002A8  0EFE               	movlw	-2
  1648  0002AA  50E3               	movf	plusw1,w,c
  1649  0002AC  0F01               	addlw	1
  1650  0002AE  6E08               	movwf	btemp^0,c
  1651  0002B0  0EFE               	movlw	-2
  1652  0002B2  C008  FFE3         	movff	btemp,plusw1
  1653  0002B6  6A08               	clrf	btemp^0,c
  1654  0002B8  0EFF               	movlw	-1
  1655  0002BA  50E3               	movf	plusw1,w,c
  1656  0002BC  2008               	addwfc	btemp^0,w,c
  1657  0002BE  6E08               	movwf	btemp^0,c
  1658  0002C0  0EFF               	movlw	-1
  1659  0002C2  C008  FFE3         	movff	btemp,plusw1
  1660  0002C6                     __ccov176_end_blk14:
  1661                           	callstack 19
  1662  0002C6                     __ccov177_start_blk15:
  1663                           	callstack 19
  1664  0002C6  8C01               	bsf	(__ccovbit15_43/(0+8))^0,__ccovbit15_43& (0+7),c	;volatile
  1665  0002C8  50FC               	movf	252,w,c	;volatile
  1666  0002CA  A4D8               	btfss	status,2,c
  1667  0002CC  EF6A  F001         	goto	u20_21
  1668  0002D0  EF6C  F001         	goto	u20_20
  1669  0002D4                     u20_21:
  1670  0002D4  EF1D  F001         	goto	l1212
  1671  0002D8                     u20_20:
  1672  0002D8                     __ccov177_end_blk15:
  1673                           	callstack 19
  1674  0002D8                     __ccov178_start_blk17:
  1675                           	callstack 19
  1676  0002D8                     
  1677                           ;stkvar	_p_context @ sp[(-8)+6]
  1678  0002D8  50E1               	movf	fsr1l,w,c
  1679  0002DA  0FFE               	addlw	-2
  1680  0002DC  6ED9               	movwf	fsr2l,c
  1681  0002DE  50E2               	movf	fsr1h,w,c
  1682  0002E0  6EDA               	movwf	fsr2h,c
  1683  0002E2  0EFF               	movlw	255
  1684  0002E4  22DA               	addwfc	fsr2h,f,c
  1685                           
  1686                           ;stkvar	_task_pos @ sp[(-8)+4]
  1687  0002E6  0EFC               	movlw	-4
  1688  0002E8  CFE3 F012          	movff	plusw1,btemp+10
  1689  0002EC  0EFD               	movlw	-3
  1690  0002EE  CFE3 F013          	movff	plusw1,btemp+11
  1691  0002F2  0E74               	movlw	116
  1692  0002F4  0212               	mulwf	(btemp+10)^0,c
  1693  0002F6  CFF3 F010          	movff	prodl,btemp+8
  1694  0002FA  CFF4 F011          	movff	prodh,btemp+9
  1695  0002FE  0213               	mulwf	(btemp+11)^0,c
  1696  000300  50F3               	movf	prodl,w,c
  1697  000302  2611               	addwf	(btemp+9)^0,f,c
  1698  000304  0E27               	movlw	low (_ready_queue+111)
  1699  000306  2410               	addwf	(btemp+8)^0,w,c
  1700  000308  6EE9               	movwf	fsr0l,c
  1701  00030A  0E02               	movlw	high (_ready_queue+111)
  1702  00030C  2011               	addwfc	(btemp+9)^0,w,c
  1703  00030E  6EEA               	movwf	fsr0h,c
  1704  000310  CFDE FFEE          	movff	postinc2,postinc0
  1705  000314  CFDD FFED          	movff	postdec2,postdec0
  1706  000318                     __ccov178_end_blk17:
  1707                           	callstack 19
  1708  000318                     __ccov179_start_blk18:
  1709                           	callstack 19
  1710  000318  8A01               	bsf	(__ccovbit18_44/(0+8))^0,__ccovbit18_44& (0+7),c	;volatile
  1711                           
  1712                           ;stkvar	_task_pos @ sp[(-8)+4]
  1713  00031A  0EFC               	movlw	-4
  1714  00031C  CFE3 F012          	movff	plusw1,btemp+10
  1715  000320  0EFD               	movlw	-3
  1716  000322  CFE3 F013          	movff	plusw1,btemp+11
  1717  000326  0E74               	movlw	116
  1718  000328  0212               	mulwf	(btemp+10)^0,c
  1719  00032A  CFF3 F010          	movff	prodl,btemp+8
  1720  00032E  CFF4 F011          	movff	prodh,btemp+9
  1721  000332  0213               	mulwf	(btemp+11)^0,c
  1722  000334  50F3               	movf	prodl,w,c
  1723  000336  2611               	addwf	(btemp+9)^0,f,c
  1724  000338  0E29               	movlw	low (_ready_queue+113)
  1725  00033A  2410               	addwf	(btemp+8)^0,w,c
  1726  00033C  6ED9               	movwf	fsr2l,c
  1727  00033E  0E02               	movlw	high (_ready_queue+113)
  1728  000340  2011               	addwfc	(btemp+9)^0,w,c
  1729  000342  6EDA               	movwf	fsr2h,c
  1730  000344  0E00               	movlw	0
  1731  000346  6EDF               	movwf	indf2,c
  1732  000348                     __ccov179_end_blk18:
  1733                           	callstack 19
  1734  000348                     __ccov180_start_blk20:
  1735                           	callstack 19
  1736  000348                     l1222:
  1737  000348  8EF2               	bsf	242,7,c	;volatile
  1738  00034A                     __ccov180_end_blk20:
  1739                           	callstack 19
  1740  00034A                     __ccov181_start_blk22:
  1741                           	callstack 19
  1742  00034A                     
  1743                           ;sync.c: 43:       scheduler();
  1744  00034A  EC5E  F00D         	call	_scheduler	;wreg free
  1745  00034E                     __ccov181_end_blk22:
  1746                           	callstack 19
  1747  00034E                     __ccov182_start_blk23:
  1748                           	callstack 19
  1749  00034E                     
  1750                           ;sync.c: 44:       { u_int task_pos = ready_queue.task_running;u_int p_context = ready_q
      +                          ueue.tasks_list[task_pos].task_stack_real_size;do { INTCONbits.GIE = 0; STKPTR = 0; if (
      +                          ready_queue.tasks_list[task_pos].task_stack_real_size > 0) { BSR = ready_queue.tasks_lis
      +                          t[task_pos].task_BSR_reg; WREG = ready_queue.tasks_list[task_pos].task_WORK_reg; STATUS 
      +                          = ready_queue.tasks_list[task_pos].task_STATUS_reg; while (p_context) { p_context -= 1; 
      +                          __asm("PUSH"); TOS = ready_queue.tasks_list[task_pos].task_CONTEXT[p_context]; } } else 
      +                          { __asm("PUSH"); TOS = ready_queue.tasks_list[task_pos].task_PTR; } ready_queue.tasks_li
      +                          st[task_pos].task_STATE = RUNNING; INTCONbits.GIE = 1; } while(0); };
  1751                           ;stkvar	_task_pos @ sp[(-8)+0]
  1752  00034E  0EF8               	movlw	-8
  1753  000350  C3FE  FFE3         	movff	_ready_queue+582,plusw1
  1754  000354  0EF9               	movlw	-7
  1755  000356  C3FF  FFE3         	movff	_ready_queue+583,plusw1
  1756  00035A                     __ccov182_end_blk23:
  1757                           	callstack 19
  1758  00035A                     __ccov183_start_blk24:
  1759                           	callstack 19
  1760  00035A                     
  1761                           ;stkvar	_task_pos @ sp[(-8)+0]
  1762  00035A  0EF8               	movlw	-8
  1763  00035C  CFE3 F012          	movff	plusw1,btemp+10
  1764  000360  0EF9               	movlw	-7
  1765  000362  CFE3 F013          	movff	plusw1,btemp+11
  1766  000366  0E74               	movlw	116
  1767  000368  0212               	mulwf	(btemp+10)^0,c
  1768  00036A  CFF3 F010          	movff	prodl,btemp+8
  1769  00036E  CFF4 F011          	movff	prodh,btemp+9
  1770  000372  0213               	mulwf	(btemp+11)^0,c
  1771  000374  50F3               	movf	prodl,w,c
  1772  000376  2611               	addwf	(btemp+9)^0,f,c
  1773  000378  0E27               	movlw	low (_ready_queue+111)
  1774  00037A  2410               	addwf	(btemp+8)^0,w,c
  1775  00037C  6ED9               	movwf	fsr2l,c
  1776  00037E  0E02               	movlw	high (_ready_queue+111)
  1777  000380  2011               	addwfc	(btemp+9)^0,w,c
  1778  000382  6EDA               	movwf	fsr2h,c
  1779  000384  CFDE F012          	movff	postinc2,btemp+10
  1780  000388  CFDD F013          	movff	postdec2,btemp+11
  1781                           
  1782                           ;stkvar	_p_context @ sp[(-8)+2]
  1783  00038C  0EFA               	movlw	-6
  1784  00038E  C012  FFE3         	movff	btemp+10,plusw1
  1785  000392  0EFB               	movlw	-5
  1786  000394  C013  FFE3         	movff	btemp+11,plusw1
  1787  000398                     __ccov183_end_blk24:
  1788                           	callstack 19
  1789  000398                     __ccov184_start_blk26:
  1790                           	callstack 19
  1791  000398  9EF2               	bcf	242,7,c	;volatile
  1792  00039A                     __ccov184_end_blk26:
  1793                           	callstack 19
  1794  00039A                     __ccov185_start_blk27:
  1795                           	callstack 19
  1796  00039A  6AFC               	clrf	252,c	;volatile
  1797  00039C                     __ccov185_end_blk27:
  1798                           	callstack 19
  1799  00039C                     __ccov186_start_blk28:
  1800                           	callstack 19
  1801  00039C                     
  1802                           ;stkvar	_task_pos @ sp[(-8)+0]
  1803  00039C  0EF8               	movlw	-8
  1804  00039E  CFE3 F012          	movff	plusw1,btemp+10
  1805  0003A2  0EF9               	movlw	-7
  1806  0003A4  CFE3 F013          	movff	plusw1,btemp+11
  1807  0003A8  0E74               	movlw	116
  1808  0003AA  0212               	mulwf	(btemp+10)^0,c
  1809  0003AC  CFF3 F010          	movff	prodl,btemp+8
  1810  0003B0  CFF4 F011          	movff	prodh,btemp+9
  1811  0003B4  0213               	mulwf	(btemp+11)^0,c
  1812  0003B6  50F3               	movf	prodl,w,c
  1813  0003B8  2611               	addwf	(btemp+9)^0,f,c
  1814  0003BA  0E27               	movlw	low (_ready_queue+111)
  1815  0003BC  2410               	addwf	(btemp+8)^0,w,c
  1816  0003BE  6ED9               	movwf	fsr2l,c
  1817  0003C0  0E02               	movlw	high (_ready_queue+111)
  1818  0003C2  2011               	addwfc	(btemp+9)^0,w,c
  1819  0003C4  6EDA               	movwf	fsr2h,c
  1820  0003C6  50DE               	movf	postinc2,w,c
  1821  0003C8  10DE               	iorwf	postinc2,w,c
  1822  0003CA  B4D8               	btfsc	status,2,c
  1823  0003CC  EFEA  F001         	goto	u21_21
  1824  0003D0  EFEC  F001         	goto	u21_20
  1825  0003D4                     u21_21:
  1826  0003D4  EF8C  F002         	goto	l249
  1827  0003D8                     u21_20:
  1828  0003D8                     __ccov186_end_blk28:
  1829                           	callstack 19
  1830  0003D8                     __ccov187_start_blk29:
  1831                           	callstack 19
  1832  0003D8                     
  1833                           ;stkvar	_task_pos @ sp[(-8)+0]
  1834  0003D8  0EF8               	movlw	-8
  1835  0003DA  CFE3 F012          	movff	plusw1,btemp+10
  1836  0003DE  0EF9               	movlw	-7
  1837  0003E0  CFE3 F013          	movff	plusw1,btemp+11
  1838  0003E4  0E74               	movlw	116
  1839  0003E6  0212               	mulwf	(btemp+10)^0,c
  1840  0003E8  CFF3 F010          	movff	prodl,btemp+8
  1841  0003EC  CFF4 F011          	movff	prodh,btemp+9
  1842  0003F0  0213               	mulwf	(btemp+11)^0,c
  1843  0003F2  50F3               	movf	prodl,w,c
  1844  0003F4  2611               	addwf	(btemp+9)^0,f,c
  1845  0003F6  0E1E               	movlw	low (_ready_queue+102)
  1846  0003F8  2410               	addwf	(btemp+8)^0,w,c
  1847  0003FA  6ED9               	movwf	fsr2l,c
  1848  0003FC  0E02               	movlw	high (_ready_queue+102)
  1849  0003FE  2011               	addwfc	(btemp+9)^0,w,c
  1850  000400  6EDA               	movwf	fsr2h,c
  1851  000402  50DF               	movf	indf2,w,c
  1852  000404  6EE0               	movwf	224,c	;volatile
  1853                           
  1854                           ;stkvar	_task_pos @ sp[(-8)+0]
  1855  000406  0EF8               	movlw	-8
  1856  000408  CFE3 F012          	movff	plusw1,btemp+10
  1857  00040C  0EF9               	movlw	-7
  1858  00040E  CFE3 F013          	movff	plusw1,btemp+11
  1859  000412  0E74               	movlw	116
  1860  000414  0212               	mulwf	(btemp+10)^0,c
  1861  000416  CFF3 F010          	movff	prodl,btemp+8
  1862  00041A  CFF4 F011          	movff	prodh,btemp+9
  1863  00041E  0213               	mulwf	(btemp+11)^0,c
  1864  000420  50F3               	movf	prodl,w,c
  1865  000422  2611               	addwf	(btemp+9)^0,f,c
  1866  000424  0E21               	movlw	low (_ready_queue+105)
  1867  000426  2410               	addwf	(btemp+8)^0,w,c
  1868  000428  6ED9               	movwf	fsr2l,c
  1869  00042A  0E02               	movlw	high (_ready_queue+105)
  1870  00042C  2011               	addwfc	(btemp+9)^0,w,c
  1871  00042E  6EDA               	movwf	fsr2h,c
  1872  000430  50DF               	movf	indf2,w,c
  1873  000432  6E13               	movwf	(btemp+11)^0,c
  1874  000434  5013               	movf	(btemp+11)^0,w,c
  1875                           
  1876                           ;stkvar	_task_pos @ sp[(-8)+0]
  1877  000436  0EF8               	movlw	-8
  1878  000438  CFE3 F012          	movff	plusw1,btemp+10
  1879  00043C  0EF9               	movlw	-7
  1880  00043E  CFE3 F013          	movff	plusw1,btemp+11
  1881  000442  0E74               	movlw	116
  1882  000444  0212               	mulwf	(btemp+10)^0,c
  1883  000446  CFF3 F010          	movff	prodl,btemp+8
  1884  00044A  CFF4 F011          	movff	prodh,btemp+9
  1885  00044E  0213               	mulwf	(btemp+11)^0,c
  1886  000450  50F3               	movf	prodl,w,c
  1887  000452  2611               	addwf	(btemp+9)^0,f,c
  1888  000454  0E24               	movlw	low (_ready_queue+108)
  1889  000456  2410               	addwf	(btemp+8)^0,w,c
  1890  000458  6ED9               	movwf	fsr2l,c
  1891  00045A  0E02               	movlw	high (_ready_queue+108)
  1892  00045C  2011               	addwfc	(btemp+9)^0,w,c
  1893  00045E  6EDA               	movwf	fsr2h,c
  1894  000460  50DF               	movf	indf2,w,c
  1895  000462  6ED8               	movwf	216,c	;volatile
  1896  000464  EF7C  F002         	goto	l1242
  1897  000468                     __ccov187_end_blk29:
  1898                           	callstack 19
  1899  000468                     __ccov188_start_blk31:
  1900                           	callstack 19
  1901  000468                     l1238:
  1902                           
  1903                           ;stkvar	_p_context @ sp[(-8)+2]
  1904  000468  0EFA               	movlw	-6
  1905  00046A  CFE3 F008          	movff	plusw1,btemp
  1906  00046E  0E01               	movlw	1
  1907  000470  5E08               	subwf	btemp^0,f,c
  1908  000472  0EFA               	movlw	-6
  1909  000474  C008  FFE3         	movff	btemp,plusw1
  1910  000478  0EFB               	movlw	-5
  1911  00047A  CFE3 F008          	movff	plusw1,btemp
  1912  00047E  0E00               	movlw	0
  1913  000480  5A08               	subwfb	btemp^0,f,c
  1914  000482  0EFB               	movlw	-5
  1915  000484  C008  FFE3         	movff	btemp,plusw1
  1916  000488  0005               	push		;# 
  1917  00048A                     __ccov188_end_blk31:
  1918                           	callstack 19
  1919  00048A                     __ccov189_start_blk32:
  1920                           	callstack 19
  1921  00048A  8801               	bsf	(__ccovbit32_45/(0+8))^0,__ccovbit32_45& (0+7),c	;volatile
  1922                           
  1923                           ;stkvar	_p_context @ sp[(-8)+2]
  1924  00048C  0EFA               	movlw	-6
  1925  00048E  CFE3 F012          	movff	plusw1,btemp+10
  1926  000492  0EFB               	movlw	-5
  1927  000494  CFE3 F013          	movff	plusw1,btemp+11
  1928  000498  0E03               	movlw	3
  1929  00049A  0212               	mulwf	(btemp+10)^0,c
  1930  00049C  CFF3 F010          	movff	prodl,btemp+8
  1931  0004A0  CFF4 F011          	movff	prodh,btemp+9
  1932  0004A4  0213               	mulwf	(btemp+11)^0,c
  1933  0004A6  50F3               	movf	prodl,w,c
  1934  0004A8  2611               	addwf	(btemp+9)^0,f,c
  1935                           
  1936                           ;stkvar	_task_pos @ sp[(-8)+0]
  1937  0004AA  0EF8               	movlw	-8
  1938  0004AC  CFE3 F012          	movff	plusw1,btemp+10
  1939  0004B0  0EF9               	movlw	-7
  1940  0004B2  CFE3 F013          	movff	plusw1,btemp+11
  1941  0004B6  0E74               	movlw	116
  1942  0004B8  0212               	mulwf	(btemp+10)^0,c
  1943  0004BA  CFF3 F00E          	movff	prodl,btemp+6
  1944  0004BE  CFF4 F00F          	movff	prodh,btemp+7
  1945  0004C2  0213               	mulwf	(btemp+11)^0,c
  1946  0004C4  50F3               	movf	prodl,w,c
  1947  0004C6  260F               	addwf	(btemp+7)^0,f,c
  1948  0004C8  0EB8               	movlw	low _ready_queue
  1949  0004CA  6E12               	movwf	(btemp+10)^0,c
  1950  0004CC  0E01               	movlw	high _ready_queue
  1951  0004CE  6E13               	movwf	(btemp+11)^0,c
  1952  0004D0  0E06               	movlw	6
  1953  0004D2  2612               	addwf	(btemp+10)^0,f,c
  1954  0004D4  0E00               	movlw	0
  1955  0004D6  2213               	addwfc	(btemp+11)^0,f,c
  1956  0004D8  500E               	movf	(btemp+6)^0,w,c
  1957  0004DA  2612               	addwf	(btemp+10)^0,f,c
  1958  0004DC  500F               	movf	(btemp+7)^0,w,c
  1959  0004DE  2213               	addwfc	(btemp+11)^0,f,c
  1960  0004E0  5010               	movf	(btemp+8)^0,w,c
  1961  0004E2  2412               	addwf	(btemp+10)^0,w,c
  1962  0004E4  6ED9               	movwf	fsr2l,c
  1963  0004E6  5011               	movf	(btemp+9)^0,w,c
  1964  0004E8  2013               	addwfc	(btemp+11)^0,w,c
  1965  0004EA  6EDA               	movwf	fsr2h,c
  1966  0004EC  CFDE FFFD          	movff	postinc2,tosl	;volatile
  1967  0004F0  CFDE FFFE          	movff	postinc2,tosh	;volatile
  1968  0004F4  CFDD FFFF          	movff	postdec2,tosu	;volatile
  1969  0004F8                     __ccov189_end_blk32:
  1970                           	callstack 19
  1971  0004F8                     __ccov190_start_blk34:
  1972                           	callstack 19
  1973  0004F8                     l1242:
  1974  0004F8  8601               	bsf	(__ccovbit34_46/(0+8))^0,__ccovbit34_46& (0+7),c	;volatile
  1975                           
  1976                           ;stkvar	_p_context @ sp[(-8)+2]
  1977  0004FA  0EFA               	movlw	-6
  1978  0004FC  CFE3 F008          	movff	plusw1,btemp
  1979  000500  0EFB               	movlw	-5
  1980  000502  50E3               	movf	plusw1,w,c
  1981  000504  1008               	iorwf	btemp^0,w,c
  1982  000506  A4D8               	btfss	status,2,c
  1983  000508  EF88  F002         	goto	u22_21
  1984  00050C  EF8A  F002         	goto	u22_20
  1985  000510                     u22_21:
  1986  000510  EF34  F002         	goto	l1238
  1987  000514                     u22_20:
  1988  000514  EFAC  F002         	goto	l253
  1989  000518                     __ccov190_end_blk34:
  1990                           	callstack 19
  1991  000518                     __ccov191_start_blk36:
  1992                           	callstack 19
  1993  000518                     l249:
  1994  000518  0005               	push		;# 
  1995  00051A                     __ccov191_end_blk36:
  1996                           	callstack 19
  1997  00051A                     __ccov192_start_blk37:
  1998                           	callstack 19
  1999  00051A  8401               	bsf	(__ccovbit37_47/(0+8))^0,__ccovbit37_47& (0+7),c	;volatile
  2000                           
  2001                           ;stkvar	_task_pos @ sp[(-8)+0]
  2002  00051C  0EF8               	movlw	-8
  2003  00051E  CFE3 F012          	movff	plusw1,btemp+10
  2004  000522  0EF9               	movlw	-7
  2005  000524  CFE3 F013          	movff	plusw1,btemp+11
  2006  000528  0E74               	movlw	116
  2007  00052A  0212               	mulwf	(btemp+10)^0,c
  2008  00052C  CFF3 F010          	movff	prodl,btemp+8
  2009  000530  CFF4 F011          	movff	prodh,btemp+9
  2010  000534  0213               	mulwf	(btemp+11)^0,c
  2011  000536  50F3               	movf	prodl,w,c
  2012  000538  2611               	addwf	(btemp+9)^0,f,c
  2013  00053A  0EBC               	movlw	low (_ready_queue+4)
  2014  00053C  2410               	addwf	(btemp+8)^0,w,c
  2015  00053E  6ED9               	movwf	fsr2l,c
  2016  000540  0E01               	movlw	high (_ready_queue+4)
  2017  000542  2011               	addwfc	(btemp+9)^0,w,c
  2018  000544  6EDA               	movwf	fsr2h,c
  2019  000546  CFDE F012          	movff	postinc2,btemp+10
  2020  00054A  CFDD F013          	movff	postdec2,btemp+11
  2021  00054E  C012  FFFD         	movff	btemp+10,tosl	;volatile
  2022  000552  C013  FFFE         	movff	btemp+11,tosh	;volatile
  2023  000556  6AFF               	clrf	255,c	;volatile
  2024  000558                     __ccov192_end_blk37:
  2025                           	callstack 19
  2026  000558                     __ccov193_start_blk38:
  2027                           	callstack 19
  2028  000558                     l253:
  2029                           
  2030                           ;stkvar	_task_pos @ sp[(-8)+0]
  2031  000558  0EF8               	movlw	-8
  2032  00055A  CFE3 F012          	movff	plusw1,btemp+10
  2033  00055E  0EF9               	movlw	-7
  2034  000560  CFE3 F013          	movff	plusw1,btemp+11
  2035  000564  0E74               	movlw	116
  2036  000566  0212               	mulwf	(btemp+10)^0,c
  2037  000568  CFF3 F010          	movff	prodl,btemp+8
  2038  00056C  CFF4 F011          	movff	prodh,btemp+9
  2039  000570  0213               	mulwf	(btemp+11)^0,c
  2040  000572  50F3               	movf	prodl,w,c
  2041  000574  2611               	addwf	(btemp+9)^0,f,c
  2042  000576  0E29               	movlw	low (_ready_queue+113)
  2043  000578  2410               	addwf	(btemp+8)^0,w,c
  2044  00057A  6ED9               	movwf	fsr2l,c
  2045  00057C  0E02               	movlw	high (_ready_queue+113)
  2046  00057E  2011               	addwfc	(btemp+9)^0,w,c
  2047  000580  6EDA               	movwf	fsr2h,c
  2048  000582  0E01               	movlw	1
  2049  000584  6EDF               	movwf	indf2,c
  2050  000586                     __ccov193_end_blk38:
  2051                           	callstack 19
  2052  000586                     __ccov194_start_blk39:
  2053                           	callstack 19
  2054  000586  8201               	bsf	(__ccovbit39_48/(0+8))^0,__ccovbit39_48& (0+7),c	;volatile
  2055  000588  8EF2               	bsf	242,7,c	;volatile
  2056  00058A                     __ccov194_end_blk39:
  2057                           	callstack 19
  2058  00058A                     __ccov195_start_blk42:
  2059                           	callstack 19
  2060  00058A                     l1248:
  2061                           
  2062                           ;sync.c: 46:    INTCONbits.GIE = 1;
  2063  00058A  8EF2               	bsf	242,7,c	;volatile
  2064  00058C                     __ccov195_end_blk42:
  2065                           	callstack 19
  2066  00058C                     __ccov196_start_blk43:
  2067                           	callstack 19
  2068  00058C  8001               	bsf	(__ccovbit43_49/(0+8))^0,__ccovbit43_49& (0+7),c	;volatile
  2069                           
  2070                           ; _unlock: autosize = 8, savesize = 0, parsavesize = 0, tempsize = 0 parsize = 2, argsiz
      +                          e = 2, vargsize = 0
  2071  00058E  0EF6               	movlw	246
  2072  000590  26E1               	addwf	fsr1l,f,c
  2073  000592  0EFF               	movlw	255
  2074  000594  22E2               	addwfc	fsr1h,f,c
  2075  000596  0012               	return		;funcret
  2076  000598                     __end_of_unlock:
  2077                           	callstack 0
  2078  0000                     
  2079 ;; *************** function _lock *****************
  2080 ;; Defined at:
  2081 ;;		line 14 in file "sync.c"
  2082 ;; Parameters:    Size  Location     Type
  2083 ;;  resource        2  [STACK] PTR struct mutex
  2084 ;;		 -> m_test(15), 
  2085 ;; Auto vars:     Size  Location     Type
  2086 ;;  task_pos        2  [STACK] unsigned int 
  2087 ;;  p_context       2  [STACK] unsigned int 
  2088 ;;  task_pos        2  [STACK] unsigned int 
  2089 ;;  p_context       2  [STACK] unsigned int 
  2090 ;; Return value:  Size  Location     Type
  2091 ;;                  1  [STACK] void 
  2092 ;; Registers used:
  2093 ;;		wreg, fsr0l, fsr0h, fsr1l, fsr1h, fsr2l, fsr2h, status,2, status,0, pclath, btemp, btemp+1, btemp+2, btemp+3, btemp+
      +4, btemp+5, btemp+6, btemp+7, btemp+8, btemp+9, btemp+10, btemp+11, btemp+12, btemp+13, btemp+14, btemp+15, btemp+16, bt
      +emp+17, btemp+18, btemp+19, btemp+20, btemp+21, btemp+22, btemp+23, btemp+24, btemp+25, btemp+26, btemp+27, btemp+28, bt
      +emp+29, btemp+30, btemp+31, tosl, structret, tblptrl, tblptrh, tblptru, prodl, prodh, bsr, cstack
  2094 ;; Tracked objects:
  2095 ;;		On entry : 0/0
  2096 ;;		On exit  : 0/0
  2097 ;;		Unchanged: 0/0
  2098 ;; Data sizes:     COMRAM   BANK0   BANK1   BANK2   BANK3   BANK4   BANK5
  2099 ;;      Params:         0       0       0       0       0       0       0
  2100 ;;      Locals:         0       0       0       0       0       0       0
  2101 ;;      Temps:          0       0       0       0       0       0       0
  2102 ;;      Totals:         0       0       0       0       0       0       0
  2103 ;;Total ram usage:        0 bytes
  2104 ;; Hardware stack levels used:    1
  2105 ;; Hardware stack levels required when called:    7
  2106 ;; This function calls:
  2107 ;;		_scheduler
  2108 ;; This function is called by:
  2109 ;;		_task_1
  2110 ;;		_task_2
  2111 ;; This function uses a reentrant model
  2112 ;;
  2113                           
  2114                           	psect	text8
  2115  000598                     __ptext8:
  2116                           	callstack 0
  2117  000598                     _lock:
  2118                           	callstack 0
  2119                           
  2120                           ; autosize = 8, savesize = 0, parsavesize = 0, tempsize = 0 parsize = 2, argsize = 2 var
      +                          gsize = 0, retsize = 0 argfudge = 0
  2121  000598  0E08               	movlw	8
  2122  00059A  26E1               	addwf	fsr1l,f,c
  2123  00059C  0E00               	movlw	0
  2124  00059E  22E2               	addwfc	fsr1h,f,c
  2125                           
  2126                           ;incstack = 0
  2127  0005A0                     
  2128                           ;sync.c: 14: void lock(mutex_t *resource);sync.c: 15: {;sync.c: 16:    INTCONbits.GIE = 
      +                          0;
  2129  0005A0  9EF2               	bcf	242,7,c	;volatile
  2130  0005A2                     __ccov131_end_blk0:
  2131                           	callstack 19
  2132  0005A2                     __ccov132_start_blk1:
  2133                           	callstack 19
  2134  0005A2                     
  2135                           ;sync.c: 18:    if (!resource->mutex_flag) resource->mutex_flag = 1;
  2136                           ;stkvar	_resource @ sp[(-8)+-2]
  2137  0005A2  0EF6               	movlw	-10
  2138  0005A4  CFE3 FFD9          	movff	plusw1,fsr2l
  2139  0005A8  0EF7               	movlw	-9
  2140  0005AA  CFE3 FFDA          	movff	plusw1,fsr2h
  2141  0005AE  50DF               	movf	indf2,w,c
  2142  0005B0  A4D8               	btfss	status,2,c
  2143  0005B2  EFDD  F002         	goto	u9_21
  2144  0005B6  EFDF  F002         	goto	u9_20
  2145  0005BA                     u9_21:
  2146  0005BA  EFEA  F002         	goto	l1086
  2147  0005BE                     u9_20:
  2148  0005BE                     __ccov132_end_blk1:
  2149                           	callstack 19
  2150  0005BE                     __ccov133_start_blk2:
  2151                           	callstack 19
  2152  0005BE  8C02               	bsf	(__ccovbit2_35/(0+8))^0,__ccovbit2_35& (0+7),c	;volatile
  2153                           
  2154                           ;stkvar	_resource @ sp[(-8)+-2]
  2155  0005C0  0EF6               	movlw	-10
  2156  0005C2  CFE3 FFD9          	movff	plusw1,fsr2l
  2157  0005C6  0EF7               	movlw	-9
  2158  0005C8  CFE3 FFDA          	movff	plusw1,fsr2h
  2159  0005CC  0E01               	movlw	1
  2160  0005CE  6EDF               	movwf	indf2,c
  2161  0005D0  EF74  F005         	goto	l1138
  2162  0005D4                     __ccov133_end_blk2:
  2163                           	callstack 19
  2164  0005D4                     __ccov134_start_blk4:
  2165                           	callstack 19
  2166  0005D4                     l1086:
  2167                           
  2168                           ;sync.c: 21:       resource->mutex_bloqued_queue.queue[resource->mutex_bloqued_queue.inp
      +                          ut_pos] = ready_queue.task_running;
  2169  0005D4  EE23  F0FE         	lfsr	2,_ready_queue+582
  2170                           
  2171                           ;stkvar	_resource @ sp[(-8)+-2]
  2172  0005D8  0EF6               	movlw	-10
  2173  0005DA  CFE3 F012          	movff	plusw1,btemp+10
  2174  0005DE  0EF7               	movlw	-9
  2175  0005E0  CFE3 F013          	movff	plusw1,btemp+11
  2176  0005E4  0E09               	movlw	9
  2177  0005E6  2412               	addwf	(btemp+10)^0,w,c
  2178  0005E8  6EE9               	movwf	fsr0l,c
  2179  0005EA  0E00               	movlw	0
  2180  0005EC  2013               	addwfc	(btemp+11)^0,w,c
  2181  0005EE  6EEA               	movwf	fsr0h,c
  2182  0005F0  CFEE F012          	movff	postinc0,btemp+10
  2183  0005F4  CFED F013          	movff	postdec0,btemp+11
  2184  0005F8  90D8               	bcf	status,0,c
  2185  0005FA  3412               	rlcf	(btemp+10)^0,w,c
  2186  0005FC  6E10               	movwf	(btemp+8)^0,c
  2187  0005FE  3413               	rlcf	(btemp+11)^0,w,c
  2188  000600  6E11               	movwf	(btemp+9)^0,c
  2189                           
  2190                           ;stkvar	_resource @ sp[(-8)+-2]
  2191  000602  0EF6               	movlw	-10
  2192  000604  50E3               	movf	plusw1,w,c
  2193  000606  2610               	addwf	(btemp+8)^0,f,c
  2194  000608  0EF7               	movlw	-9
  2195  00060A  50E3               	movf	plusw1,w,c
  2196  00060C  2211               	addwfc	(btemp+9)^0,f,c
  2197  00060E  0E01               	movlw	1
  2198  000610  2410               	addwf	(btemp+8)^0,w,c
  2199  000612  6EE9               	movwf	fsr0l,c
  2200  000614  0E00               	movlw	0
  2201  000616  2011               	addwfc	(btemp+9)^0,w,c
  2202  000618  6EEA               	movwf	fsr0h,c
  2203  00061A  CFDE FFEE          	movff	postinc2,postinc0
  2204  00061E  CFDD FFED          	movff	postdec2,postdec0
  2205  000622                     __ccov134_end_blk4:
  2206                           	callstack 19
  2207  000622                     __ccov135_start_blk5:
  2208                           	callstack 19
  2209  000622                     
  2210                           ;sync.c: 22:       resource->mutex_bloqued_queue.input_pos = (resource->mutex_bloqued_qu
      +                          eue.input_pos+1) % 4;
  2211                           ;stkvar	_resource @ sp[(-8)+-2]
  2212  000622  0EF6               	movlw	-10
  2213  000624  CFE3 F012          	movff	plusw1,btemp+10
  2214  000628  0EF7               	movlw	-9
  2215  00062A  CFE3 F013          	movff	plusw1,btemp+11
  2216  00062E  0E09               	movlw	9
  2217  000630  2412               	addwf	(btemp+10)^0,w,c
  2218  000632  6ED9               	movwf	fsr2l,c
  2219  000634  0E00               	movlw	0
  2220  000636  2013               	addwfc	(btemp+11)^0,w,c
  2221  000638  6EDA               	movwf	fsr2h,c
  2222  00063A  CFDE F012          	movff	postinc2,btemp+10
  2223  00063E  CFDD F013          	movff	postdec2,btemp+11
  2224  000642  0E01               	movlw	1
  2225  000644  2612               	addwf	(btemp+10)^0,f,c
  2226  000646  0E00               	movlw	0
  2227  000648  2213               	addwfc	(btemp+11)^0,f,c
  2228  00064A  0E03               	movlw	3
  2229  00064C  1612               	andwf	(btemp+10)^0,f,c
  2230  00064E  0E00               	movlw	0
  2231  000650  1613               	andwf	(btemp+11)^0,f,c
  2232                           
  2233                           ;stkvar	_resource @ sp[(-8)+-2]
  2234  000652  0EF6               	movlw	-10
  2235  000654  CFE3 F010          	movff	plusw1,btemp+8
  2236  000658  0EF7               	movlw	-9
  2237  00065A  CFE3 F011          	movff	plusw1,btemp+9
  2238  00065E  0E09               	movlw	9
  2239  000660  2410               	addwf	(btemp+8)^0,w,c
  2240  000662  6ED9               	movwf	fsr2l,c
  2241  000664  0E00               	movlw	0
  2242  000666  2011               	addwfc	(btemp+9)^0,w,c
  2243  000668  6EDA               	movwf	fsr2h,c
  2244  00066A  C012  FFDE         	movff	btemp+10,postinc2
  2245  00066E  C013  FFDD         	movff	btemp+11,postdec2
  2246  000672                     __ccov135_end_blk5:
  2247                           	callstack 19
  2248  000672                     __ccov136_start_blk6:
  2249                           	callstack 19
  2250  000672                     
  2251                           ;sync.c: 23:       resource->mutex_bloqued_queue.nr_of_tasks_bloqued++;
  2252                           ;stkvar	_resource @ sp[(-8)+-2]
  2253  000672  0EF6               	movlw	-10
  2254  000674  CFE3 F012          	movff	plusw1,btemp+10
  2255  000678  0EF7               	movlw	-9
  2256  00067A  CFE3 F013          	movff	plusw1,btemp+11
  2257  00067E  0E0D               	movlw	13
  2258  000680  2412               	addwf	(btemp+10)^0,w,c
  2259  000682  6ED9               	movwf	fsr2l,c
  2260  000684  0E00               	movlw	0
  2261  000686  2013               	addwfc	(btemp+11)^0,w,c
  2262  000688  6EDA               	movwf	fsr2h,c
  2263  00068A  2ADE               	incf	postinc2,f,c
  2264  00068C  0E00               	movlw	0
  2265  00068E  22DD               	addwfc	postdec2,f,c
  2266  000690                     __ccov136_end_blk6:
  2267                           	callstack 19
  2268  000690                     __ccov137_start_blk7:
  2269                           	callstack 19
  2270  000690                     
  2271                           ;sync.c: 24:       { u_int p_context = 0, task_pos = ready_queue.task_running;do { INTCO
      +                          Nbits.GIE = 0; if (ready_queue.tasks_list[task_pos].task_STATE == RUNNING) { ready_queue
      +                          .tasks_list[task_pos].task_BSR_reg = BSR; ready_queue.tasks_list[task_pos].task_WORK_reg
      +                           = WREG; ready_queue.tasks_list[task_pos].task_STATUS_reg = STATUS; do { ready_queue.tas
      +                          ks_list[task_pos].task_CONTEXT[p_context] = TOS; __asm("POP"); p_context += 1; } while (
      +                          STKPTR); ready_queue.tasks_list[task_pos].task_stack_real_size = p_context; ready_queue.
      +                          tasks_list[task_pos].task_STATE = W_MUTEX; } INTCONbits.GIE = 1; } while(0); };
  2272                           ;stkvar	_p_context @ sp[(-8)+6]
  2273  000690  0EFE               	movlw	-2
  2274  000692  6AE3               	clrf	plusw1,c
  2275  000694  0EFF               	movlw	-1
  2276  000696  6AE3               	clrf	plusw1,c
  2277  000698                     __ccov137_end_blk7:
  2278                           	callstack 19
  2279  000698                     __ccov138_start_blk8:
  2280                           	callstack 19
  2281  000698                     
  2282                           ;stkvar	_task_pos @ sp[(-8)+4]
  2283  000698  0EFC               	movlw	-4
  2284  00069A  C3FE  FFE3         	movff	_ready_queue+582,plusw1
  2285  00069E  0EFD               	movlw	-3
  2286  0006A0  C3FF  FFE3         	movff	_ready_queue+583,plusw1
  2287  0006A4                     __ccov138_end_blk8:
  2288                           	callstack 19
  2289  0006A4                     __ccov139_start_blk10:
  2290                           	callstack 19
  2291  0006A4  9EF2               	bcf	242,7,c	;volatile
  2292  0006A6                     __ccov139_end_blk10:
  2293                           	callstack 19
  2294  0006A6                     __ccov140_start_blk11:
  2295                           	callstack 19
  2296  0006A6                     
  2297                           ;stkvar	_task_pos @ sp[(-8)+4]
  2298  0006A6  0EFC               	movlw	-4
  2299  0006A8  CFE3 F012          	movff	plusw1,btemp+10
  2300  0006AC  0EFD               	movlw	-3
  2301  0006AE  CFE3 F013          	movff	plusw1,btemp+11
  2302  0006B2  0E74               	movlw	116
  2303  0006B4  0212               	mulwf	(btemp+10)^0,c
  2304  0006B6  CFF3 F010          	movff	prodl,btemp+8
  2305  0006BA  CFF4 F011          	movff	prodh,btemp+9
  2306  0006BE  0213               	mulwf	(btemp+11)^0,c
  2307  0006C0  50F3               	movf	prodl,w,c
  2308  0006C2  2611               	addwf	(btemp+9)^0,f,c
  2309  0006C4  0E29               	movlw	low (_ready_queue+113)
  2310  0006C6  2410               	addwf	(btemp+8)^0,w,c
  2311  0006C8  6ED9               	movwf	fsr2l,c
  2312  0006CA  0E02               	movlw	high (_ready_queue+113)
  2313  0006CC  2011               	addwfc	(btemp+9)^0,w,c
  2314  0006CE  6EDA               	movwf	fsr2h,c
  2315  0006D0  04DE               	decf	postinc2,w,c
  2316  0006D2  A4D8               	btfss	status,2,c
  2317  0006D4  EF6E  F003         	goto	u10_21
  2318  0006D8  EF70  F003         	goto	u10_20
  2319  0006DC                     u10_21:
  2320  0006DC  EF53  F004         	goto	l1112
  2321  0006E0                     u10_20:
  2322  0006E0                     __ccov140_end_blk11:
  2323                           	callstack 19
  2324  0006E0                     __ccov141_start_blk12:
  2325                           	callstack 19
  2326  0006E0  50E0               	movf	224,w,c	;volatile
  2327  0006E2  6E11               	movwf	(btemp+9)^0,c
  2328  0006E4  6A12               	clrf	(btemp+10)^0,c
  2329  0006E6  6A13               	clrf	(btemp+11)^0,c
  2330                           
  2331                           ;stkvar	_task_pos @ sp[(-8)+4]
  2332  0006E8  0EFC               	movlw	-4
  2333  0006EA  CFE3 F00E          	movff	plusw1,btemp+6
  2334  0006EE  0EFD               	movlw	-3
  2335  0006F0  CFE3 F00F          	movff	plusw1,btemp+7
  2336  0006F4  0E74               	movlw	116
  2337  0006F6  020E               	mulwf	(btemp+6)^0,c
  2338  0006F8  CFF3 F00C          	movff	prodl,btemp+4
  2339  0006FC  CFF4 F00D          	movff	prodh,btemp+5
  2340  000700  020F               	mulwf	(btemp+7)^0,c
  2341  000702  50F3               	movf	prodl,w,c
  2342  000704  260D               	addwf	(btemp+5)^0,f,c
  2343  000706  0E1E               	movlw	low (_ready_queue+102)
  2344  000708  240C               	addwf	(btemp+4)^0,w,c
  2345  00070A  6ED9               	movwf	fsr2l,c
  2346  00070C  0E02               	movlw	high (_ready_queue+102)
  2347  00070E  200D               	addwfc	(btemp+5)^0,w,c
  2348  000710  6EDA               	movwf	fsr2h,c
  2349  000712  C011  FFDE         	movff	btemp+9,postinc2
  2350  000716  C012  FFDE         	movff	btemp+10,postinc2
  2351  00071A  C013  FFDE         	movff	btemp+11,postinc2
  2352  00071E  6E11               	movwf	(btemp+9)^0,c
  2353  000720  6A12               	clrf	(btemp+10)^0,c
  2354  000722  6A13               	clrf	(btemp+11)^0,c
  2355                           
  2356                           ;stkvar	_task_pos @ sp[(-8)+4]
  2357  000724  0EFC               	movlw	-4
  2358  000726  CFE3 F00E          	movff	plusw1,btemp+6
  2359  00072A  0EFD               	movlw	-3
  2360  00072C  CFE3 F00F          	movff	plusw1,btemp+7
  2361  000730  0E74               	movlw	116
  2362  000732  020E               	mulwf	(btemp+6)^0,c
  2363  000734  CFF3 F00C          	movff	prodl,btemp+4
  2364  000738  CFF4 F00D          	movff	prodh,btemp+5
  2365  00073C  020F               	mulwf	(btemp+7)^0,c
  2366  00073E  50F3               	movf	prodl,w,c
  2367  000740  260D               	addwf	(btemp+5)^0,f,c
  2368  000742  0E21               	movlw	low (_ready_queue+105)
  2369  000744  240C               	addwf	(btemp+4)^0,w,c
  2370  000746  6ED9               	movwf	fsr2l,c
  2371  000748  0E02               	movlw	high (_ready_queue+105)
  2372  00074A  200D               	addwfc	(btemp+5)^0,w,c
  2373  00074C  6EDA               	movwf	fsr2h,c
  2374  00074E  C011  FFDE         	movff	btemp+9,postinc2
  2375  000752  C012  FFDE         	movff	btemp+10,postinc2
  2376  000756  C013  FFDE         	movff	btemp+11,postinc2
  2377  00075A  50D8               	movf	216,w,c	;volatile
  2378  00075C  6E11               	movwf	(btemp+9)^0,c
  2379  00075E  6A12               	clrf	(btemp+10)^0,c
  2380  000760  6A13               	clrf	(btemp+11)^0,c
  2381                           
  2382                           ;stkvar	_task_pos @ sp[(-8)+4]
  2383  000762  0EFC               	movlw	-4
  2384  000764  CFE3 F00E          	movff	plusw1,btemp+6
  2385  000768  0EFD               	movlw	-3
  2386  00076A  CFE3 F00F          	movff	plusw1,btemp+7
  2387  00076E  0E74               	movlw	116
  2388  000770  020E               	mulwf	(btemp+6)^0,c
  2389  000772  CFF3 F00C          	movff	prodl,btemp+4
  2390  000776  CFF4 F00D          	movff	prodh,btemp+5
  2391  00077A  020F               	mulwf	(btemp+7)^0,c
  2392  00077C  50F3               	movf	prodl,w,c
  2393  00077E  260D               	addwf	(btemp+5)^0,f,c
  2394  000780  0E24               	movlw	low (_ready_queue+108)
  2395  000782  240C               	addwf	(btemp+4)^0,w,c
  2396  000784  6ED9               	movwf	fsr2l,c
  2397  000786  0E02               	movlw	high (_ready_queue+108)
  2398  000788  200D               	addwfc	(btemp+5)^0,w,c
  2399  00078A  6EDA               	movwf	fsr2h,c
  2400  00078C  C011  FFDE         	movff	btemp+9,postinc2
  2401  000790  C012  FFDE         	movff	btemp+10,postinc2
  2402  000794  C013  FFDE         	movff	btemp+11,postinc2
  2403  000798                     __ccov141_end_blk12:
  2404                           	callstack 19
  2405  000798                     __ccov142_start_blk14:
  2406                           	callstack 19
  2407  000798                     l1102:
  2408                           
  2409                           ;stkvar	_p_context @ sp[(-8)+6]
  2410  000798  0EFE               	movlw	-2
  2411  00079A  CFE3 F012          	movff	plusw1,btemp+10
  2412  00079E  0EFF               	movlw	-1
  2413  0007A0  CFE3 F013          	movff	plusw1,btemp+11
  2414  0007A4  0E03               	movlw	3
  2415  0007A6  0212               	mulwf	(btemp+10)^0,c
  2416  0007A8  CFF3 F010          	movff	prodl,btemp+8
  2417  0007AC  CFF4 F011          	movff	prodh,btemp+9
  2418  0007B0  0213               	mulwf	(btemp+11)^0,c
  2419  0007B2  50F3               	movf	prodl,w,c
  2420  0007B4  2611               	addwf	(btemp+9)^0,f,c
  2421                           
  2422                           ;stkvar	_task_pos @ sp[(-8)+4]
  2423  0007B6  0EFC               	movlw	-4
  2424  0007B8  CFE3 F012          	movff	plusw1,btemp+10
  2425  0007BC  0EFD               	movlw	-3
  2426  0007BE  CFE3 F013          	movff	plusw1,btemp+11
  2427  0007C2  0E74               	movlw	116
  2428  0007C4  0212               	mulwf	(btemp+10)^0,c
  2429  0007C6  CFF3 F00E          	movff	prodl,btemp+6
  2430  0007CA  CFF4 F00F          	movff	prodh,btemp+7
  2431  0007CE  0213               	mulwf	(btemp+11)^0,c
  2432  0007D0  50F3               	movf	prodl,w,c
  2433  0007D2  260F               	addwf	(btemp+7)^0,f,c
  2434  0007D4  0EB8               	movlw	low _ready_queue
  2435  0007D6  6E12               	movwf	(btemp+10)^0,c
  2436  0007D8  0E01               	movlw	high _ready_queue
  2437  0007DA  6E13               	movwf	(btemp+11)^0,c
  2438  0007DC  0E06               	movlw	6
  2439  0007DE  2612               	addwf	(btemp+10)^0,f,c
  2440  0007E0  0E00               	movlw	0
  2441  0007E2  2213               	addwfc	(btemp+11)^0,f,c
  2442  0007E4  500E               	movf	(btemp+6)^0,w,c
  2443  0007E6  2612               	addwf	(btemp+10)^0,f,c
  2444  0007E8  500F               	movf	(btemp+7)^0,w,c
  2445  0007EA  2213               	addwfc	(btemp+11)^0,f,c
  2446  0007EC  5010               	movf	(btemp+8)^0,w,c
  2447  0007EE  2412               	addwf	(btemp+10)^0,w,c
  2448  0007F0  6ED9               	movwf	fsr2l,c
  2449  0007F2  5011               	movf	(btemp+9)^0,w,c
  2450  0007F4  2013               	addwfc	(btemp+11)^0,w,c
  2451  0007F6  6EDA               	movwf	fsr2h,c
  2452  0007F8  CFFD FFDE          	movff	tosl,postinc2	;volatile
  2453  0007FC  CFFE FFDE          	movff	tosh,postinc2	;volatile
  2454  000800  CFFF FFDE          	movff	tosu,postinc2	;volatile
  2455  000804  0006               	pop		;# 
  2456  000806                     __ccov142_end_blk14:
  2457                           	callstack 19
  2458  000806                     __ccov143_start_blk15:
  2459                           	callstack 19
  2460  000806                     
  2461                           ;stkvar	_p_context @ sp[(-8)+6]
  2462  000806  0EFE               	movlw	-2
  2463  000808  50E3               	movf	plusw1,w,c
  2464  00080A  0F01               	addlw	1
  2465  00080C  6E08               	movwf	btemp^0,c
  2466  00080E  0EFE               	movlw	-2
  2467  000810  C008  FFE3         	movff	btemp,plusw1
  2468  000814  6A08               	clrf	btemp^0,c
  2469  000816  0EFF               	movlw	-1
  2470  000818  50E3               	movf	plusw1,w,c
  2471  00081A  2008               	addwfc	btemp^0,w,c
  2472  00081C  6E08               	movwf	btemp^0,c
  2473  00081E  0EFF               	movlw	-1
  2474  000820  C008  FFE3         	movff	btemp,plusw1
  2475  000824                     __ccov143_end_blk15:
  2476                           	callstack 19
  2477  000824                     __ccov144_start_blk16:
  2478                           	callstack 19
  2479  000824  8A02               	bsf	(__ccovbit16_36/(0+8))^0,__ccovbit16_36& (0+7),c	;volatile
  2480  000826  50FC               	movf	252,w,c	;volatile
  2481  000828  A4D8               	btfss	status,2,c
  2482  00082A  EF19  F004         	goto	u11_21
  2483  00082E  EF1B  F004         	goto	u11_20
  2484  000832                     u11_21:
  2485  000832  EFCC  F003         	goto	l1102
  2486  000836                     u11_20:
  2487  000836                     __ccov144_end_blk16:
  2488                           	callstack 19
  2489  000836                     __ccov145_start_blk18:
  2490                           	callstack 19
  2491  000836                     
  2492                           ;stkvar	_p_context @ sp[(-8)+6]
  2493  000836  50E1               	movf	fsr1l,w,c
  2494  000838  0FFE               	addlw	-2
  2495  00083A  6ED9               	movwf	fsr2l,c
  2496  00083C  50E2               	movf	fsr1h,w,c
  2497  00083E  6EDA               	movwf	fsr2h,c
  2498  000840  0EFF               	movlw	255
  2499  000842  22DA               	addwfc	fsr2h,f,c
  2500                           
  2501                           ;stkvar	_task_pos @ sp[(-8)+4]
  2502  000844  0EFC               	movlw	-4
  2503  000846  CFE3 F012          	movff	plusw1,btemp+10
  2504  00084A  0EFD               	movlw	-3
  2505  00084C  CFE3 F013          	movff	plusw1,btemp+11
  2506  000850  0E74               	movlw	116
  2507  000852  0212               	mulwf	(btemp+10)^0,c
  2508  000854  CFF3 F010          	movff	prodl,btemp+8
  2509  000858  CFF4 F011          	movff	prodh,btemp+9
  2510  00085C  0213               	mulwf	(btemp+11)^0,c
  2511  00085E  50F3               	movf	prodl,w,c
  2512  000860  2611               	addwf	(btemp+9)^0,f,c
  2513  000862  0E27               	movlw	low (_ready_queue+111)
  2514  000864  2410               	addwf	(btemp+8)^0,w,c
  2515  000866  6EE9               	movwf	fsr0l,c
  2516  000868  0E02               	movlw	high (_ready_queue+111)
  2517  00086A  2011               	addwfc	(btemp+9)^0,w,c
  2518  00086C  6EEA               	movwf	fsr0h,c
  2519  00086E  CFDE FFEE          	movff	postinc2,postinc0
  2520  000872  CFDD FFED          	movff	postdec2,postdec0
  2521  000876                     __ccov145_end_blk18:
  2522                           	callstack 19
  2523  000876                     __ccov146_start_blk19:
  2524                           	callstack 19
  2525  000876  8802               	bsf	(__ccovbit19_37/(0+8))^0,__ccovbit19_37& (0+7),c	;volatile
  2526                           
  2527                           ;stkvar	_task_pos @ sp[(-8)+4]
  2528  000878  0EFC               	movlw	-4
  2529  00087A  CFE3 F012          	movff	plusw1,btemp+10
  2530  00087E  0EFD               	movlw	-3
  2531  000880  CFE3 F013          	movff	plusw1,btemp+11
  2532  000884  0E74               	movlw	116
  2533  000886  0212               	mulwf	(btemp+10)^0,c
  2534  000888  CFF3 F010          	movff	prodl,btemp+8
  2535  00088C  CFF4 F011          	movff	prodh,btemp+9
  2536  000890  0213               	mulwf	(btemp+11)^0,c
  2537  000892  50F3               	movf	prodl,w,c
  2538  000894  2611               	addwf	(btemp+9)^0,f,c
  2539  000896  0E29               	movlw	low (_ready_queue+113)
  2540  000898  2410               	addwf	(btemp+8)^0,w,c
  2541  00089A  6ED9               	movwf	fsr2l,c
  2542  00089C  0E02               	movlw	high (_ready_queue+113)
  2543  00089E  2011               	addwfc	(btemp+9)^0,w,c
  2544  0008A0  6EDA               	movwf	fsr2h,c
  2545  0008A2  0E03               	movlw	3
  2546  0008A4  6EDF               	movwf	indf2,c
  2547  0008A6                     __ccov146_end_blk19:
  2548                           	callstack 19
  2549  0008A6                     __ccov147_start_blk21:
  2550                           	callstack 19
  2551  0008A6                     l1112:
  2552  0008A6  8EF2               	bsf	242,7,c	;volatile
  2553  0008A8                     __ccov147_end_blk21:
  2554                           	callstack 19
  2555  0008A8                     __ccov148_start_blk23:
  2556                           	callstack 19
  2557  0008A8                     
  2558                           ;sync.c: 25:       scheduler();
  2559  0008A8  EC5E  F00D         	call	_scheduler	;wreg free
  2560  0008AC                     __ccov148_end_blk23:
  2561                           	callstack 19
  2562  0008AC                     __ccov149_start_blk24:
  2563                           	callstack 19
  2564  0008AC                     
  2565                           ;sync.c: 26:       { u_int task_pos = ready_queue.task_running;u_int p_context = ready_q
      +                          ueue.tasks_list[task_pos].task_stack_real_size;do { INTCONbits.GIE = 0; STKPTR = 0; if (
      +                          ready_queue.tasks_list[task_pos].task_stack_real_size > 0) { BSR = ready_queue.tasks_lis
      +                          t[task_pos].task_BSR_reg; WREG = ready_queue.tasks_list[task_pos].task_WORK_reg; STATUS 
      +                          = ready_queue.tasks_list[task_pos].task_STATUS_reg; while (p_context) { p_context -= 1; 
      +                          __asm("PUSH"); TOS = ready_queue.tasks_list[task_pos].task_CONTEXT[p_context]; } } else 
      +                          { __asm("PUSH"); TOS = ready_queue.tasks_list[task_pos].task_PTR; } ready_queue.tasks_li
      +                          st[task_pos].task_STATE = RUNNING; INTCONbits.GIE = 1; } while(0); };
  2566                           ;stkvar	_task_pos @ sp[(-8)+0]
  2567  0008AC  0EF8               	movlw	-8
  2568  0008AE  C3FE  FFE3         	movff	_ready_queue+582,plusw1
  2569  0008B2  0EF9               	movlw	-7
  2570  0008B4  C3FF  FFE3         	movff	_ready_queue+583,plusw1
  2571  0008B8                     __ccov149_end_blk24:
  2572                           	callstack 19
  2573  0008B8                     __ccov150_start_blk25:
  2574                           	callstack 19
  2575  0008B8                     
  2576                           ;stkvar	_task_pos @ sp[(-8)+0]
  2577  0008B8  0EF8               	movlw	-8
  2578  0008BA  CFE3 F012          	movff	plusw1,btemp+10
  2579  0008BE  0EF9               	movlw	-7
  2580  0008C0  CFE3 F013          	movff	plusw1,btemp+11
  2581  0008C4  0E74               	movlw	116
  2582  0008C6  0212               	mulwf	(btemp+10)^0,c
  2583  0008C8  CFF3 F010          	movff	prodl,btemp+8
  2584  0008CC  CFF4 F011          	movff	prodh,btemp+9
  2585  0008D0  0213               	mulwf	(btemp+11)^0,c
  2586  0008D2  50F3               	movf	prodl,w,c
  2587  0008D4  2611               	addwf	(btemp+9)^0,f,c
  2588  0008D6  0E27               	movlw	low (_ready_queue+111)
  2589  0008D8  2410               	addwf	(btemp+8)^0,w,c
  2590  0008DA  6ED9               	movwf	fsr2l,c
  2591  0008DC  0E02               	movlw	high (_ready_queue+111)
  2592  0008DE  2011               	addwfc	(btemp+9)^0,w,c
  2593  0008E0  6EDA               	movwf	fsr2h,c
  2594  0008E2  CFDE F012          	movff	postinc2,btemp+10
  2595  0008E6  CFDD F013          	movff	postdec2,btemp+11
  2596                           
  2597                           ;stkvar	_p_context @ sp[(-8)+2]
  2598  0008EA  0EFA               	movlw	-6
  2599  0008EC  C012  FFE3         	movff	btemp+10,plusw1
  2600  0008F0  0EFB               	movlw	-5
  2601  0008F2  C013  FFE3         	movff	btemp+11,plusw1
  2602  0008F6                     __ccov150_end_blk25:
  2603                           	callstack 19
  2604  0008F6                     __ccov151_start_blk27:
  2605                           	callstack 19
  2606  0008F6  9EF2               	bcf	242,7,c	;volatile
  2607  0008F8                     __ccov151_end_blk27:
  2608                           	callstack 19
  2609  0008F8                     __ccov152_start_blk28:
  2610                           	callstack 19
  2611  0008F8  6AFC               	clrf	252,c	;volatile
  2612  0008FA                     __ccov152_end_blk28:
  2613                           	callstack 19
  2614  0008FA                     __ccov153_start_blk29:
  2615                           	callstack 19
  2616  0008FA                     
  2617                           ;stkvar	_task_pos @ sp[(-8)+0]
  2618  0008FA  0EF8               	movlw	-8
  2619  0008FC  CFE3 F012          	movff	plusw1,btemp+10
  2620  000900  0EF9               	movlw	-7
  2621  000902  CFE3 F013          	movff	plusw1,btemp+11
  2622  000906  0E74               	movlw	116
  2623  000908  0212               	mulwf	(btemp+10)^0,c
  2624  00090A  CFF3 F010          	movff	prodl,btemp+8
  2625  00090E  CFF4 F011          	movff	prodh,btemp+9
  2626  000912  0213               	mulwf	(btemp+11)^0,c
  2627  000914  50F3               	movf	prodl,w,c
  2628  000916  2611               	addwf	(btemp+9)^0,f,c
  2629  000918  0E27               	movlw	low (_ready_queue+111)
  2630  00091A  2410               	addwf	(btemp+8)^0,w,c
  2631  00091C  6ED9               	movwf	fsr2l,c
  2632  00091E  0E02               	movlw	high (_ready_queue+111)
  2633  000920  2011               	addwfc	(btemp+9)^0,w,c
  2634  000922  6EDA               	movwf	fsr2h,c
  2635  000924  50DE               	movf	postinc2,w,c
  2636  000926  10DE               	iorwf	postinc2,w,c
  2637  000928  B4D8               	btfsc	status,2,c
  2638  00092A  EF99  F004         	goto	u12_21
  2639  00092E  EF9B  F004         	goto	u12_20
  2640  000932                     u12_21:
  2641  000932  EF3B  F005         	goto	l233
  2642  000936                     u12_20:
  2643  000936                     __ccov153_end_blk29:
  2644                           	callstack 19
  2645  000936                     __ccov154_start_blk30:
  2646                           	callstack 19
  2647  000936                     
  2648                           ;stkvar	_task_pos @ sp[(-8)+0]
  2649  000936  0EF8               	movlw	-8
  2650  000938  CFE3 F012          	movff	plusw1,btemp+10
  2651  00093C  0EF9               	movlw	-7
  2652  00093E  CFE3 F013          	movff	plusw1,btemp+11
  2653  000942  0E74               	movlw	116
  2654  000944  0212               	mulwf	(btemp+10)^0,c
  2655  000946  CFF3 F010          	movff	prodl,btemp+8
  2656  00094A  CFF4 F011          	movff	prodh,btemp+9
  2657  00094E  0213               	mulwf	(btemp+11)^0,c
  2658  000950  50F3               	movf	prodl,w,c
  2659  000952  2611               	addwf	(btemp+9)^0,f,c
  2660  000954  0E1E               	movlw	low (_ready_queue+102)
  2661  000956  2410               	addwf	(btemp+8)^0,w,c
  2662  000958  6ED9               	movwf	fsr2l,c
  2663  00095A  0E02               	movlw	high (_ready_queue+102)
  2664  00095C  2011               	addwfc	(btemp+9)^0,w,c
  2665  00095E  6EDA               	movwf	fsr2h,c
  2666  000960  50DF               	movf	indf2,w,c
  2667  000962  6EE0               	movwf	224,c	;volatile
  2668                           
  2669                           ;stkvar	_task_pos @ sp[(-8)+0]
  2670  000964  0EF8               	movlw	-8
  2671  000966  CFE3 F012          	movff	plusw1,btemp+10
  2672  00096A  0EF9               	movlw	-7
  2673  00096C  CFE3 F013          	movff	plusw1,btemp+11
  2674  000970  0E74               	movlw	116
  2675  000972  0212               	mulwf	(btemp+10)^0,c
  2676  000974  CFF3 F010          	movff	prodl,btemp+8
  2677  000978  CFF4 F011          	movff	prodh,btemp+9
  2678  00097C  0213               	mulwf	(btemp+11)^0,c
  2679  00097E  50F3               	movf	prodl,w,c
  2680  000980  2611               	addwf	(btemp+9)^0,f,c
  2681  000982  0E21               	movlw	low (_ready_queue+105)
  2682  000984  2410               	addwf	(btemp+8)^0,w,c
  2683  000986  6ED9               	movwf	fsr2l,c
  2684  000988  0E02               	movlw	high (_ready_queue+105)
  2685  00098A  2011               	addwfc	(btemp+9)^0,w,c
  2686  00098C  6EDA               	movwf	fsr2h,c
  2687  00098E  50DF               	movf	indf2,w,c
  2688  000990  6E13               	movwf	(btemp+11)^0,c
  2689  000992  5013               	movf	(btemp+11)^0,w,c
  2690                           
  2691                           ;stkvar	_task_pos @ sp[(-8)+0]
  2692  000994  0EF8               	movlw	-8
  2693  000996  CFE3 F012          	movff	plusw1,btemp+10
  2694  00099A  0EF9               	movlw	-7
  2695  00099C  CFE3 F013          	movff	plusw1,btemp+11
  2696  0009A0  0E74               	movlw	116
  2697  0009A2  0212               	mulwf	(btemp+10)^0,c
  2698  0009A4  CFF3 F010          	movff	prodl,btemp+8
  2699  0009A8  CFF4 F011          	movff	prodh,btemp+9
  2700  0009AC  0213               	mulwf	(btemp+11)^0,c
  2701  0009AE  50F3               	movf	prodl,w,c
  2702  0009B0  2611               	addwf	(btemp+9)^0,f,c
  2703  0009B2  0E24               	movlw	low (_ready_queue+108)
  2704  0009B4  2410               	addwf	(btemp+8)^0,w,c
  2705  0009B6  6ED9               	movwf	fsr2l,c
  2706  0009B8  0E02               	movlw	high (_ready_queue+108)
  2707  0009BA  2011               	addwfc	(btemp+9)^0,w,c
  2708  0009BC  6EDA               	movwf	fsr2h,c
  2709  0009BE  50DF               	movf	indf2,w,c
  2710  0009C0  6ED8               	movwf	216,c	;volatile
  2711  0009C2  EF2B  F005         	goto	l1132
  2712  0009C6                     __ccov154_end_blk30:
  2713                           	callstack 19
  2714  0009C6                     __ccov155_start_blk32:
  2715                           	callstack 19
  2716  0009C6                     l1128:
  2717                           
  2718                           ;stkvar	_p_context @ sp[(-8)+2]
  2719  0009C6  0EFA               	movlw	-6
  2720  0009C8  CFE3 F008          	movff	plusw1,btemp
  2721  0009CC  0E01               	movlw	1
  2722  0009CE  5E08               	subwf	btemp^0,f,c
  2723  0009D0  0EFA               	movlw	-6
  2724  0009D2  C008  FFE3         	movff	btemp,plusw1
  2725  0009D6  0EFB               	movlw	-5
  2726  0009D8  CFE3 F008          	movff	plusw1,btemp
  2727  0009DC  0E00               	movlw	0
  2728  0009DE  5A08               	subwfb	btemp^0,f,c
  2729  0009E0  0EFB               	movlw	-5
  2730  0009E2  C008  FFE3         	movff	btemp,plusw1
  2731  0009E6  0005               	push		;# 
  2732  0009E8                     __ccov155_end_blk32:
  2733                           	callstack 19
  2734  0009E8                     __ccov156_start_blk33:
  2735                           	callstack 19
  2736  0009E8  8602               	bsf	(__ccovbit33_38/(0+8))^0,__ccovbit33_38& (0+7),c	;volatile
  2737                           
  2738                           ;stkvar	_p_context @ sp[(-8)+2]
  2739  0009EA  0EFA               	movlw	-6
  2740  0009EC  CFE3 F012          	movff	plusw1,btemp+10
  2741  0009F0  0EFB               	movlw	-5
  2742  0009F2  CFE3 F013          	movff	plusw1,btemp+11
  2743  0009F6  0E03               	movlw	3
  2744  0009F8  0212               	mulwf	(btemp+10)^0,c
  2745  0009FA  CFF3 F010          	movff	prodl,btemp+8
  2746  0009FE  CFF4 F011          	movff	prodh,btemp+9
  2747  000A02  0213               	mulwf	(btemp+11)^0,c
  2748  000A04  50F3               	movf	prodl,w,c
  2749  000A06  2611               	addwf	(btemp+9)^0,f,c
  2750                           
  2751                           ;stkvar	_task_pos @ sp[(-8)+0]
  2752  000A08  0EF8               	movlw	-8
  2753  000A0A  CFE3 F012          	movff	plusw1,btemp+10
  2754  000A0E  0EF9               	movlw	-7
  2755  000A10  CFE3 F013          	movff	plusw1,btemp+11
  2756  000A14  0E74               	movlw	116
  2757  000A16  0212               	mulwf	(btemp+10)^0,c
  2758  000A18  CFF3 F00E          	movff	prodl,btemp+6
  2759  000A1C  CFF4 F00F          	movff	prodh,btemp+7
  2760  000A20  0213               	mulwf	(btemp+11)^0,c
  2761  000A22  50F3               	movf	prodl,w,c
  2762  000A24  260F               	addwf	(btemp+7)^0,f,c
  2763  000A26  0EB8               	movlw	low _ready_queue
  2764  000A28  6E12               	movwf	(btemp+10)^0,c
  2765  000A2A  0E01               	movlw	high _ready_queue
  2766  000A2C  6E13               	movwf	(btemp+11)^0,c
  2767  000A2E  0E06               	movlw	6
  2768  000A30  2612               	addwf	(btemp+10)^0,f,c
  2769  000A32  0E00               	movlw	0
  2770  000A34  2213               	addwfc	(btemp+11)^0,f,c
  2771  000A36  500E               	movf	(btemp+6)^0,w,c
  2772  000A38  2612               	addwf	(btemp+10)^0,f,c
  2773  000A3A  500F               	movf	(btemp+7)^0,w,c
  2774  000A3C  2213               	addwfc	(btemp+11)^0,f,c
  2775  000A3E  5010               	movf	(btemp+8)^0,w,c
  2776  000A40  2412               	addwf	(btemp+10)^0,w,c
  2777  000A42  6ED9               	movwf	fsr2l,c
  2778  000A44  5011               	movf	(btemp+9)^0,w,c
  2779  000A46  2013               	addwfc	(btemp+11)^0,w,c
  2780  000A48  6EDA               	movwf	fsr2h,c
  2781  000A4A  CFDE FFFD          	movff	postinc2,tosl	;volatile
  2782  000A4E  CFDE FFFE          	movff	postinc2,tosh	;volatile
  2783  000A52  CFDD FFFF          	movff	postdec2,tosu	;volatile
  2784  000A56                     __ccov156_end_blk33:
  2785                           	callstack 19
  2786  000A56                     __ccov157_start_blk35:
  2787                           	callstack 19
  2788  000A56                     l1132:
  2789  000A56  8402               	bsf	(__ccovbit35_39/(0+8))^0,__ccovbit35_39& (0+7),c	;volatile
  2790                           
  2791                           ;stkvar	_p_context @ sp[(-8)+2]
  2792  000A58  0EFA               	movlw	-6
  2793  000A5A  CFE3 F008          	movff	plusw1,btemp
  2794  000A5E  0EFB               	movlw	-5
  2795  000A60  50E3               	movf	plusw1,w,c
  2796  000A62  1008               	iorwf	btemp^0,w,c
  2797  000A64  A4D8               	btfss	status,2,c
  2798  000A66  EF37  F005         	goto	u13_21
  2799  000A6A  EF39  F005         	goto	u13_20
  2800  000A6E                     u13_21:
  2801  000A6E  EFE3  F004         	goto	l1128
  2802  000A72                     u13_20:
  2803  000A72  EF5B  F005         	goto	l237
  2804  000A76                     __ccov157_end_blk35:
  2805                           	callstack 19
  2806  000A76                     __ccov158_start_blk37:
  2807                           	callstack 19
  2808  000A76                     l233:
  2809  000A76  0005               	push		;# 
  2810  000A78                     __ccov158_end_blk37:
  2811                           	callstack 19
  2812  000A78                     __ccov159_start_blk38:
  2813                           	callstack 19
  2814  000A78  8202               	bsf	(__ccovbit38_40/(0+8))^0,__ccovbit38_40& (0+7),c	;volatile
  2815                           
  2816                           ;stkvar	_task_pos @ sp[(-8)+0]
  2817  000A7A  0EF8               	movlw	-8
  2818  000A7C  CFE3 F012          	movff	plusw1,btemp+10
  2819  000A80  0EF9               	movlw	-7
  2820  000A82  CFE3 F013          	movff	plusw1,btemp+11
  2821  000A86  0E74               	movlw	116
  2822  000A88  0212               	mulwf	(btemp+10)^0,c
  2823  000A8A  CFF3 F010          	movff	prodl,btemp+8
  2824  000A8E  CFF4 F011          	movff	prodh,btemp+9
  2825  000A92  0213               	mulwf	(btemp+11)^0,c
  2826  000A94  50F3               	movf	prodl,w,c
  2827  000A96  2611               	addwf	(btemp+9)^0,f,c
  2828  000A98  0EBC               	movlw	low (_ready_queue+4)
  2829  000A9A  2410               	addwf	(btemp+8)^0,w,c
  2830  000A9C  6ED9               	movwf	fsr2l,c
  2831  000A9E  0E01               	movlw	high (_ready_queue+4)
  2832  000AA0  2011               	addwfc	(btemp+9)^0,w,c
  2833  000AA2  6EDA               	movwf	fsr2h,c
  2834  000AA4  CFDE F012          	movff	postinc2,btemp+10
  2835  000AA8  CFDD F013          	movff	postdec2,btemp+11
  2836  000AAC  C012  FFFD         	movff	btemp+10,tosl	;volatile
  2837  000AB0  C013  FFFE         	movff	btemp+11,tosh	;volatile
  2838  000AB4  6AFF               	clrf	255,c	;volatile
  2839  000AB6                     __ccov159_end_blk38:
  2840                           	callstack 19
  2841  000AB6                     __ccov160_start_blk39:
  2842                           	callstack 19
  2843  000AB6                     l237:
  2844                           
  2845                           ;stkvar	_task_pos @ sp[(-8)+0]
  2846  000AB6  0EF8               	movlw	-8
  2847  000AB8  CFE3 F012          	movff	plusw1,btemp+10
  2848  000ABC  0EF9               	movlw	-7
  2849  000ABE  CFE3 F013          	movff	plusw1,btemp+11
  2850  000AC2  0E74               	movlw	116
  2851  000AC4  0212               	mulwf	(btemp+10)^0,c
  2852  000AC6  CFF3 F010          	movff	prodl,btemp+8
  2853  000ACA  CFF4 F011          	movff	prodh,btemp+9
  2854  000ACE  0213               	mulwf	(btemp+11)^0,c
  2855  000AD0  50F3               	movf	prodl,w,c
  2856  000AD2  2611               	addwf	(btemp+9)^0,f,c
  2857  000AD4  0E29               	movlw	low (_ready_queue+113)
  2858  000AD6  2410               	addwf	(btemp+8)^0,w,c
  2859  000AD8  6ED9               	movwf	fsr2l,c
  2860  000ADA  0E02               	movlw	high (_ready_queue+113)
  2861  000ADC  2011               	addwfc	(btemp+9)^0,w,c
  2862  000ADE  6EDA               	movwf	fsr2h,c
  2863  000AE0  0E01               	movlw	1
  2864  000AE2  6EDF               	movwf	indf2,c
  2865  000AE4                     __ccov160_end_blk39:
  2866                           	callstack 19
  2867  000AE4                     __ccov161_start_blk40:
  2868                           	callstack 19
  2869  000AE4  8002               	bsf	(__ccovbit40_41/(0+8))^0,__ccovbit40_41& (0+7),c	;volatile
  2870  000AE6  8EF2               	bsf	242,7,c	;volatile
  2871  000AE8                     __ccov161_end_blk40:
  2872                           	callstack 19
  2873  000AE8                     __ccov162_start_blk43:
  2874                           	callstack 19
  2875  000AE8                     l1138:
  2876                           
  2877                           ;sync.c: 28:    INTCONbits.GIE = 1;
  2878  000AE8  8EF2               	bsf	242,7,c	;volatile
  2879  000AEA                     __ccov162_end_blk43:
  2880                           	callstack 19
  2881  000AEA                     __ccov163_start_blk44:
  2882                           	callstack 19
  2883  000AEA  8E01               	bsf	(__ccovbit44_42/(0+8))^0,__ccovbit44_42& (0+7),c	;volatile
  2884                           
  2885                           ; _lock: autosize = 8, savesize = 0, parsavesize = 0, tempsize = 0 parsize = 2, argsize 
      +                          = 2, vargsize = 0
  2886  000AEC  0EF6               	movlw	246
  2887  000AEE  26E1               	addwf	fsr1l,f,c
  2888  000AF0  0EFF               	movlw	255
  2889  000AF2  22E2               	addwfc	fsr1h,f,c
  2890  000AF4  0012               	return		;funcret
  2891  000AF6                     __end_of_lock:
  2892                           	callstack 0
  2893  0000                     
  2894 ;; *************** function _delay_task *****************
  2895 ;; Defined at:
  2896 ;;		line 140 in file "kernel.c"
  2897 ;; Parameters:    Size  Location     Type
  2898 ;;  time            2  [STACK] unsigned int 
  2899 ;; Auto vars:     Size  Location     Type
  2900 ;;  task_pos        2  [STACK] unsigned int 
  2901 ;;  p_context       2  [STACK] unsigned int 
  2902 ;;  task_pos        2  [STACK] unsigned int 
  2903 ;;  p_context       2  [STACK] unsigned int 
  2904 ;; Return value:  Size  Location     Type
  2905 ;;                  1  [STACK] void 
  2906 ;; Registers used:
  2907 ;;		wreg, fsr0l, fsr0h, fsr1l, fsr1h, fsr2l, fsr2h, status,2, status,0, pclath, btemp, btemp+1, btemp+2, btemp+3, btemp+
      +4, btemp+5, btemp+6, btemp+7, btemp+8, btemp+9, btemp+10, btemp+11, btemp+12, btemp+13, btemp+14, btemp+15, btemp+16, bt
      +emp+17, btemp+18, btemp+19, btemp+20, btemp+21, btemp+22, btemp+23, btemp+24, btemp+25, btemp+26, btemp+27, btemp+28, bt
      +emp+29, btemp+30, btemp+31, tosl, structret, tblptrl, tblptrh, tblptru, prodl, prodh, bsr, cstack
  2908 ;; Tracked objects:
  2909 ;;		On entry : 0/0
  2910 ;;		On exit  : 0/0
  2911 ;;		Unchanged: 0/0
  2912 ;; Data sizes:     COMRAM   BANK0   BANK1   BANK2   BANK3   BANK4   BANK5
  2913 ;;      Params:         0       0       0       0       0       0       0
  2914 ;;      Locals:         0       0       0       0       0       0       0
  2915 ;;      Temps:          0       0       0       0       0       0       0
  2916 ;;      Totals:         0       0       0       0       0       0       0
  2917 ;;Total ram usage:        0 bytes
  2918 ;; Hardware stack levels used:    1
  2919 ;; Hardware stack levels required when called:    7
  2920 ;; This function calls:
  2921 ;;		_scheduler
  2922 ;; This function is called by:
  2923 ;;		_task_1
  2924 ;;		_task_3
  2925 ;; This function uses a reentrant model
  2926 ;;
  2927                           
  2928                           	psect	text9
  2929  000FD8                     __ptext9:
  2930                           	callstack 0
  2931  000FD8                     _delay_task:
  2932                           	callstack 0
  2933                           
  2934                           ; autosize = 8, savesize = 0, parsavesize = 0, tempsize = 0 parsize = 2, argsize = 2 var
      +                          gsize = 0, retsize = 0 argfudge = 0
  2935  000FD8  0E08               	movlw	8
  2936  000FDA  26E1               	addwf	fsr1l,f,c
  2937  000FDC  0E00               	movlw	0
  2938  000FDE  22E2               	addwfc	fsr1h,f,c
  2939                           
  2940                           ;incstack = 0
  2941  000FE0                     
  2942                           ;kernel.c: 140: void delay_task(u_int time);kernel.c: 141: {;kernel.c: 142:    INTCONbit
      +                          s.GIE = 0;
  2943  000FE0  9EF2               	bcf	242,7,c	;volatile
  2944  000FE2                     __ccov83_end_blk0:
  2945                           	callstack 19
  2946  000FE2                     __ccov84_start_blk1:
  2947                           	callstack 19
  2948  000FE2                     
  2949                           ;kernel.c: 143:    ready_queue.tasks_list[ready_queue.task_running].delay_waiting = time
      +                          ;
  2950                           ;stkvar	_time @ sp[(-8)+-2]
  2951  000FE2  50E1               	movf	fsr1l,w,c
  2952  000FE4  0FF6               	addlw	-10
  2953  000FE6  6ED9               	movwf	fsr2l,c
  2954  000FE8  50E2               	movf	fsr1h,w,c
  2955  000FEA  6EDA               	movwf	fsr2h,c
  2956  000FEC  0EFF               	movlw	255
  2957  000FEE  22DA               	addwfc	fsr2h,f,c
  2958  000FF0  EE03  F0FE         	lfsr	0,_ready_queue+582
  2959  000FF4  CFEE F012          	movff	postinc0,btemp+10
  2960  000FF8  CFED F013          	movff	postdec0,btemp+11
  2961  000FFC  0E74               	movlw	116
  2962  000FFE  0212               	mulwf	(btemp+10)^0,c
  2963  001000  CFF3 F010          	movff	prodl,btemp+8
  2964  001004  CFF4 F011          	movff	prodh,btemp+9
  2965  001008  0213               	mulwf	(btemp+11)^0,c
  2966  00100A  50F3               	movf	prodl,w,c
  2967  00100C  2611               	addwf	(btemp+9)^0,f,c
  2968  00100E  0E2A               	movlw	low (_ready_queue+114)
  2969  001010  2410               	addwf	(btemp+8)^0,w,c
  2970  001012  6EE9               	movwf	fsr0l,c
  2971  001014  0E02               	movlw	high (_ready_queue+114)
  2972  001016  2011               	addwfc	(btemp+9)^0,w,c
  2973  001018  6EEA               	movwf	fsr0h,c
  2974  00101A  CFDE FFEE          	movff	postinc2,postinc0
  2975  00101E  CFDD FFED          	movff	postdec2,postdec0
  2976  001022                     __ccov84_end_blk1:
  2977                           	callstack 19
  2978  001022                     __ccov85_start_blk2:
  2979                           	callstack 19
  2980  001022                     
  2981                           ;kernel.c: 144:    { u_int p_context = 0, task_pos = ready_queue.task_running;do { INTCO
      +                          Nbits.GIE = 0; if (ready_queue.tasks_list[task_pos].task_STATE == RUNNING) { ready_queue
      +                          .tasks_list[task_pos].task_BSR_reg = BSR; ready_queue.tasks_list[task_pos].task_WORK_reg
      +                           = WREG; ready_queue.tasks_list[task_pos].task_STATUS_reg = STATUS; do { ready_queue.tas
      +                          ks_list[task_pos].task_CONTEXT[p_context] = TOS; __asm("POP"); p_context += 1; } while (
      +                          STKPTR); ready_queue.tasks_list[task_pos].task_stack_real_size = p_context; ready_queue.
      +                          tasks_list[task_pos].task_STATE = WAITING; } INTCONbits.GIE = 1; } while(0); };
  2982                           ;stkvar	_p_context @ sp[(-8)+6]
  2983  001022  0EFE               	movlw	-2
  2984  001024  6AE3               	clrf	plusw1,c
  2985  001026  0EFF               	movlw	-1
  2986  001028  6AE3               	clrf	plusw1,c
  2987  00102A                     __ccov85_end_blk2:
  2988                           	callstack 19
  2989  00102A                     __ccov86_start_blk3:
  2990                           	callstack 19
  2991  00102A                     
  2992                           ;stkvar	_task_pos @ sp[(-8)+4]
  2993  00102A  0EFC               	movlw	-4
  2994  00102C  C3FE  FFE3         	movff	_ready_queue+582,plusw1
  2995  001030  0EFD               	movlw	-3
  2996  001032  C3FF  FFE3         	movff	_ready_queue+583,plusw1
  2997  001036                     __ccov86_end_blk3:
  2998                           	callstack 19
  2999  001036                     __ccov87_start_blk5:
  3000                           	callstack 19
  3001  001036  9EF2               	bcf	242,7,c	;volatile
  3002  001038                     __ccov87_end_blk5:
  3003                           	callstack 19
  3004  001038                     __ccov88_start_blk6:
  3005                           	callstack 19
  3006  001038                     
  3007                           ;stkvar	_task_pos @ sp[(-8)+4]
  3008  001038  0EFC               	movlw	-4
  3009  00103A  CFE3 F012          	movff	plusw1,btemp+10
  3010  00103E  0EFD               	movlw	-3
  3011  001040  CFE3 F013          	movff	plusw1,btemp+11
  3012  001044  0E74               	movlw	116
  3013  001046  0212               	mulwf	(btemp+10)^0,c
  3014  001048  CFF3 F010          	movff	prodl,btemp+8
  3015  00104C  CFF4 F011          	movff	prodh,btemp+9
  3016  001050  0213               	mulwf	(btemp+11)^0,c
  3017  001052  50F3               	movf	prodl,w,c
  3018  001054  2611               	addwf	(btemp+9)^0,f,c
  3019  001056  0E29               	movlw	low (_ready_queue+113)
  3020  001058  2410               	addwf	(btemp+8)^0,w,c
  3021  00105A  6ED9               	movwf	fsr2l,c
  3022  00105C  0E02               	movlw	high (_ready_queue+113)
  3023  00105E  2011               	addwfc	(btemp+9)^0,w,c
  3024  001060  6EDA               	movwf	fsr2h,c
  3025  001062  04DE               	decf	postinc2,w,c
  3026  001064  A4D8               	btfss	status,2,c
  3027  001066  EF37  F008         	goto	u14_21
  3028  00106A  EF39  F008         	goto	u14_20
  3029  00106E                     u14_21:
  3030  00106E  EF1C  F009         	goto	l1164
  3031  001072                     u14_20:
  3032  001072                     __ccov88_end_blk6:
  3033                           	callstack 19
  3034  001072                     __ccov89_start_blk7:
  3035                           	callstack 19
  3036  001072  50E0               	movf	224,w,c	;volatile
  3037  001074  6E11               	movwf	(btemp+9)^0,c
  3038  001076  6A12               	clrf	(btemp+10)^0,c
  3039  001078  6A13               	clrf	(btemp+11)^0,c
  3040                           
  3041                           ;stkvar	_task_pos @ sp[(-8)+4]
  3042  00107A  0EFC               	movlw	-4
  3043  00107C  CFE3 F00E          	movff	plusw1,btemp+6
  3044  001080  0EFD               	movlw	-3
  3045  001082  CFE3 F00F          	movff	plusw1,btemp+7
  3046  001086  0E74               	movlw	116
  3047  001088  020E               	mulwf	(btemp+6)^0,c
  3048  00108A  CFF3 F00C          	movff	prodl,btemp+4
  3049  00108E  CFF4 F00D          	movff	prodh,btemp+5
  3050  001092  020F               	mulwf	(btemp+7)^0,c
  3051  001094  50F3               	movf	prodl,w,c
  3052  001096  260D               	addwf	(btemp+5)^0,f,c
  3053  001098  0E1E               	movlw	low (_ready_queue+102)
  3054  00109A  240C               	addwf	(btemp+4)^0,w,c
  3055  00109C  6ED9               	movwf	fsr2l,c
  3056  00109E  0E02               	movlw	high (_ready_queue+102)
  3057  0010A0  200D               	addwfc	(btemp+5)^0,w,c
  3058  0010A2  6EDA               	movwf	fsr2h,c
  3059  0010A4  C011  FFDE         	movff	btemp+9,postinc2
  3060  0010A8  C012  FFDE         	movff	btemp+10,postinc2
  3061  0010AC  C013  FFDE         	movff	btemp+11,postinc2
  3062  0010B0  6E11               	movwf	(btemp+9)^0,c
  3063  0010B2  6A12               	clrf	(btemp+10)^0,c
  3064  0010B4  6A13               	clrf	(btemp+11)^0,c
  3065                           
  3066                           ;stkvar	_task_pos @ sp[(-8)+4]
  3067  0010B6  0EFC               	movlw	-4
  3068  0010B8  CFE3 F00E          	movff	plusw1,btemp+6
  3069  0010BC  0EFD               	movlw	-3
  3070  0010BE  CFE3 F00F          	movff	plusw1,btemp+7
  3071  0010C2  0E74               	movlw	116
  3072  0010C4  020E               	mulwf	(btemp+6)^0,c
  3073  0010C6  CFF3 F00C          	movff	prodl,btemp+4
  3074  0010CA  CFF4 F00D          	movff	prodh,btemp+5
  3075  0010CE  020F               	mulwf	(btemp+7)^0,c
  3076  0010D0  50F3               	movf	prodl,w,c
  3077  0010D2  260D               	addwf	(btemp+5)^0,f,c
  3078  0010D4  0E21               	movlw	low (_ready_queue+105)
  3079  0010D6  240C               	addwf	(btemp+4)^0,w,c
  3080  0010D8  6ED9               	movwf	fsr2l,c
  3081  0010DA  0E02               	movlw	high (_ready_queue+105)
  3082  0010DC  200D               	addwfc	(btemp+5)^0,w,c
  3083  0010DE  6EDA               	movwf	fsr2h,c
  3084  0010E0  C011  FFDE         	movff	btemp+9,postinc2
  3085  0010E4  C012  FFDE         	movff	btemp+10,postinc2
  3086  0010E8  C013  FFDE         	movff	btemp+11,postinc2
  3087  0010EC  50D8               	movf	216,w,c	;volatile
  3088  0010EE  6E11               	movwf	(btemp+9)^0,c
  3089  0010F0  6A12               	clrf	(btemp+10)^0,c
  3090  0010F2  6A13               	clrf	(btemp+11)^0,c
  3091                           
  3092                           ;stkvar	_task_pos @ sp[(-8)+4]
  3093  0010F4  0EFC               	movlw	-4
  3094  0010F6  CFE3 F00E          	movff	plusw1,btemp+6
  3095  0010FA  0EFD               	movlw	-3
  3096  0010FC  CFE3 F00F          	movff	plusw1,btemp+7
  3097  001100  0E74               	movlw	116
  3098  001102  020E               	mulwf	(btemp+6)^0,c
  3099  001104  CFF3 F00C          	movff	prodl,btemp+4
  3100  001108  CFF4 F00D          	movff	prodh,btemp+5
  3101  00110C  020F               	mulwf	(btemp+7)^0,c
  3102  00110E  50F3               	movf	prodl,w,c
  3103  001110  260D               	addwf	(btemp+5)^0,f,c
  3104  001112  0E24               	movlw	low (_ready_queue+108)
  3105  001114  240C               	addwf	(btemp+4)^0,w,c
  3106  001116  6ED9               	movwf	fsr2l,c
  3107  001118  0E02               	movlw	high (_ready_queue+108)
  3108  00111A  200D               	addwfc	(btemp+5)^0,w,c
  3109  00111C  6EDA               	movwf	fsr2h,c
  3110  00111E  C011  FFDE         	movff	btemp+9,postinc2
  3111  001122  C012  FFDE         	movff	btemp+10,postinc2
  3112  001126  C013  FFDE         	movff	btemp+11,postinc2
  3113  00112A                     __ccov89_end_blk7:
  3114                           	callstack 19
  3115  00112A                     __ccov90_start_blk9:
  3116                           	callstack 19
  3117  00112A                     l1154:
  3118                           
  3119                           ;stkvar	_p_context @ sp[(-8)+6]
  3120  00112A  0EFE               	movlw	-2
  3121  00112C  CFE3 F012          	movff	plusw1,btemp+10
  3122  001130  0EFF               	movlw	-1
  3123  001132  CFE3 F013          	movff	plusw1,btemp+11
  3124  001136  0E03               	movlw	3
  3125  001138  0212               	mulwf	(btemp+10)^0,c
  3126  00113A  CFF3 F010          	movff	prodl,btemp+8
  3127  00113E  CFF4 F011          	movff	prodh,btemp+9
  3128  001142  0213               	mulwf	(btemp+11)^0,c
  3129  001144  50F3               	movf	prodl,w,c
  3130  001146  2611               	addwf	(btemp+9)^0,f,c
  3131                           
  3132                           ;stkvar	_task_pos @ sp[(-8)+4]
  3133  001148  0EFC               	movlw	-4
  3134  00114A  CFE3 F012          	movff	plusw1,btemp+10
  3135  00114E  0EFD               	movlw	-3
  3136  001150  CFE3 F013          	movff	plusw1,btemp+11
  3137  001154  0E74               	movlw	116
  3138  001156  0212               	mulwf	(btemp+10)^0,c
  3139  001158  CFF3 F00E          	movff	prodl,btemp+6
  3140  00115C  CFF4 F00F          	movff	prodh,btemp+7
  3141  001160  0213               	mulwf	(btemp+11)^0,c
  3142  001162  50F3               	movf	prodl,w,c
  3143  001164  260F               	addwf	(btemp+7)^0,f,c
  3144  001166  0EB8               	movlw	low _ready_queue
  3145  001168  6E12               	movwf	(btemp+10)^0,c
  3146  00116A  0E01               	movlw	high _ready_queue
  3147  00116C  6E13               	movwf	(btemp+11)^0,c
  3148  00116E  0E06               	movlw	6
  3149  001170  2612               	addwf	(btemp+10)^0,f,c
  3150  001172  0E00               	movlw	0
  3151  001174  2213               	addwfc	(btemp+11)^0,f,c
  3152  001176  500E               	movf	(btemp+6)^0,w,c
  3153  001178  2612               	addwf	(btemp+10)^0,f,c
  3154  00117A  500F               	movf	(btemp+7)^0,w,c
  3155  00117C  2213               	addwfc	(btemp+11)^0,f,c
  3156  00117E  5010               	movf	(btemp+8)^0,w,c
  3157  001180  2412               	addwf	(btemp+10)^0,w,c
  3158  001182  6ED9               	movwf	fsr2l,c
  3159  001184  5011               	movf	(btemp+9)^0,w,c
  3160  001186  2013               	addwfc	(btemp+11)^0,w,c
  3161  001188  6EDA               	movwf	fsr2h,c
  3162  00118A  CFFD FFDE          	movff	tosl,postinc2	;volatile
  3163  00118E  CFFE FFDE          	movff	tosh,postinc2	;volatile
  3164  001192  CFFF FFDE          	movff	tosu,postinc2	;volatile
  3165  001196  0006               	pop		;# 
  3166  001198                     __ccov90_end_blk9:
  3167                           	callstack 19
  3168  001198                     __ccov91_start_blk10:
  3169                           	callstack 19
  3170  001198                     
  3171                           ;stkvar	_p_context @ sp[(-8)+6]
  3172  001198  0EFE               	movlw	-2
  3173  00119A  50E3               	movf	plusw1,w,c
  3174  00119C  0F01               	addlw	1
  3175  00119E  6E08               	movwf	btemp^0,c
  3176  0011A0  0EFE               	movlw	-2
  3177  0011A2  C008  FFE3         	movff	btemp,plusw1
  3178  0011A6  6A08               	clrf	btemp^0,c
  3179  0011A8  0EFF               	movlw	-1
  3180  0011AA  50E3               	movf	plusw1,w,c
  3181  0011AC  2008               	addwfc	btemp^0,w,c
  3182  0011AE  6E08               	movwf	btemp^0,c
  3183  0011B0  0EFF               	movlw	-1
  3184  0011B2  C008  FFE3         	movff	btemp,plusw1
  3185  0011B6                     __ccov91_end_blk10:
  3186                           	callstack 19
  3187  0011B6                     __ccov92_start_blk11:
  3188                           	callstack 19
  3189  0011B6  8804               	bsf	(__ccovbit11_21/(0+8))^0,__ccovbit11_21& (0+7),c	;volatile
  3190  0011B8  50FC               	movf	252,w,c	;volatile
  3191  0011BA  A4D8               	btfss	status,2,c
  3192  0011BC  EFE2  F008         	goto	u15_21
  3193  0011C0  EFE4  F008         	goto	u15_20
  3194  0011C4                     u15_21:
  3195  0011C4  EF95  F008         	goto	l1154
  3196  0011C8                     u15_20:
  3197  0011C8                     __ccov92_end_blk11:
  3198                           	callstack 19
  3199  0011C8                     __ccov93_start_blk13:
  3200                           	callstack 19
  3201  0011C8                     
  3202                           ;stkvar	_p_context @ sp[(-8)+6]
  3203  0011C8  50E1               	movf	fsr1l,w,c
  3204  0011CA  0FFE               	addlw	-2
  3205  0011CC  6ED9               	movwf	fsr2l,c
  3206  0011CE  50E2               	movf	fsr1h,w,c
  3207  0011D0  6EDA               	movwf	fsr2h,c
  3208  0011D2  0EFF               	movlw	255
  3209  0011D4  22DA               	addwfc	fsr2h,f,c
  3210                           
  3211                           ;stkvar	_task_pos @ sp[(-8)+4]
  3212  0011D6  0EFC               	movlw	-4
  3213  0011D8  CFE3 F012          	movff	plusw1,btemp+10
  3214  0011DC  0EFD               	movlw	-3
  3215  0011DE  CFE3 F013          	movff	plusw1,btemp+11
  3216  0011E2  0E74               	movlw	116
  3217  0011E4  0212               	mulwf	(btemp+10)^0,c
  3218  0011E6  CFF3 F010          	movff	prodl,btemp+8
  3219  0011EA  CFF4 F011          	movff	prodh,btemp+9
  3220  0011EE  0213               	mulwf	(btemp+11)^0,c
  3221  0011F0  50F3               	movf	prodl,w,c
  3222  0011F2  2611               	addwf	(btemp+9)^0,f,c
  3223  0011F4  0E27               	movlw	low (_ready_queue+111)
  3224  0011F6  2410               	addwf	(btemp+8)^0,w,c
  3225  0011F8  6EE9               	movwf	fsr0l,c
  3226  0011FA  0E02               	movlw	high (_ready_queue+111)
  3227  0011FC  2011               	addwfc	(btemp+9)^0,w,c
  3228  0011FE  6EEA               	movwf	fsr0h,c
  3229  001200  CFDE FFEE          	movff	postinc2,postinc0
  3230  001204  CFDD FFED          	movff	postdec2,postdec0
  3231  001208                     __ccov93_end_blk13:
  3232                           	callstack 19
  3233  001208                     __ccov94_start_blk14:
  3234                           	callstack 19
  3235  001208  8604               	bsf	(__ccovbit14_22/(0+8))^0,__ccovbit14_22& (0+7),c	;volatile
  3236                           
  3237                           ;stkvar	_task_pos @ sp[(-8)+4]
  3238  00120A  0EFC               	movlw	-4
  3239  00120C  CFE3 F012          	movff	plusw1,btemp+10
  3240  001210  0EFD               	movlw	-3
  3241  001212  CFE3 F013          	movff	plusw1,btemp+11
  3242  001216  0E74               	movlw	116
  3243  001218  0212               	mulwf	(btemp+10)^0,c
  3244  00121A  CFF3 F010          	movff	prodl,btemp+8
  3245  00121E  CFF4 F011          	movff	prodh,btemp+9
  3246  001222  0213               	mulwf	(btemp+11)^0,c
  3247  001224  50F3               	movf	prodl,w,c
  3248  001226  2611               	addwf	(btemp+9)^0,f,c
  3249  001228  0E29               	movlw	low (_ready_queue+113)
  3250  00122A  2410               	addwf	(btemp+8)^0,w,c
  3251  00122C  6ED9               	movwf	fsr2l,c
  3252  00122E  0E02               	movlw	high (_ready_queue+113)
  3253  001230  2011               	addwfc	(btemp+9)^0,w,c
  3254  001232  6EDA               	movwf	fsr2h,c
  3255  001234  0E02               	movlw	2
  3256  001236  6EDF               	movwf	indf2,c
  3257  001238                     __ccov94_end_blk14:
  3258                           	callstack 19
  3259  001238                     __ccov95_start_blk16:
  3260                           	callstack 19
  3261  001238                     l1164:
  3262  001238  8EF2               	bsf	242,7,c	;volatile
  3263  00123A                     __ccov95_end_blk16:
  3264                           	callstack 19
  3265  00123A                     __ccov96_start_blk18:
  3266                           	callstack 19
  3267  00123A                     
  3268                           ;kernel.c: 145:    scheduler();
  3269  00123A  EC5E  F00D         	call	_scheduler	;wreg free
  3270  00123E                     __ccov96_end_blk18:
  3271                           	callstack 19
  3272  00123E                     __ccov97_start_blk19:
  3273                           	callstack 19
  3274  00123E                     
  3275                           ;kernel.c: 146:    { u_int task_pos = ready_queue.task_running;u_int p_context = ready_q
      +                          ueue.tasks_list[task_pos].task_stack_real_size;do { INTCONbits.GIE = 0; STKPTR = 0; if (
      +                          ready_queue.tasks_list[task_pos].task_stack_real_size > 0) { BSR = ready_queue.tasks_lis
      +                          t[task_pos].task_BSR_reg; WREG = ready_queue.tasks_list[task_pos].task_WORK_reg; STATUS 
      +                          = ready_queue.tasks_list[task_pos].task_STATUS_reg; while (p_context) { p_context -= 1; 
      +                          __asm("PUSH"); TOS = ready_queue.tasks_list[task_pos].task_CONTEXT[p_context]; } } else 
      +                          { __asm("PUSH"); TOS = ready_queue.tasks_list[task_pos].task_PTR; } ready_queue.tasks_li
      +                          st[task_pos].task_STATE = RUNNING; INTCONbits.GIE = 1; } while(0); };
  3276                           ;stkvar	_task_pos @ sp[(-8)+0]
  3277  00123E  0EF8               	movlw	-8
  3278  001240  C3FE  FFE3         	movff	_ready_queue+582,plusw1
  3279  001244  0EF9               	movlw	-7
  3280  001246  C3FF  FFE3         	movff	_ready_queue+583,plusw1
  3281  00124A                     __ccov97_end_blk19:
  3282                           	callstack 19
  3283  00124A                     __ccov98_start_blk20:
  3284                           	callstack 19
  3285  00124A                     
  3286                           ;stkvar	_task_pos @ sp[(-8)+0]
  3287  00124A  0EF8               	movlw	-8
  3288  00124C  CFE3 F012          	movff	plusw1,btemp+10
  3289  001250  0EF9               	movlw	-7
  3290  001252  CFE3 F013          	movff	plusw1,btemp+11
  3291  001256  0E74               	movlw	116
  3292  001258  0212               	mulwf	(btemp+10)^0,c
  3293  00125A  CFF3 F010          	movff	prodl,btemp+8
  3294  00125E  CFF4 F011          	movff	prodh,btemp+9
  3295  001262  0213               	mulwf	(btemp+11)^0,c
  3296  001264  50F3               	movf	prodl,w,c
  3297  001266  2611               	addwf	(btemp+9)^0,f,c
  3298  001268  0E27               	movlw	low (_ready_queue+111)
  3299  00126A  2410               	addwf	(btemp+8)^0,w,c
  3300  00126C  6ED9               	movwf	fsr2l,c
  3301  00126E  0E02               	movlw	high (_ready_queue+111)
  3302  001270  2011               	addwfc	(btemp+9)^0,w,c
  3303  001272  6EDA               	movwf	fsr2h,c
  3304  001274  CFDE F012          	movff	postinc2,btemp+10
  3305  001278  CFDD F013          	movff	postdec2,btemp+11
  3306                           
  3307                           ;stkvar	_p_context @ sp[(-8)+2]
  3308  00127C  0EFA               	movlw	-6
  3309  00127E  C012  FFE3         	movff	btemp+10,plusw1
  3310  001282  0EFB               	movlw	-5
  3311  001284  C013  FFE3         	movff	btemp+11,plusw1
  3312  001288                     __ccov98_end_blk20:
  3313                           	callstack 19
  3314  001288                     __ccov99_start_blk22:
  3315                           	callstack 19
  3316  001288  9EF2               	bcf	242,7,c	;volatile
  3317  00128A                     __ccov99_end_blk22:
  3318                           	callstack 19
  3319  00128A                     __ccov100_start_blk23:
  3320                           	callstack 19
  3321  00128A  6AFC               	clrf	252,c	;volatile
  3322  00128C                     __ccov100_end_blk23:
  3323                           	callstack 19
  3324  00128C                     __ccov101_start_blk24:
  3325                           	callstack 19
  3326  00128C                     
  3327                           ;stkvar	_task_pos @ sp[(-8)+0]
  3328  00128C  0EF8               	movlw	-8
  3329  00128E  CFE3 F012          	movff	plusw1,btemp+10
  3330  001292  0EF9               	movlw	-7
  3331  001294  CFE3 F013          	movff	plusw1,btemp+11
  3332  001298  0E74               	movlw	116
  3333  00129A  0212               	mulwf	(btemp+10)^0,c
  3334  00129C  CFF3 F010          	movff	prodl,btemp+8
  3335  0012A0  CFF4 F011          	movff	prodh,btemp+9
  3336  0012A4  0213               	mulwf	(btemp+11)^0,c
  3337  0012A6  50F3               	movf	prodl,w,c
  3338  0012A8  2611               	addwf	(btemp+9)^0,f,c
  3339  0012AA  0E27               	movlw	low (_ready_queue+111)
  3340  0012AC  2410               	addwf	(btemp+8)^0,w,c
  3341  0012AE  6ED9               	movwf	fsr2l,c
  3342  0012B0  0E02               	movlw	high (_ready_queue+111)
  3343  0012B2  2011               	addwfc	(btemp+9)^0,w,c
  3344  0012B4  6EDA               	movwf	fsr2h,c
  3345  0012B6  50DE               	movf	postinc2,w,c
  3346  0012B8  10DE               	iorwf	postinc2,w,c
  3347  0012BA  B4D8               	btfsc	status,2,c
  3348  0012BC  EF62  F009         	goto	u16_21
  3349  0012C0  EF64  F009         	goto	u16_20
  3350  0012C4                     u16_21:
  3351  0012C4  EF04  F00A         	goto	l158
  3352  0012C8                     u16_20:
  3353  0012C8                     __ccov101_end_blk24:
  3354                           	callstack 19
  3355  0012C8                     __ccov102_start_blk25:
  3356                           	callstack 19
  3357  0012C8                     
  3358                           ;stkvar	_task_pos @ sp[(-8)+0]
  3359  0012C8  0EF8               	movlw	-8
  3360  0012CA  CFE3 F012          	movff	plusw1,btemp+10
  3361  0012CE  0EF9               	movlw	-7
  3362  0012D0  CFE3 F013          	movff	plusw1,btemp+11
  3363  0012D4  0E74               	movlw	116
  3364  0012D6  0212               	mulwf	(btemp+10)^0,c
  3365  0012D8  CFF3 F010          	movff	prodl,btemp+8
  3366  0012DC  CFF4 F011          	movff	prodh,btemp+9
  3367  0012E0  0213               	mulwf	(btemp+11)^0,c
  3368  0012E2  50F3               	movf	prodl,w,c
  3369  0012E4  2611               	addwf	(btemp+9)^0,f,c
  3370  0012E6  0E1E               	movlw	low (_ready_queue+102)
  3371  0012E8  2410               	addwf	(btemp+8)^0,w,c
  3372  0012EA  6ED9               	movwf	fsr2l,c
  3373  0012EC  0E02               	movlw	high (_ready_queue+102)
  3374  0012EE  2011               	addwfc	(btemp+9)^0,w,c
  3375  0012F0  6EDA               	movwf	fsr2h,c
  3376  0012F2  50DF               	movf	indf2,w,c
  3377  0012F4  6EE0               	movwf	224,c	;volatile
  3378                           
  3379                           ;stkvar	_task_pos @ sp[(-8)+0]
  3380  0012F6  0EF8               	movlw	-8
  3381  0012F8  CFE3 F012          	movff	plusw1,btemp+10
  3382  0012FC  0EF9               	movlw	-7
  3383  0012FE  CFE3 F013          	movff	plusw1,btemp+11
  3384  001302  0E74               	movlw	116
  3385  001304  0212               	mulwf	(btemp+10)^0,c
  3386  001306  CFF3 F010          	movff	prodl,btemp+8
  3387  00130A  CFF4 F011          	movff	prodh,btemp+9
  3388  00130E  0213               	mulwf	(btemp+11)^0,c
  3389  001310  50F3               	movf	prodl,w,c
  3390  001312  2611               	addwf	(btemp+9)^0,f,c
  3391  001314  0E21               	movlw	low (_ready_queue+105)
  3392  001316  2410               	addwf	(btemp+8)^0,w,c
  3393  001318  6ED9               	movwf	fsr2l,c
  3394  00131A  0E02               	movlw	high (_ready_queue+105)
  3395  00131C  2011               	addwfc	(btemp+9)^0,w,c
  3396  00131E  6EDA               	movwf	fsr2h,c
  3397  001320  50DF               	movf	indf2,w,c
  3398  001322  6E13               	movwf	(btemp+11)^0,c
  3399  001324  5013               	movf	(btemp+11)^0,w,c
  3400                           
  3401                           ;stkvar	_task_pos @ sp[(-8)+0]
  3402  001326  0EF8               	movlw	-8
  3403  001328  CFE3 F012          	movff	plusw1,btemp+10
  3404  00132C  0EF9               	movlw	-7
  3405  00132E  CFE3 F013          	movff	plusw1,btemp+11
  3406  001332  0E74               	movlw	116
  3407  001334  0212               	mulwf	(btemp+10)^0,c
  3408  001336  CFF3 F010          	movff	prodl,btemp+8
  3409  00133A  CFF4 F011          	movff	prodh,btemp+9
  3410  00133E  0213               	mulwf	(btemp+11)^0,c
  3411  001340  50F3               	movf	prodl,w,c
  3412  001342  2611               	addwf	(btemp+9)^0,f,c
  3413  001344  0E24               	movlw	low (_ready_queue+108)
  3414  001346  2410               	addwf	(btemp+8)^0,w,c
  3415  001348  6ED9               	movwf	fsr2l,c
  3416  00134A  0E02               	movlw	high (_ready_queue+108)
  3417  00134C  2011               	addwfc	(btemp+9)^0,w,c
  3418  00134E  6EDA               	movwf	fsr2h,c
  3419  001350  50DF               	movf	indf2,w,c
  3420  001352  6ED8               	movwf	216,c	;volatile
  3421  001354  EFF4  F009         	goto	l1184
  3422  001358                     __ccov102_end_blk25:
  3423                           	callstack 19
  3424  001358                     __ccov103_start_blk27:
  3425                           	callstack 19
  3426  001358                     l1180:
  3427                           
  3428                           ;stkvar	_p_context @ sp[(-8)+2]
  3429  001358  0EFA               	movlw	-6
  3430  00135A  CFE3 F008          	movff	plusw1,btemp
  3431  00135E  0E01               	movlw	1
  3432  001360  5E08               	subwf	btemp^0,f,c
  3433  001362  0EFA               	movlw	-6
  3434  001364  C008  FFE3         	movff	btemp,plusw1
  3435  001368  0EFB               	movlw	-5
  3436  00136A  CFE3 F008          	movff	plusw1,btemp
  3437  00136E  0E00               	movlw	0
  3438  001370  5A08               	subwfb	btemp^0,f,c
  3439  001372  0EFB               	movlw	-5
  3440  001374  C008  FFE3         	movff	btemp,plusw1
  3441  001378  0005               	push		;# 
  3442  00137A                     __ccov103_end_blk27:
  3443                           	callstack 19
  3444  00137A                     __ccov104_start_blk28:
  3445                           	callstack 19
  3446  00137A  8404               	bsf	(__ccovbit28_23/(0+8))^0,__ccovbit28_23& (0+7),c	;volatile
  3447                           
  3448                           ;stkvar	_p_context @ sp[(-8)+2]
  3449  00137C  0EFA               	movlw	-6
  3450  00137E  CFE3 F012          	movff	plusw1,btemp+10
  3451  001382  0EFB               	movlw	-5
  3452  001384  CFE3 F013          	movff	plusw1,btemp+11
  3453  001388  0E03               	movlw	3
  3454  00138A  0212               	mulwf	(btemp+10)^0,c
  3455  00138C  CFF3 F010          	movff	prodl,btemp+8
  3456  001390  CFF4 F011          	movff	prodh,btemp+9
  3457  001394  0213               	mulwf	(btemp+11)^0,c
  3458  001396  50F3               	movf	prodl,w,c
  3459  001398  2611               	addwf	(btemp+9)^0,f,c
  3460                           
  3461                           ;stkvar	_task_pos @ sp[(-8)+0]
  3462  00139A  0EF8               	movlw	-8
  3463  00139C  CFE3 F012          	movff	plusw1,btemp+10
  3464  0013A0  0EF9               	movlw	-7
  3465  0013A2  CFE3 F013          	movff	plusw1,btemp+11
  3466  0013A6  0E74               	movlw	116
  3467  0013A8  0212               	mulwf	(btemp+10)^0,c
  3468  0013AA  CFF3 F00E          	movff	prodl,btemp+6
  3469  0013AE  CFF4 F00F          	movff	prodh,btemp+7
  3470  0013B2  0213               	mulwf	(btemp+11)^0,c
  3471  0013B4  50F3               	movf	prodl,w,c
  3472  0013B6  260F               	addwf	(btemp+7)^0,f,c
  3473  0013B8  0EB8               	movlw	low _ready_queue
  3474  0013BA  6E12               	movwf	(btemp+10)^0,c
  3475  0013BC  0E01               	movlw	high _ready_queue
  3476  0013BE  6E13               	movwf	(btemp+11)^0,c
  3477  0013C0  0E06               	movlw	6
  3478  0013C2  2612               	addwf	(btemp+10)^0,f,c
  3479  0013C4  0E00               	movlw	0
  3480  0013C6  2213               	addwfc	(btemp+11)^0,f,c
  3481  0013C8  500E               	movf	(btemp+6)^0,w,c
  3482  0013CA  2612               	addwf	(btemp+10)^0,f,c
  3483  0013CC  500F               	movf	(btemp+7)^0,w,c
  3484  0013CE  2213               	addwfc	(btemp+11)^0,f,c
  3485  0013D0  5010               	movf	(btemp+8)^0,w,c
  3486  0013D2  2412               	addwf	(btemp+10)^0,w,c
  3487  0013D4  6ED9               	movwf	fsr2l,c
  3488  0013D6  5011               	movf	(btemp+9)^0,w,c
  3489  0013D8  2013               	addwfc	(btemp+11)^0,w,c
  3490  0013DA  6EDA               	movwf	fsr2h,c
  3491  0013DC  CFDE FFFD          	movff	postinc2,tosl	;volatile
  3492  0013E0  CFDE FFFE          	movff	postinc2,tosh	;volatile
  3493  0013E4  CFDD FFFF          	movff	postdec2,tosu	;volatile
  3494  0013E8                     __ccov104_end_blk28:
  3495                           	callstack 19
  3496  0013E8                     __ccov105_start_blk30:
  3497                           	callstack 19
  3498  0013E8                     l1184:
  3499  0013E8  8204               	bsf	(__ccovbit30_24/(0+8))^0,__ccovbit30_24& (0+7),c	;volatile
  3500                           
  3501                           ;stkvar	_p_context @ sp[(-8)+2]
  3502  0013EA  0EFA               	movlw	-6
  3503  0013EC  CFE3 F008          	movff	plusw1,btemp
  3504  0013F0  0EFB               	movlw	-5
  3505  0013F2  50E3               	movf	plusw1,w,c
  3506  0013F4  1008               	iorwf	btemp^0,w,c
  3507  0013F6  A4D8               	btfss	status,2,c
  3508  0013F8  EF00  F00A         	goto	u17_21
  3509  0013FC  EF02  F00A         	goto	u17_20
  3510  001400                     u17_21:
  3511  001400  EFAC  F009         	goto	l1180
  3512  001404                     u17_20:
  3513  001404  EF24  F00A         	goto	l162
  3514  001408                     __ccov105_end_blk30:
  3515                           	callstack 19
  3516  001408                     __ccov106_start_blk32:
  3517                           	callstack 19
  3518  001408                     l158:
  3519  001408  0005               	push		;# 
  3520  00140A                     __ccov106_end_blk32:
  3521                           	callstack 19
  3522  00140A                     __ccov107_start_blk33:
  3523                           	callstack 19
  3524  00140A  8004               	bsf	(__ccovbit33_25/(0+8))^0,__ccovbit33_25& (0+7),c	;volatile
  3525                           
  3526                           ;stkvar	_task_pos @ sp[(-8)+0]
  3527  00140C  0EF8               	movlw	-8
  3528  00140E  CFE3 F012          	movff	plusw1,btemp+10
  3529  001412  0EF9               	movlw	-7
  3530  001414  CFE3 F013          	movff	plusw1,btemp+11
  3531  001418  0E74               	movlw	116
  3532  00141A  0212               	mulwf	(btemp+10)^0,c
  3533  00141C  CFF3 F010          	movff	prodl,btemp+8
  3534  001420  CFF4 F011          	movff	prodh,btemp+9
  3535  001424  0213               	mulwf	(btemp+11)^0,c
  3536  001426  50F3               	movf	prodl,w,c
  3537  001428  2611               	addwf	(btemp+9)^0,f,c
  3538  00142A  0EBC               	movlw	low (_ready_queue+4)
  3539  00142C  2410               	addwf	(btemp+8)^0,w,c
  3540  00142E  6ED9               	movwf	fsr2l,c
  3541  001430  0E01               	movlw	high (_ready_queue+4)
  3542  001432  2011               	addwfc	(btemp+9)^0,w,c
  3543  001434  6EDA               	movwf	fsr2h,c
  3544  001436  CFDE F012          	movff	postinc2,btemp+10
  3545  00143A  CFDD F013          	movff	postdec2,btemp+11
  3546  00143E  C012  FFFD         	movff	btemp+10,tosl	;volatile
  3547  001442  C013  FFFE         	movff	btemp+11,tosh	;volatile
  3548  001446  6AFF               	clrf	255,c	;volatile
  3549  001448                     __ccov107_end_blk33:
  3550                           	callstack 19
  3551  001448                     __ccov108_start_blk34:
  3552                           	callstack 19
  3553  001448                     l162:
  3554                           
  3555                           ;stkvar	_task_pos @ sp[(-8)+0]
  3556  001448  0EF8               	movlw	-8
  3557  00144A  CFE3 F012          	movff	plusw1,btemp+10
  3558  00144E  0EF9               	movlw	-7
  3559  001450  CFE3 F013          	movff	plusw1,btemp+11
  3560  001454  0E74               	movlw	116
  3561  001456  0212               	mulwf	(btemp+10)^0,c
  3562  001458  CFF3 F010          	movff	prodl,btemp+8
  3563  00145C  CFF4 F011          	movff	prodh,btemp+9
  3564  001460  0213               	mulwf	(btemp+11)^0,c
  3565  001462  50F3               	movf	prodl,w,c
  3566  001464  2611               	addwf	(btemp+9)^0,f,c
  3567  001466  0E29               	movlw	low (_ready_queue+113)
  3568  001468  2410               	addwf	(btemp+8)^0,w,c
  3569  00146A  6ED9               	movwf	fsr2l,c
  3570  00146C  0E02               	movlw	high (_ready_queue+113)
  3571  00146E  2011               	addwfc	(btemp+9)^0,w,c
  3572  001470  6EDA               	movwf	fsr2h,c
  3573  001472  0E01               	movlw	1
  3574  001474  6EDF               	movwf	indf2,c
  3575  001476                     __ccov108_end_blk34:
  3576                           	callstack 19
  3577  001476                     __ccov109_start_blk35:
  3578                           	callstack 19
  3579  001476  8EF2               	bsf	242,7,c	;volatile
  3580  001478                     __ccov109_end_blk35:
  3581                           	callstack 19
  3582  001478                     __ccov110_start_blk37:
  3583                           	callstack 19
  3584  001478  8E03               	bsf	(__ccovbit37_26/(0+8))^0,__ccovbit37_26& (0+7),c	;volatile
  3585                           
  3586                           ; _delay_task: autosize = 8, savesize = 0, parsavesize = 0, tempsize = 0 parsize = 2, ar
      +                          gsize = 2, vargsize = 0
  3587  00147A  0EF6               	movlw	246
  3588  00147C  26E1               	addwf	fsr1l,f,c
  3589  00147E  0EFF               	movlw	255
  3590  001480  22E2               	addwfc	fsr1h,f,c
  3591  001482  0012               	return		;funcret
  3592  001484                     __end_of_delay_task:
  3593                           	callstack 0
  3594  0000                     
  3595 ;; *************** function _scheduler *****************
  3596 ;; Defined at:
  3597 ;;		line 62 in file "scheduler.c"
  3598 ;; Parameters:    Size  Location     Type
  3599 ;;		None
  3600 ;; Auto vars:     Size  Location     Type
  3601 ;;		None
  3602 ;; Return value:  Size  Location     Type
  3603 ;;                  1  [STACK] void 
  3604 ;; Registers used:
  3605 ;;		wreg, fsr1l, fsr1h, fsr2l, fsr2h, status,2, status,0, btemp, btemp+1, btemp+8, btemp+9, btemp+10, btemp+11, prodl, p
      +rodh
  3606 ;; Tracked objects:
  3607 ;;		On entry : 0/0
  3608 ;;		On exit  : 0/0
  3609 ;;		Unchanged: 0/0
  3610 ;; Data sizes:     COMRAM   BANK0   BANK1   BANK2   BANK3   BANK4   BANK5
  3611 ;;      Params:         0       0       0       0       0       0       0
  3612 ;;      Locals:         0       0       0       0       0       0       0
  3613 ;;      Temps:          0       0       0       0       0       0       0
  3614 ;;      Totals:         0       0       0       0       0       0       0
  3615 ;;Total ram usage:        0 bytes
  3616 ;; Hardware stack levels used:    1
  3617 ;; Hardware stack levels required when called:    6
  3618 ;; This function calls:
  3619 ;;		_RR_scheduler
  3620 ;; This function is called by:
  3621 ;;		_isr_INTERRUPTS
  3622 ;;		_delay_task
  3623 ;;		_lock
  3624 ;;		_unlock
  3625 ;; This function uses a reentrant model
  3626 ;;
  3627                           
  3628                           	psect	text10
  3629  001ABC                     __ptext10:
  3630                           	callstack 0
  3631  001ABC                     _scheduler:
  3632                           	callstack 15
  3633                           
  3634                           ; autosize = 0, savesize = 0, parsavesize = 0, tempsize = 0 parsize = 0, argsize = 0 var
      +                          gsize = 0, retsize = 0 argfudge = 0
  3635                           ;incstack = 0
  3636  001ABC                     
  3637                           ;scheduler.c: 65:    ready_queue.task_running = RR_scheduler();
  3638  001ABC  EC42  F00A         	call	_RR_scheduler	;wreg free
  3639  001AC0  C008  F3FE         	movff	btemp,_ready_queue+582
  3640  001AC4  C009  F3FF         	movff	btemp+1,_ready_queue+583
  3641  001AC8                     __ccov124_end_blk0:
  3642                           	callstack 15
  3643  001AC8                     __ccov125_start_blk1:
  3644                           	callstack 15
  3645  001AC8  8003               	bsf	(__ccovbit1_33/(0+8))^0,__ccovbit1_33& (0+7),c	;volatile
  3646                           
  3647                           ; _scheduler: autosize = 0, savesize = 0, parsavesize = 0, tempsize = 0 parsize = 0, arg
      +                          size = 0, vargsize = 0
  3648  001ACA  0012               	return		;funcret
  3649  001ACC                     __end_of_scheduler:
  3650                           	callstack 0
  3651  0000                     
  3652 ;; *************** function _RR_scheduler *****************
  3653 ;; Defined at:
  3654 ;;		line 8 in file "scheduler.c"
  3655 ;; Parameters:    Size  Location     Type
  3656 ;;		None
  3657 ;; Auto vars:     Size  Location     Type
  3658 ;;  task_to_run     2  [STACK] unsigned int 
  3659 ;;  times           2  [STACK] unsigned int 
  3660 ;; Return value:  Size  Location     Type
  3661 ;;                  2  [STACK] unsigned int 
  3662 ;; Registers used:
  3663 ;;		wreg, fsr1l, fsr1h, fsr2l, fsr2h, status,2, status,0, btemp, btemp+1, btemp+8, btemp+9, btemp+10, btemp+11, prodl, p
      +rodh
  3664 ;; Tracked objects:
  3665 ;;		On entry : 0/0
  3666 ;;		On exit  : 0/0
  3667 ;;		Unchanged: 0/0
  3668 ;; Data sizes:     COMRAM   BANK0   BANK1   BANK2   BANK3   BANK4   BANK5
  3669 ;;      Params:         0       0       0       0       0       0       0
  3670 ;;      Locals:         0       0       0       0       0       0       0
  3671 ;;      Temps:          0       0       0       0       0       0       0
  3672 ;;      Totals:         0       0       0       0       0       0       0
  3673 ;;Total ram usage:        0 bytes
  3674 ;; Hardware stack levels used:    1
  3675 ;; Hardware stack levels required when called:    5
  3676 ;; This function calls:
  3677 ;;		___lwmod
  3678 ;; This function is called by:
  3679 ;;		_scheduler
  3680 ;; This function uses a reentrant model
  3681 ;;
  3682                           
  3683                           	psect	text11
  3684  001484                     __ptext11:
  3685                           	callstack 0
  3686  001484                     _RR_scheduler:
  3687                           	callstack 0
  3688                           
  3689                           ; autosize = 4, savesize = 0, parsavesize = 0, tempsize = 0 parsize = 0, argsize = 0 var
      +                          gsize = 0, retsize = 0 argfudge = 0
  3690  001484  52E6               	movf	postinc1,f,c
  3691  001486  52E6               	movf	postinc1,f,c
  3692  001488  52E6               	movf	postinc1,f,c
  3693  00148A  52E6               	movf	postinc1,f,c
  3694                           
  3695                           ;incstack = 0
  3696  00148C                     
  3697                           ;scheduler.c: 10:    u_int task_to_run, times = 0;
  3698                           ;stkvar	_times @ sp[(-4)+2]
  3699  00148C  0EFE               	movlw	-2
  3700  00148E  6AE3               	clrf	plusw1,c
  3701  001490  0EFF               	movlw	-1
  3702  001492  6AE3               	clrf	plusw1,c
  3703  001494                     __ccov116_end_blk0:
  3704                           	callstack 15
  3705  001494                     __ccov117_start_blk2:
  3706                           	callstack 15
  3707  001494                     l1032:
  3708                           
  3709                           ;scheduler.c: 15:       task_to_run = (ready_queue.task_running + 1) % ready_queue.tasks
      +                          _installed;
  3710  001494  EE23  F0FC         	lfsr	2,_ready_queue+580
  3711  001498  CFDE F012          	movff	postinc2,btemp+10
  3712  00149C  CFDD F013          	movff	postdec2,btemp+11
  3713  0014A0  C012  FFE6         	movff	btemp+10,postinc1
  3714  0014A4  C013  FFE6         	movff	btemp+11,postinc1
  3715  0014A8  EE23  F0FE         	lfsr	2,_ready_queue+582
  3716  0014AC  CFDE F012          	movff	postinc2,btemp+10
  3717  0014B0  CFDD F013          	movff	postdec2,btemp+11
  3718  0014B4  0E01               	movlw	1
  3719  0014B6  2612               	addwf	(btemp+10)^0,f,c
  3720  0014B8  0E00               	movlw	0
  3721  0014BA  2213               	addwfc	(btemp+11)^0,f,c
  3722  0014BC  C012  FFE6         	movff	btemp+10,postinc1
  3723  0014C0  C013  FFE6         	movff	btemp+11,postinc1
  3724  0014C4  EC55  F00B         	call	___lwmod	;wreg free
  3725                           
  3726                           ;stkvar	_task_to_run @ sp[(-4)+0]
  3727  0014C8  0EFC               	movlw	-4
  3728  0014CA  C008  FFE3         	movff	btemp,plusw1
  3729  0014CE  0EFD               	movlw	-3
  3730  0014D0  C009  FFE3         	movff	btemp+1,plusw1
  3731  0014D4                     __ccov117_end_blk2:
  3732                           	callstack 15
  3733  0014D4                     __ccov118_start_blk3:
  3734                           	callstack 15
  3735  0014D4                     
  3736                           ;scheduler.c: 17:       if (++times == ready_queue.tasks_installed) return 0;
  3737  0014D4  EE23  F0FC         	lfsr	2,_ready_queue+580
  3738                           
  3739                           ;stkvar	_times @ sp[(-4)+2]
  3740  0014D8  0EFE               	movlw	-2
  3741  0014DA  50E3               	movf	plusw1,w,c
  3742  0014DC  0F01               	addlw	1
  3743  0014DE  6E08               	movwf	btemp^0,c
  3744  0014E0  0EFE               	movlw	-2
  3745  0014E2  C008  FFE3         	movff	btemp,plusw1
  3746  0014E6  6A08               	clrf	btemp^0,c
  3747  0014E8  0EFF               	movlw	-1
  3748  0014EA  50E3               	movf	plusw1,w,c
  3749  0014EC  2008               	addwfc	btemp^0,w,c
  3750  0014EE  6E08               	movwf	btemp^0,c
  3751  0014F0  0EFF               	movlw	-1
  3752  0014F2  C008  FFE3         	movff	btemp,plusw1
  3753  0014F6  0EFE               	movlw	-2
  3754  0014F8  50E3               	movf	plusw1,w,c
  3755  0014FA  18DE               	xorwf	postinc2,w,c
  3756  0014FC  E108               	bnz	u6_21
  3757  0014FE  0EFF               	movlw	-1
  3758  001500  50E3               	movf	plusw1,w,c
  3759  001502  18DE               	xorwf	postinc2,w,c
  3760  001504  A4D8               	btfss	status,2,c
  3761  001506  EF87  F00A         	goto	u6_21
  3762  00150A  EF89  F00A         	goto	u6_20
  3763  00150E                     u6_21:
  3764  00150E  EF90  F00A         	goto	l1040
  3765  001512                     u6_20:
  3766  001512                     __ccov118_end_blk3:
  3767                           	callstack 15
  3768  001512                     __ccov119_start_blk4:
  3769                           	callstack 15
  3770  001512  8803               	bsf	(__ccovbit4_29/(0+8))^0,__ccovbit4_29& (0+7),c	;volatile
  3771  001514  0E00               	movlw	0
  3772  001516  6E08               	movwf	btemp^0,c
  3773  001518  0E00               	movlw	0
  3774  00151A  6E09               	movwf	(btemp+1)^0,c
  3775  00151C  EFD6  F00A         	goto	l182
  3776  001520                     __ccov119_end_blk4:
  3777                           	callstack 15
  3778  001520                     __ccov120_start_blk7:
  3779                           	callstack 15
  3780  001520                     l1040:
  3781                           
  3782                           ;scheduler.c: 19:    } while (ready_queue.tasks_list[task_to_run].task_STATE != READY &&
  3783                           ;stkvar	_task_to_run @ sp[(-4)+0]
  3784  001520  0EFC               	movlw	-4
  3785  001522  CFE3 F012          	movff	plusw1,btemp+10
  3786  001526  0EFD               	movlw	-3
  3787  001528  CFE3 F013          	movff	plusw1,btemp+11
  3788  00152C  0E74               	movlw	116
  3789  00152E  0212               	mulwf	(btemp+10)^0,c
  3790  001530  CFF3 F010          	movff	prodl,btemp+8
  3791  001534  CFF4 F011          	movff	prodh,btemp+9
  3792  001538  0213               	mulwf	(btemp+11)^0,c
  3793  00153A  50F3               	movf	prodl,w,c
  3794  00153C  2611               	addwf	(btemp+9)^0,f,c
  3795  00153E  0E29               	movlw	low (_ready_queue+113)
  3796  001540  2410               	addwf	(btemp+8)^0,w,c
  3797  001542  6ED9               	movwf	fsr2l,c
  3798  001544  0E02               	movlw	high (_ready_queue+113)
  3799  001546  2011               	addwfc	(btemp+9)^0,w,c
  3800  001548  6EDA               	movwf	fsr2h,c
  3801  00154A  50DF               	movf	indf2,w,c
  3802  00154C  B4D8               	btfsc	status,2,c
  3803  00154E  EFAB  F00A         	goto	u7_21
  3804  001552  EFAD  F00A         	goto	u7_20
  3805  001556                     u7_21:
  3806  001556  EFCF  F00A         	goto	l1044
  3807  00155A                     u7_20:
  3808  00155A                     __ccov120_end_blk7:
  3809                           	callstack 15
  3810  00155A                     __ccov121_start_blk8:
  3811                           	callstack 15
  3812  00155A  8603               	bsf	(__ccovbit8_30/(0+8))^0,__ccovbit8_30& (0+7),c	;volatile
  3813                           
  3814                           ;stkvar	_task_to_run @ sp[(-4)+0]
  3815  00155C  0EFC               	movlw	-4
  3816  00155E  CFE3 F012          	movff	plusw1,btemp+10
  3817  001562  0EFD               	movlw	-3
  3818  001564  CFE3 F013          	movff	plusw1,btemp+11
  3819  001568  0E74               	movlw	116
  3820  00156A  0212               	mulwf	(btemp+10)^0,c
  3821  00156C  CFF3 F010          	movff	prodl,btemp+8
  3822  001570  CFF4 F011          	movff	prodh,btemp+9
  3823  001574  0213               	mulwf	(btemp+11)^0,c
  3824  001576  50F3               	movf	prodl,w,c
  3825  001578  2611               	addwf	(btemp+9)^0,f,c
  3826  00157A  0EBC               	movlw	low (_ready_queue+4)
  3827  00157C  2410               	addwf	(btemp+8)^0,w,c
  3828  00157E  6ED9               	movwf	fsr2l,c
  3829  001580  0E01               	movlw	high (_ready_queue+4)
  3830  001582  2011               	addwfc	(btemp+9)^0,w,c
  3831  001584  6EDA               	movwf	fsr2h,c
  3832  001586  0E6E               	movlw	low _task_idle
  3833  001588  18DE               	xorwf	postinc2,w,c
  3834  00158A  E107               	bnz	u8_21
  3835  00158C  0E1A               	movlw	high _task_idle
  3836  00158E  18DE               	xorwf	postinc2,w,c
  3837  001590  A4D8               	btfss	status,2,c
  3838  001592  EFCD  F00A         	goto	u8_21
  3839  001596  EFCF  F00A         	goto	u8_20
  3840  00159A                     u8_21:
  3841  00159A  EF4A  F00A         	goto	l1032
  3842  00159E                     u8_20:
  3843  00159E                     __ccov121_end_blk8:
  3844                           	callstack 15
  3845  00159E                     __ccov122_start_blk11:
  3846                           	callstack 15
  3847  00159E                     l1044:
  3848  00159E  8403               	bsf	(__ccovbit11_31/(0+8))^0,__ccovbit11_31& (0+7),c	;volatile
  3849                           
  3850                           ;scheduler.c: 22:    return task_to_run;
  3851                           ;stkvar	_task_to_run @ sp[(-4)+0]
  3852  0015A0  0EFC               	movlw	-4
  3853  0015A2  CFE3 F008          	movff	plusw1,btemp
  3854  0015A6  0EFD               	movlw	-3
  3855  0015A8  CFE3 F009          	movff	plusw1,btemp+1
  3856  0015AC                     __ccov122_end_blk11:
  3857                           	callstack 15
  3858  0015AC                     __ccov123_start_blk13:
  3859                           	callstack 15
  3860  0015AC                     l182:
  3861  0015AC  8203               	bsf	(__ccovbit13_32/(0+8))^0,__ccovbit13_32& (0+7),c	;volatile
  3862                           
  3863                           ; _RR_scheduler: autosize = 4, savesize = 0, parsavesize = 0, tempsize = 0 parsize = 0, 
      +                          argsize = 0, vargsize = 0
  3864  0015AE  52E5               	movf	postdec1,f,c
  3865  0015B0  52E5               	movf	postdec1,f,c
  3866  0015B2  52E5               	movf	postdec1,f,c
  3867  0015B4  52E5               	movf	postdec1,f,c
  3868  0015B6  0012               	return		;funcret
  3869  0015B8                     __end_of_RR_scheduler:
  3870                           	callstack 0
  3871  0000                     
  3872 ;; *************** function ___lwmod *****************
  3873 ;; Defined at:
  3874 ;;		line 7 in file "C:\Program Files\Microchip\xc8\v2.20\pic\sources\c99\common\lwmod.c"
  3875 ;; Parameters:    Size  Location     Type
  3876 ;;  dividend        2  [STACK] unsigned int 
  3877 ;;  divisor         2  [STACK] unsigned int 
  3878 ;; Auto vars:     Size  Location     Type
  3879 ;;  counter         1  [STACK] unsigned char 
  3880 ;; Return value:  Size  Location     Type
  3881 ;;                  2  [STACK] unsigned int 
  3882 ;; Registers used:
  3883 ;;		wreg, fsr1l, fsr1h, status,2, status,0, btemp, btemp+1, btemp+8, btemp+9, btemp+10, btemp+11, prodl
  3884 ;; Tracked objects:
  3885 ;;		On entry : 0/0
  3886 ;;		On exit  : 0/0
  3887 ;;		Unchanged: 0/0
  3888 ;; Data sizes:     COMRAM   BANK0   BANK1   BANK2   BANK3   BANK4   BANK5
  3889 ;;      Params:         0       0       0       0       0       0       0
  3890 ;;      Locals:         0       0       0       0       0       0       0
  3891 ;;      Temps:          0       0       0       0       0       0       0
  3892 ;;      Totals:         0       0       0       0       0       0       0
  3893 ;;Total ram usage:        0 bytes
  3894 ;; Hardware stack levels used:    1
  3895 ;; Hardware stack levels required when called:    4
  3896 ;; This function calls:
  3897 ;;		Nothing
  3898 ;; This function is called by:
  3899 ;;		_RR_scheduler
  3900 ;; This function uses a reentrant model
  3901 ;;
  3902                           
  3903                           	psect	text12
  3904  0016AA                     __ptext12:
  3905                           	callstack 0
  3906  0016AA                     ___lwmod:
  3907                           	callstack 0
  3908                           
  3909                           ; autosize = 1, savesize = 0, parsavesize = 0, tempsize = 0 parsize = 4, argsize = 4 var
      +                          gsize = 0, retsize = 0 argfudge = 0
  3910  0016AA  52E6               	movf	postinc1,f,c
  3911  0016AC                     
  3912                           ;stkvar	_divisor @ sp[(-1)+-4]
  3913  0016AC  0EFB               	movlw	-5
  3914  0016AE  CFE3 F012          	movff	plusw1,btemp+10
  3915  0016B2  0EFC               	movlw	-4
  3916  0016B4  50E3               	movf	plusw1,w,c
  3917  0016B6  1012               	iorwf	(btemp+10)^0,w,c
  3918  0016B8  B4D8               	btfsc	status,2,c
  3919  0016BA  EF61  F00B         	goto	u1_21
  3920  0016BE  EF63  F00B         	goto	u1_20
  3921  0016C2                     u1_21:
  3922  0016C2  EFBE  F00B         	goto	l1006
  3923  0016C6                     u1_20:
  3924  0016C6                     
  3925                           ;stkvar	_counter @ sp[(-1)+0]
  3926  0016C6  0EFF               	movlw	-1
  3927  0016C8  6AE3               	clrf	plusw1,c
  3928  0016CA  2AE3               	incf	plusw1,f,c
  3929  0016CC  EF79  F00B         	goto	l996
  3930  0016D0                     l992:
  3931                           
  3932                           ;stkvar	_divisor @ sp[(-1)+-4]
  3933  0016D0  0EFB               	movlw	-5
  3934  0016D2  50E3               	movf	plusw1,w,c
  3935  0016D4  90D8               	bcf	status,0,c
  3936  0016D6  34E8               	rlcf	wreg,w,c
  3937  0016D8  6E12               	movwf	(btemp+10)^0,c
  3938  0016DA  0EFB               	movlw	-5
  3939  0016DC  C012  FFE3         	movff	btemp+10,plusw1
  3940  0016E0  0EFC               	movlw	-4
  3941  0016E2  50E3               	movf	plusw1,w,c
  3942  0016E4  34E8               	rlcf	wreg,w,c
  3943  0016E6  6E12               	movwf	(btemp+10)^0,c
  3944  0016E8  0EFC               	movlw	-4
  3945  0016EA  C012  FFE3         	movff	btemp+10,plusw1
  3946  0016EE                     
  3947                           ;stkvar	_counter @ sp[(-1)+0]
  3948  0016EE  0EFF               	movlw	-1
  3949  0016F0  2AE3               	incf	plusw1,f,c
  3950  0016F2                     l996:
  3951                           
  3952                           ;stkvar	_divisor @ sp[(-1)+-4]
  3953  0016F2  0EFC               	movlw	-4
  3954  0016F4  AEE3               	btfss	plusw1,7,c
  3955  0016F6  EF7F  F00B         	goto	u2_21
  3956  0016FA  EF81  F00B         	goto	u2_20
  3957  0016FE                     u2_21:
  3958  0016FE  EF68  F00B         	goto	l992
  3959  001702                     u2_20:
  3960  001702                     l998:
  3961                           
  3962                           ;stkvar	_divisor @ sp[(-1)+-4]
  3963  001702  0EFB               	movlw	-5
  3964  001704  CFE3 F012          	movff	plusw1,btemp+10
  3965  001708  0EFC               	movlw	-4
  3966  00170A  CFE3 F013          	movff	plusw1,btemp+11
  3967                           
  3968                           ;stkvar	_dividend @ sp[(-1)+-2]
  3969  00170E  0EFD               	movlw	-3
  3970  001710  CFE3 F010          	movff	plusw1,btemp+8
  3971  001714  0EFE               	movlw	-2
  3972  001716  CFE3 F011          	movff	plusw1,btemp+9
  3973  00171A  5012               	movf	(btemp+10)^0,w,c
  3974  00171C  5C10               	subwf	(btemp+8)^0,w,c
  3975  00171E  5013               	movf	(btemp+11)^0,w,c
  3976  001720  5811               	subwfb	(btemp+9)^0,w,c
  3977  001722  A0D8               	btfss	status,0,c
  3978  001724  EF96  F00B         	goto	u3_21
  3979  001728  EF98  F00B         	goto	u3_20
  3980  00172C                     u3_21:
  3981  00172C  EFAA  F00B         	goto	l1002
  3982  001730                     u3_20:
  3983  001730                     
  3984                           ;stkvar	_divisor @ sp[(-1)+-4]
  3985                           ;stkvar	_dividend @ sp[(-1)+-2]
  3986  001730  0EFD               	movlw	-3
  3987  001732  50E3               	movf	plusw1,w,c
  3988  001734  6E12               	movwf	(btemp+10)^0,c
  3989  001736  0EFB               	movlw	-5
  3990  001738  50E3               	movf	plusw1,w,c
  3991  00173A  5E12               	subwf	(btemp+10)^0,f,c
  3992  00173C  0EFD               	movlw	-3
  3993  00173E  C012  FFE3         	movff	btemp+10,plusw1
  3994  001742  0EFE               	movlw	-2
  3995  001744  50E3               	movf	plusw1,w,c
  3996  001746  6E12               	movwf	(btemp+10)^0,c
  3997  001748  0EFC               	movlw	-4
  3998  00174A  50E3               	movf	plusw1,w,c
  3999  00174C  5A12               	subwfb	(btemp+10)^0,f,c
  4000  00174E  0EFE               	movlw	-2
  4001  001750  C012  FFE3         	movff	btemp+10,plusw1
  4002  001754                     l1002:
  4003                           
  4004                           ;stkvar	_divisor @ sp[(-1)+-4]
  4005  001754  90D8               	bcf	status,0,c
  4006  001756  0EFC               	movlw	-4
  4007  001758  32E3               	rrcf	plusw1,f,c
  4008  00175A  0EFB               	movlw	-5
  4009  00175C  32E3               	rrcf	plusw1,f,c
  4010  00175E                     
  4011                           ;stkvar	_counter @ sp[(-1)+0]
  4012  00175E  0EFF               	movlw	-1
  4013  001760  50E3               	movf	plusw1,w,c
  4014  001762  6E12               	movwf	(btemp+10)^0,c
  4015  001764  0E01               	movlw	1
  4016  001766  5E12               	subwf	(btemp+10)^0,f,c
  4017  001768  0EFF               	movlw	-1
  4018  00176A  C012  FFE3         	movff	btemp+10,plusw1
  4019  00176E  A4D8               	btfss	status,2,c
  4020  001770  EFBC  F00B         	goto	u4_21
  4021  001774  EFBE  F00B         	goto	u4_20
  4022  001778                     u4_21:
  4023  001778  EF81  F00B         	goto	l998
  4024  00177C                     u4_20:
  4025  00177C                     l1006:
  4026                           
  4027                           ;stkvar	_dividend @ sp[(-1)+-2]
  4028  00177C  0EFD               	movlw	-3
  4029  00177E  CFE3 F008          	movff	plusw1,btemp
  4030  001782  0EFE               	movlw	-2
  4031  001784  CFE3 F009          	movff	plusw1,btemp+1
  4032  001788                     
  4033                           ; ___lwmod: autosize = 1, savesize = 0, parsavesize = 0, tempsize = 0 parsize = 4, argsi
      +                          ze = 4, vargsize = 0
  4034  001788  0EFB               	movlw	251
  4035  00178A  26E1               	addwf	fsr1l,f,c
  4036  00178C  0EFF               	movlw	255
  4037  00178E  22E2               	addwfc	fsr1h,f,c
  4038  001790  0012               	return		;funcret
  4039  001792                     __end_of___lwmod:
  4040                           	callstack 0
  4041                           
  4042 ;; *************** function _task_2 *****************
  4043 ;; Defined at:
  4044 ;;		line 34 in file "user_tasks.c"
  4045 ;; Parameters:    Size  Location     Type
  4046 ;;		None
  4047 ;; Auto vars:     Size  Location     Type
  4048 ;;		None
  4049 ;; Return value:  Size  Location     Type
  4050 ;;                  1  [STACK] void 
  4051 ;; Registers used:
  4052 ;;		wreg, fsr0l, fsr0h, fsr1l, fsr1h, fsr2l, fsr2h, status,2, status,0, pclath, btemp, btemp+1, btemp+2, btemp+3, btemp+
      +4, btemp+5, btemp+6, btemp+7, btemp+8, btemp+9, btemp+10, btemp+11, btemp+12, btemp+13, btemp+14, btemp+15, btemp+16, bt
      +emp+17, btemp+18, btemp+19, btemp+20, btemp+21, btemp+22, btemp+23, btemp+24, btemp+25, btemp+26, btemp+27, btemp+28, bt
      +emp+29, btemp+30, btemp+31, tosl, structret, tblptrl, tblptrh, tblptru, prodl, prodh, bsr, cstack
  4053 ;; Tracked objects:
  4054 ;;		On entry : 0/0
  4055 ;;		On exit  : 0/0
  4056 ;;		Unchanged: 0/0
  4057 ;; Data sizes:     COMRAM   BANK0   BANK1   BANK2   BANK3   BANK4   BANK5
  4058 ;;      Params:         0       0       0       0       0       0       0
  4059 ;;      Locals:         0       0       0       0       0       0       0
  4060 ;;      Temps:          0       0       0       0       0       0       0
  4061 ;;      Totals:         0       0       0       0       0       0       0
  4062 ;;Total ram usage:        0 bytes
  4063 ;; Hardware stack levels used:    1
  4064 ;; Hardware stack levels required when called:    8
  4065 ;; This function calls:
  4066 ;;		_lock
  4067 ;;		_unlock
  4068 ;; This function is called by:
  4069 ;;		_main
  4070 ;; This function uses a reentrant model
  4071 ;;
  4072                           
  4073                           	psect	text13
  4074  0019F4                     __ptext13:
  4075                           	callstack 0
  4076  0019F4                     _task_2:
  4077                           	callstack 19
  4078  0019F4                     l50:
  4079  0019F4                     
  4080                           ;user_tasks.c: 37:       lock(&m_test);
  4081  0019F4  0E41               	movlw	low _m_test
  4082  0019F6  6EE6               	movwf	postinc1,c
  4083  0019F8  0E00               	movlw	high _m_test
  4084  0019FA  6EE6               	movwf	postinc1,c
  4085  0019FC  ECCC  F002         	call	_lock	;wreg free
  4086  001A00                     __ccov14_end_blk1:
  4087                           	callstack 19
  4088  001A00                     __ccov15_start_blk2:
  4089                           	callstack 19
  4090  001A00                     
  4091                           ;user_tasks.c: 38:       LATDbits.LATD1 = ~PORTDbits.RD1;
  4092  001A00  B283               	btfsc	131,1,c	;volatile
  4093  001A02  EF05  F00D         	goto	u24_21
  4094  001A06  EF08  F00D         	goto	u24_20
  4095  001A0A                     u24_21:
  4096  001A0A  0E01               	movlw	1
  4097  001A0C  EF09  F00D         	goto	u24_26
  4098  001A10                     u24_20:
  4099  001A10  0E00               	movlw	0
  4100  001A12                     u24_26:
  4101  001A12  0AFF               	xorlw	255
  4102  001A14  6E13               	movwf	(btemp+11)^0,c
  4103  001A16  4613               	rlncf	(btemp+11)^0,f,c
  4104  001A18  508C               	movf	140,w,c	;volatile
  4105  001A1A  1813               	xorwf	(btemp+11)^0,w,c
  4106  001A1C  0BFD               	andlw	-3
  4107  001A1E  1813               	xorwf	(btemp+11)^0,w,c
  4108  001A20  6E8C               	movwf	140,c	;volatile
  4109  001A22                     __ccov15_end_blk2:
  4110                           	callstack 19
  4111  001A22                     __ccov16_start_blk3:
  4112                           	callstack 19
  4113  001A22  8A06               	bsf	(__ccovbit3_4/(0+8))^0,__ccovbit3_4& (0+7),c	;volatile
  4114                           
  4115                           ;user_tasks.c: 39:       unlock(&m_test);
  4116  001A24  0E41               	movlw	low _m_test
  4117  001A26  6EE6               	movwf	postinc1,c
  4118  001A28  0E00               	movlw	high _m_test
  4119  001A2A  6EE6               	movwf	postinc1,c
  4120  001A2C  EC0A  F000         	call	_unlock	;wreg free
  4121  001A30  EFFA  F00C         	goto	l50
  4122  001A34                     __ccov16_end_blk3:
  4123                           	callstack 19
  4124                           
  4125                           ; _task_2: autosize = 0, savesize = 0, parsavesize = 0, tempsize = 0 parsize = 0, argsiz
      +                          e = 0, vargsize = 0
  4126  001A34  0012               	return		;funcret
  4127  001A36                     __end_of_task_2:
  4128                           	callstack 0
  4129                           
  4130 ;; *************** function _task_3 *****************
  4131 ;; Defined at:
  4132 ;;		line 43 in file "user_tasks.c"
  4133 ;; Parameters:    Size  Location     Type
  4134 ;;		None
  4135 ;; Auto vars:     Size  Location     Type
  4136 ;;		None
  4137 ;; Return value:  Size  Location     Type
  4138 ;;                  1  [STACK] void 
  4139 ;; Registers used:
  4140 ;;		wreg, fsr0l, fsr0h, fsr1l, fsr1h, fsr2l, fsr2h, status,2, status,0, pclath, btemp, btemp+1, btemp+2, btemp+3, btemp+
      +4, btemp+5, btemp+6, btemp+7, btemp+8, btemp+9, btemp+10, btemp+11, btemp+12, btemp+13, btemp+14, btemp+15, btemp+16, bt
      +emp+17, btemp+18, btemp+19, btemp+20, btemp+21, btemp+22, btemp+23, btemp+24, btemp+25, btemp+26, btemp+27, btemp+28, bt
      +emp+29, btemp+30, btemp+31, tosl, structret, tblptrl, tblptrh, tblptru, prodl, prodh, bsr, cstack
  4141 ;; Tracked objects:
  4142 ;;		On entry : 0/0
  4143 ;;		On exit  : 0/0
  4144 ;;		Unchanged: 0/0
  4145 ;; Data sizes:     COMRAM   BANK0   BANK1   BANK2   BANK3   BANK4   BANK5
  4146 ;;      Params:         0       0       0       0       0       0       0
  4147 ;;      Locals:         0       0       0       0       0       0       0
  4148 ;;      Temps:          0       0       0       0       0       0       0
  4149 ;;      Totals:         0       0       0       0       0       0       0
  4150 ;;Total ram usage:        0 bytes
  4151 ;; Hardware stack levels used:    1
  4152 ;; Hardware stack levels required when called:    8
  4153 ;; This function calls:
  4154 ;;		_delay_task
  4155 ;; This function is called by:
  4156 ;;		_main
  4157 ;; This function uses a reentrant model
  4158 ;;
  4159                           
  4160                           	psect	text14
  4161  001A36                     __ptext14:
  4162                           	callstack 0
  4163  001A36                     _task_3:
  4164                           	callstack 19
  4165  001A36                     l56:
  4166  001A36                     
  4167                           ;user_tasks.c: 46:       LATDbits.LATD2 = ~PORTDbits.RD2;
  4168  001A36  B483               	btfsc	131,2,c	;volatile
  4169  001A38  EF20  F00D         	goto	u25_21
  4170  001A3C  EF23  F00D         	goto	u25_20
  4171  001A40                     u25_21:
  4172  001A40  0E01               	movlw	1
  4173  001A42  EF24  F00D         	goto	u25_26
  4174  001A46                     u25_20:
  4175  001A46  0E00               	movlw	0
  4176  001A48                     u25_26:
  4177  001A48  0AFF               	xorlw	255
  4178  001A4A  6E13               	movwf	(btemp+11)^0,c
  4179  001A4C  4613               	rlncf	(btemp+11)^0,f,c
  4180  001A4E  4613               	rlncf	(btemp+11)^0,f,c
  4181  001A50  508C               	movf	140,w,c	;volatile
  4182  001A52  1813               	xorwf	(btemp+11)^0,w,c
  4183  001A54  0BFB               	andlw	-5
  4184  001A56  1813               	xorwf	(btemp+11)^0,w,c
  4185  001A58  6E8C               	movwf	140,c	;volatile
  4186  001A5A                     __ccov18_end_blk1:
  4187                           	callstack 19
  4188  001A5A                     __ccov19_start_blk2:
  4189                           	callstack 19
  4190  001A5A  8806               	bsf	(__ccovbit2_5/(0+8))^0,__ccovbit2_5& (0+7),c	;volatile
  4191                           
  4192                           ;user_tasks.c: 47:       delay_task(10);
  4193  001A5C  0E0A               	movlw	10
  4194  001A5E  6EE6               	movwf	postinc1,c
  4195  001A60  0E00               	movlw	0
  4196  001A62  6EE6               	movwf	postinc1,c
  4197  001A64  ECEC  F007         	call	_delay_task	;wreg free
  4198  001A68  EF1B  F00D         	goto	l56
  4199  001A6C                     __ccov19_end_blk2:
  4200                           	callstack 19
  4201                           
  4202                           ; _task_3: autosize = 0, savesize = 0, parsavesize = 0, tempsize = 0 parsize = 0, argsiz
      +                          e = 0, vargsize = 0
  4203  001A6C  0012               	return		;funcret
  4204  001A6E                     __end_of_task_3:
  4205                           	callstack 0
  4206                           
  4207 ;; *************** function _task_idle *****************
  4208 ;; Defined at:
  4209 ;;		line 162 in file "kernel.c"
  4210 ;; Parameters:    Size  Location     Type
  4211 ;;		None
  4212 ;; Auto vars:     Size  Location     Type
  4213 ;;		None
  4214 ;; Return value:  Size  Location     Type
  4215 ;;                  1  [STACK] void 
  4216 ;; Registers used:
  4217 ;;		wreg, status,2, status,0, btemp+11
  4218 ;; Tracked objects:
  4219 ;;		On entry : 0/0
  4220 ;;		On exit  : 0/0
  4221 ;;		Unchanged: 0/0
  4222 ;; Data sizes:     COMRAM   BANK0   BANK1   BANK2   BANK3   BANK4   BANK5
  4223 ;;      Params:         0       0       0       0       0       0       0
  4224 ;;      Locals:         0       0       0       0       0       0       0
  4225 ;;      Temps:          0       0       0       0       0       0       0
  4226 ;;      Totals:         0       0       0       0       0       0       0
  4227 ;;Total ram usage:        0 bytes
  4228 ;; Hardware stack levels used:    1
  4229 ;; Hardware stack levels required when called:    4
  4230 ;; This function calls:
  4231 ;;		Nothing
  4232 ;; This function is called by:
  4233 ;;		_config_os
  4234 ;;		_RR_scheduler
  4235 ;; This function uses a reentrant model
  4236 ;;
  4237                           
  4238                           	psect	text15
  4239  001A6E                     __ptext15:
  4240                           	callstack 0
  4241  001A6E                     _task_idle:
  4242                           	callstack 23
  4243  001A6E                     l170:
  4244  001A6E  8A03               	bsf	(__ccovbit1_28/(0+8))^0,__ccovbit1_28& (0+7),c	;volatile
  4245                           
  4246                           ;kernel.c: 166:       LATCbits.LATC0 = ~PORTCbits.RC0;
  4247  001A70  B082               	btfsc	130,0,c	;volatile
  4248  001A72  EF3D  F00D         	goto	u36_21
  4249  001A76  EF40  F00D         	goto	u36_20
  4250  001A7A                     u36_21:
  4251  001A7A  0E01               	movlw	1
  4252  001A7C  EF41  F00D         	goto	u36_26
  4253  001A80                     u36_20:
  4254  001A80  0E00               	movlw	0
  4255  001A82                     u36_26:
  4256  001A82  0AFF               	xorlw	255
  4257  001A84  6E13               	movwf	(btemp+11)^0,c
  4258  001A86  508B               	movf	139,w,c	;volatile
  4259  001A88  1813               	xorwf	(btemp+11)^0,w,c
  4260  001A8A  0BFE               	andlw	-2
  4261  001A8C  1813               	xorwf	(btemp+11)^0,w,c
  4262  001A8E  6E8B               	movwf	139,c	;volatile
  4263  001A90  EF37  F00D         	goto	l170
  4264  001A94                     __ccov115_end_blk1:
  4265                           	callstack 23
  4266                           
  4267                           ; _task_idle: autosize = 0, savesize = 0, parsavesize = 0, tempsize = 0 parsize = 0, arg
      +                          size = 0, vargsize = 0
  4268  001A94  0012               	return		;funcret
  4269  001A96                     __end_of_task_idle:
  4270                           	callstack 0
  4271                           
  4272 ;; *************** function _isr_INTERRUPTS *****************
  4273 ;; Defined at:
  4274 ;;		line 11 in file "kernel.c"
  4275 ;; Parameters:    Size  Location     Type
  4276 ;;		None
  4277 ;; Auto vars:     Size  Location     Type
  4278 ;;  task_pos        2   23[COMRAM] unsigned int 
  4279 ;;  p_context       2   17[COMRAM] unsigned int 
  4280 ;;  task_pos        2   21[COMRAM] unsigned int 
  4281 ;;  p_context       2   15[COMRAM] unsigned int 
  4282 ;;  i               2   19[COMRAM] int 
  4283 ;; Return value:  Size  Location     Type
  4284 ;;                  1    wreg      void 
  4285 ;; Registers used:
  4286 ;;		wreg, fsr1l, fsr1h, fsr2l, fsr2h, status,2, status,0, btemp, btemp+1, btemp+8, btemp+9, btemp+10, btemp+11, prodl, p
      +rodh
  4287 ;; Tracked objects:
  4288 ;;		On entry : 0/0
  4289 ;;		On exit  : 0/0
  4290 ;;		Unchanged: 0/0
  4291 ;; Data sizes:     COMRAM   BANK0   BANK1   BANK2   BANK3   BANK4   BANK5
  4292 ;;      Params:         0       0       0       0       0       0       0
  4293 ;;      Locals:        10       0       0       0       0       0       0
  4294 ;;      Temps:         15       0       0       0       0       0       0
  4295 ;;      Totals:        25       0       0       0       0       0       0
  4296 ;;Total ram usage:       25 bytes
  4297 ;; Hardware stack levels used:    1
  4298 ;; Hardware stack levels required when called:    3
  4299 ;; This function calls:
  4300 ;;		___wmul
  4301 ;;		_scheduler
  4302 ;; This function is called by:
  4303 ;;		Interrupt level 2
  4304 ;; This function uses a non-reentrant model
  4305 ;;
  4306                           
  4307                           	psect	intcode
  4308  000008                     __pintcode:
  4309                           	callstack 0
  4310  000008                     _isr_INTERRUPTS:
  4311                           	callstack 19
  4312                           
  4313                           ;incstack = 0
  4314  000008  ED7B  F005         	call	int_func,f	;refresh shadow registers
  4315                           
  4316                           	psect	intcode_body
  4317  000AF6                     __pintcode_body:
  4318                           	callstack 19
  4319  000AF6                     int_func:
  4320                           	callstack 19
  4321  000AF6  0006               	pop		; remove dummy address from shadow register refresh
  4322  000AF8  CFE1 F02B          	movff	fsr1l,??_isr_INTERRUPTS+3
  4323  000AFC  CFE2 F02C          	movff	fsr1h,??_isr_INTERRUPTS+4
  4324  000B00  CFD9 F02D          	movff	fsr2l,??_isr_INTERRUPTS+5
  4325  000B04  CFDA F02E          	movff	fsr2h,??_isr_INTERRUPTS+6
  4326  000B08  CFF3 F02F          	movff	prodl,??_isr_INTERRUPTS+7
  4327  000B0C  CFF4 F030          	movff	prodh,??_isr_INTERRUPTS+8
  4328  000B10  C008  F031         	movff	btemp,??_isr_INTERRUPTS+9
  4329  000B14  C009  F032         	movff	btemp+1,??_isr_INTERRUPTS+10
  4330  000B18  C010  F033         	movff	btemp+8,??_isr_INTERRUPTS+11
  4331  000B1C  C011  F034         	movff	btemp+9,??_isr_INTERRUPTS+12
  4332  000B20  C012  F035         	movff	btemp+10,??_isr_INTERRUPTS+13
  4333  000B24  C013  F036         	movff	btemp+11,??_isr_INTERRUPTS+14
  4334  000B28  EE10  F0E8         	lfsr	1,___inthi_sp
  4335  000B2C                     
  4336                           ;kernel.c: 14:    if (INTCONbits.INT0IF) {
  4337  000B2C  A2F2               	btfss	242,1,c	;volatile
  4338  000B2E  EF9B  F005         	goto	i2u26_41
  4339  000B32  EF9D  F005         	goto	i2u26_40
  4340  000B36                     i2u26_41:
  4341  000B36  EFA1  F005         	goto	i2l102
  4342  000B3A                     i2u26_40:
  4343  000B3A                     __ccov20_end_blk0:
  4344                           	callstack 19
  4345  000B3A                     __ccov21_start_blk1:
  4346                           	callstack 19
  4347  000B3A  8606               	bsf	(__ccovbit1_6/(0+8))^0,__ccovbit1_6& (0+7),c	;volatile
  4348                           
  4349                           ;kernel.c: 15:       INTCONbits.INT0IF = 0;
  4350  000B3C  92F2               	bcf	242,1,c	;volatile
  4351                           
  4352                           ;kernel.c: 16:    }
  4353  000B3E  EFD2  F007         	goto	i2l123
  4354  000B42                     __ccov21_end_blk1:
  4355                           	callstack 19
  4356  000B42                     __ccov22_start_blk2:
  4357                           	callstack 19
  4358  000B42                     i2l102:
  4359  000B42  8406               	bsf	(__ccovbit2_7/(0+8))^0,__ccovbit2_7& (0+7),c	;volatile
  4360  000B44  A4F2               	btfss	242,2,c	;volatile
  4361  000B46  EFA7  F005         	goto	i2u27_41
  4362  000B4A  EFA9  F005         	goto	i2u27_40
  4363  000B4E                     i2u27_41:
  4364  000B4E  EFD2  F007         	goto	i2l123
  4365  000B52                     i2u27_40:
  4366  000B52                     __ccov22_end_blk2:
  4367                           	callstack 19
  4368  000B52                     __ccov23_start_blk3:
  4369                           	callstack 19
  4370  000B52                     
  4371                           ;kernel.c: 18:       INTCONbits.TMR0IF = 0;
  4372  000B52  94F2               	bcf	242,2,c	;volatile
  4373  000B54                     __ccov23_end_blk3:
  4374                           	callstack 19
  4375  000B54                     __ccov24_start_blk4:
  4376                           	callstack 19
  4377  000B54                     
  4378                           ;kernel.c: 19:       TMR0 = 64;
  4379  000B54  0E00               	movlw	0
  4380  000B56  6ED7               	movwf	215,c	;volatile
  4381  000B58  0E40               	movlw	64
  4382  000B5A  6ED6               	movwf	214,c	;volatile
  4383  000B5C                     __ccov24_end_blk4:
  4384                           	callstack 19
  4385  000B5C                     __ccov25_start_blk5:
  4386                           	callstack 19
  4387  000B5C                     
  4388                           ;kernel.c: 22:       int i;;kernel.c: 23:       for (i = 0; i < ready_queue.tasks_instal
      +                          led; i++) {
  4389  000B5C  6A3B               	clrf	isr_INTERRUPTS@i^0,c
  4390  000B5E  6A3C               	clrf	(isr_INTERRUPTS@i+1)^0,c
  4391  000B60  EF0E  F006         	goto	i2l1302
  4392  000B64                     __ccov25_end_blk5:
  4393                           	callstack 19
  4394  000B64                     __ccov26_start_blk7:
  4395                           	callstack 19
  4396  000B64                     i2l1294:
  4397                           
  4398                           ;kernel.c: 24:          if (ready_queue.tasks_list[i].delay_waiting > 0) {
  4399  000B64  0E74               	movlw	116
  4400  000B66  6EE6               	movwf	postinc1,c
  4401  000B68  0E00               	movlw	0
  4402  000B6A  6EE6               	movwf	postinc1,c
  4403  000B6C  C03B  FFE6         	movff	isr_INTERRUPTS@i,postinc1
  4404  000B70  C03C  FFE6         	movff	isr_INTERRUPTS@i+1,postinc1
  4405  000B74  ECC9  F00B         	call	___wmul	;wreg free
  4406  000B78  0E2A               	movlw	low (_ready_queue+114)
  4407  000B7A  2408               	addwf	btemp^0,w,c
  4408  000B7C  6ED9               	movwf	fsr2l,c
  4409  000B7E  0E02               	movlw	high (_ready_queue+114)
  4410  000B80  2009               	addwfc	(btemp+1)^0,w,c
  4411  000B82  6EDA               	movwf	fsr2h,c
  4412  000B84  50DE               	movf	postinc2,w,c
  4413  000B86  10DE               	iorwf	postinc2,w,c
  4414  000B88  B4D8               	btfsc	status,2,c
  4415  000B8A  EFC9  F005         	goto	i2u28_41
  4416  000B8E  EFCB  F005         	goto	i2u28_40
  4417  000B92                     i2u28_41:
  4418  000B92  EF0B  F006         	goto	i2l1300
  4419  000B96                     i2u28_40:
  4420  000B96                     __ccov26_end_blk7:
  4421                           	callstack 19
  4422  000B96                     __ccov27_start_blk8:
  4423                           	callstack 19
  4424  000B96  8206               	bsf	(__ccovbit8_8/(0+8))^0,__ccovbit8_8& (0+7),c	;volatile
  4425                           
  4426                           ;kernel.c: 25:             ready_queue.tasks_list[i].delay_waiting -= 1;
  4427  000B98  0E74               	movlw	116
  4428  000B9A  6EE6               	movwf	postinc1,c
  4429  000B9C  0E00               	movlw	0
  4430  000B9E  6EE6               	movwf	postinc1,c
  4431  000BA0  C03B  FFE6         	movff	isr_INTERRUPTS@i,postinc1
  4432  000BA4  C03C  FFE6         	movff	isr_INTERRUPTS@i+1,postinc1
  4433  000BA8  ECC9  F00B         	call	___wmul	;wreg free
  4434  000BAC  0E2A               	movlw	low (_ready_queue+114)
  4435  000BAE  2408               	addwf	btemp^0,w,c
  4436  000BB0  6ED9               	movwf	fsr2l,c
  4437  000BB2  0E02               	movlw	high (_ready_queue+114)
  4438  000BB4  2009               	addwfc	(btemp+1)^0,w,c
  4439  000BB6  6EDA               	movwf	fsr2h,c
  4440  000BB8  06DE               	decf	postinc2,f,c
  4441  000BBA  0E00               	movlw	0
  4442  000BBC  5ADD               	subwfb	postdec2,f,c
  4443                           
  4444                           ;kernel.c: 26:             if (ready_queue.tasks_list[i].delay_waiting == 0) {
  4445  000BBE  0E74               	movlw	116
  4446  000BC0  6EE6               	movwf	postinc1,c
  4447  000BC2  0E00               	movlw	0
  4448  000BC4  6EE6               	movwf	postinc1,c
  4449  000BC6  C03B  FFE6         	movff	isr_INTERRUPTS@i,postinc1
  4450  000BCA  C03C  FFE6         	movff	isr_INTERRUPTS@i+1,postinc1
  4451  000BCE  ECC9  F00B         	call	___wmul	;wreg free
  4452  000BD2  0E2A               	movlw	low (_ready_queue+114)
  4453  000BD4  2408               	addwf	btemp^0,w,c
  4454  000BD6  6ED9               	movwf	fsr2l,c
  4455  000BD8  0E02               	movlw	high (_ready_queue+114)
  4456  000BDA  2009               	addwfc	(btemp+1)^0,w,c
  4457  000BDC  6EDA               	movwf	fsr2h,c
  4458  000BDE  50DE               	movf	postinc2,w,c
  4459  000BE0  10DE               	iorwf	postinc2,w,c
  4460  000BE2  A4D8               	btfss	status,2,c
  4461  000BE4  EFF6  F005         	goto	i2u29_41
  4462  000BE8  EFF8  F005         	goto	i2u29_40
  4463  000BEC                     i2u29_41:
  4464  000BEC  EF0B  F006         	goto	i2l1300
  4465  000BF0                     i2u29_40:
  4466  000BF0                     __ccov27_end_blk8:
  4467                           	callstack 19
  4468  000BF0                     __ccov28_start_blk9:
  4469                           	callstack 19
  4470  000BF0  8006               	bsf	(__ccovbit9_9/(0+8))^0,__ccovbit9_9& (0+7),c	;volatile
  4471                           
  4472                           ;kernel.c: 27:                ready_queue.tasks_list[i].task_STATE = READY;
  4473  000BF2  0E74               	movlw	116
  4474  000BF4  6EE6               	movwf	postinc1,c
  4475  000BF6  0E00               	movlw	0
  4476  000BF8  6EE6               	movwf	postinc1,c
  4477  000BFA  C03B  FFE6         	movff	isr_INTERRUPTS@i,postinc1
  4478  000BFE  C03C  FFE6         	movff	isr_INTERRUPTS@i+1,postinc1
  4479  000C02  ECC9  F00B         	call	___wmul	;wreg free
  4480  000C06  0E29               	movlw	low (_ready_queue+113)
  4481  000C08  2408               	addwf	btemp^0,w,c
  4482  000C0A  6ED9               	movwf	fsr2l,c
  4483  000C0C  0E02               	movlw	high (_ready_queue+113)
  4484  000C0E  2009               	addwfc	(btemp+1)^0,w,c
  4485  000C10  6EDA               	movwf	fsr2h,c
  4486  000C12  0E00               	movlw	0
  4487  000C14  6EDF               	movwf	indf2,c
  4488  000C16                     __ccov28_end_blk9:
  4489                           	callstack 19
  4490  000C16                     __ccov29_start_blk12:
  4491                           	callstack 19
  4492  000C16                     i2l1300:
  4493  000C16  8E05               	bsf	(__ccovbit12_10/(0+8))^0,__ccovbit12_10& (0+7),c	;volatile
  4494                           
  4495                           ;kernel.c: 30:       }
  4496  000C18  4A3B               	infsnz	isr_INTERRUPTS@i^0,f,c
  4497  000C1A  2A3C               	incf	(isr_INTERRUPTS@i+1)^0,f,c
  4498  000C1C                     __ccov29_end_blk12:
  4499                           	callstack 19
  4500  000C1C                     __ccov30_start_blk14:
  4501                           	callstack 19
  4502  000C1C                     i2l1302:
  4503  000C1C  EE23  F0FC         	lfsr	2,_ready_queue+580
  4504  000C20  50DE               	movf	postinc2,w,c
  4505  000C22  5C3B               	subwf	isr_INTERRUPTS@i^0,w,c
  4506  000C24  50DE               	movf	postinc2,w,c
  4507  000C26  583C               	subwfb	(isr_INTERRUPTS@i+1)^0,w,c
  4508  000C28  A0D8               	btfss	status,0,c
  4509  000C2A  EF19  F006         	goto	i2u30_41
  4510  000C2E  EF1B  F006         	goto	i2u30_40
  4511  000C32                     i2u30_41:
  4512  000C32  EFB2  F005         	goto	i2l1294
  4513  000C36                     i2u30_40:
  4514  000C36                     __ccov30_end_blk14:
  4515                           	callstack 19
  4516  000C36                     __ccov31_start_blk16:
  4517                           	callstack 19
  4518  000C36                     
  4519                           ;kernel.c: 32:       rr_quantum_control -= 1;
  4520  000C36  0650               	decf	_rr_quantum_control^0,f,c
  4521  000C38  A0D8               	btfss	status,0,c
  4522  000C3A  0651               	decf	(_rr_quantum_control+1)^0,f,c
  4523  000C3C                     __ccov31_end_blk16:
  4524                           	callstack 19
  4525  000C3C                     __ccov32_start_blk17:
  4526                           	callstack 19
  4527  000C3C  8C05               	bsf	(__ccovbit17_11/(0+8))^0,__ccovbit17_11& (0+7),c	;volatile
  4528                           
  4529                           ;kernel.c: 33:       if (rr_quantum_control == 0) {
  4530  000C3E  5050               	movf	_rr_quantum_control^0,w,c
  4531  000C40  1051               	iorwf	(_rr_quantum_control+1)^0,w,c
  4532  000C42  A4D8               	btfss	status,2,c
  4533  000C44  EF26  F006         	goto	i2u31_41
  4534  000C48  EF28  F006         	goto	i2u31_40
  4535  000C4C                     i2u31_41:
  4536  000C4C  EFD2  F007         	goto	i2l123
  4537  000C50                     i2u31_40:
  4538  000C50                     __ccov32_end_blk17:
  4539                           	callstack 19
  4540  000C50                     __ccov33_start_blk18:
  4541                           	callstack 19
  4542  000C50                     
  4543                           ;kernel.c: 34:          rr_quantum_control = 8;
  4544  000C50  0E00               	movlw	0
  4545  000C52  6E51               	movwf	(_rr_quantum_control+1)^0,c
  4546  000C54  0E08               	movlw	8
  4547  000C56  6E50               	movwf	_rr_quantum_control^0,c
  4548  000C58                     __ccov33_end_blk18:
  4549                           	callstack 19
  4550  000C58                     __ccov34_start_blk19:
  4551                           	callstack 19
  4552  000C58                     
  4553                           ;kernel.c: 36:          { u_int p_context = 0, task_pos = ready_queue.task_running;do { 
      +                          INTCONbits.GIE = 0; if (ready_queue.tasks_list[task_pos].task_STATE == RUNNING) { ready_
      +                          queue.tasks_list[task_pos].task_BSR_reg = BSR; ready_queue.tasks_list[task_pos].task_WOR
      +                          K_reg = WREG; ready_queue.tasks_list[task_pos].task_STATUS_reg = STATUS; do { ready_queu
      +                          e.tasks_list[task_pos].task_CONTEXT[p_context] = TOS; __asm("POP"); p_context += 1; } wh
      +                          ile (STKPTR); ready_queue.tasks_list[task_pos].task_stack_real_size = p_context; ready_q
      +                          ueue.tasks_list[task_pos].task_STATE = READY; } INTCONbits.GIE = 1; } while(0); };
  4554  000C58  6A37               	clrf	isr_INTERRUPTS@p_context^0,c
  4555  000C5A  6A38               	clrf	(isr_INTERRUPTS@p_context+1)^0,c
  4556  000C5C                     __ccov34_end_blk19:
  4557                           	callstack 19
  4558  000C5C                     __ccov35_start_blk20:
  4559                           	callstack 19
  4560  000C5C  C3FE  F03D         	movff	_ready_queue+582,isr_INTERRUPTS@task_pos
  4561  000C60  C3FF  F03E         	movff	_ready_queue+583,isr_INTERRUPTS@task_pos+1
  4562  000C64                     __ccov35_end_blk20:
  4563                           	callstack 19
  4564  000C64                     __ccov36_start_blk22:
  4565                           	callstack 19
  4566  000C64  9EF2               	bcf	242,7,c	;volatile
  4567  000C66                     __ccov36_end_blk22:
  4568                           	callstack 19
  4569  000C66                     __ccov37_start_blk23:
  4570                           	callstack 19
  4571  000C66  0E74               	movlw	116
  4572  000C68  6EE6               	movwf	postinc1,c
  4573  000C6A  0E00               	movlw	0
  4574  000C6C  6EE6               	movwf	postinc1,c
  4575  000C6E  C03D  FFE6         	movff	isr_INTERRUPTS@task_pos,postinc1
  4576  000C72  C03E  FFE6         	movff	isr_INTERRUPTS@task_pos+1,postinc1
  4577  000C76  ECC9  F00B         	call	___wmul	;wreg free
  4578  000C7A  0E29               	movlw	low (_ready_queue+113)
  4579  000C7C  2408               	addwf	btemp^0,w,c
  4580  000C7E  6ED9               	movwf	fsr2l,c
  4581  000C80  0E02               	movlw	high (_ready_queue+113)
  4582  000C82  2009               	addwfc	(btemp+1)^0,w,c
  4583  000C84  6EDA               	movwf	fsr2h,c
  4584  000C86  04DE               	decf	postinc2,w,c
  4585  000C88  A4D8               	btfss	status,2,c
  4586  000C8A  EF49  F006         	goto	i2u32_41
  4587  000C8E  EF4B  F006         	goto	i2u32_40
  4588  000C92                     i2u32_41:
  4589  000C92  EFF7  F006         	goto	i2l1326
  4590  000C96                     i2u32_40:
  4591  000C96                     __ccov37_end_blk23:
  4592                           	callstack 19
  4593  000C96                     __ccov38_start_blk24:
  4594                           	callstack 19
  4595  000C96  50E0               	movf	224,w,c	;volatile
  4596  000C98  6E28               	movwf	??_isr_INTERRUPTS^0,c
  4597  000C9A  6A29               	clrf	(??_isr_INTERRUPTS+1)^0,c
  4598  000C9C  6A2A               	clrf	(??_isr_INTERRUPTS+2)^0,c
  4599  000C9E  0E74               	movlw	116
  4600  000CA0  6EE6               	movwf	postinc1,c
  4601  000CA2  0E00               	movlw	0
  4602  000CA4  6EE6               	movwf	postinc1,c
  4603  000CA6  C03D  FFE6         	movff	isr_INTERRUPTS@task_pos,postinc1
  4604  000CAA  C03E  FFE6         	movff	isr_INTERRUPTS@task_pos+1,postinc1
  4605  000CAE  ECC9  F00B         	call	___wmul	;wreg free
  4606  000CB2  0E1E               	movlw	low (_ready_queue+102)
  4607  000CB4  2408               	addwf	btemp^0,w,c
  4608  000CB6  6ED9               	movwf	fsr2l,c
  4609  000CB8  0E02               	movlw	high (_ready_queue+102)
  4610  000CBA  2009               	addwfc	(btemp+1)^0,w,c
  4611  000CBC  6EDA               	movwf	fsr2h,c
  4612  000CBE  C028  FFDE         	movff	??_isr_INTERRUPTS,postinc2
  4613  000CC2  C029  FFDE         	movff	??_isr_INTERRUPTS+1,postinc2
  4614  000CC6  C02A  FFDE         	movff	??_isr_INTERRUPTS+2,postinc2
  4615  000CCA  6E28               	movwf	??_isr_INTERRUPTS^0,c
  4616  000CCC  6A29               	clrf	(??_isr_INTERRUPTS+1)^0,c
  4617  000CCE  6A2A               	clrf	(??_isr_INTERRUPTS+2)^0,c
  4618  000CD0  0E74               	movlw	116
  4619  000CD2  6EE6               	movwf	postinc1,c
  4620  000CD4  0E00               	movlw	0
  4621  000CD6  6EE6               	movwf	postinc1,c
  4622  000CD8  C03D  FFE6         	movff	isr_INTERRUPTS@task_pos,postinc1
  4623  000CDC  C03E  FFE6         	movff	isr_INTERRUPTS@task_pos+1,postinc1
  4624  000CE0  ECC9  F00B         	call	___wmul	;wreg free
  4625  000CE4  0E21               	movlw	low (_ready_queue+105)
  4626  000CE6  2408               	addwf	btemp^0,w,c
  4627  000CE8  6ED9               	movwf	fsr2l,c
  4628  000CEA  0E02               	movlw	high (_ready_queue+105)
  4629  000CEC  2009               	addwfc	(btemp+1)^0,w,c
  4630  000CEE  6EDA               	movwf	fsr2h,c
  4631  000CF0  C028  FFDE         	movff	??_isr_INTERRUPTS,postinc2
  4632  000CF4  C029  FFDE         	movff	??_isr_INTERRUPTS+1,postinc2
  4633  000CF8  C02A  FFDE         	movff	??_isr_INTERRUPTS+2,postinc2
  4634  000CFC  50D8               	movf	216,w,c	;volatile
  4635  000CFE  6E28               	movwf	??_isr_INTERRUPTS^0,c
  4636  000D00  6A29               	clrf	(??_isr_INTERRUPTS+1)^0,c
  4637  000D02  6A2A               	clrf	(??_isr_INTERRUPTS+2)^0,c
  4638  000D04  0E74               	movlw	116
  4639  000D06  6EE6               	movwf	postinc1,c
  4640  000D08  0E00               	movlw	0
  4641  000D0A  6EE6               	movwf	postinc1,c
  4642  000D0C  C03D  FFE6         	movff	isr_INTERRUPTS@task_pos,postinc1
  4643  000D10  C03E  FFE6         	movff	isr_INTERRUPTS@task_pos+1,postinc1
  4644  000D14  ECC9  F00B         	call	___wmul	;wreg free
  4645  000D18  0E24               	movlw	low (_ready_queue+108)
  4646  000D1A  2408               	addwf	btemp^0,w,c
  4647  000D1C  6ED9               	movwf	fsr2l,c
  4648  000D1E  0E02               	movlw	high (_ready_queue+108)
  4649  000D20  2009               	addwfc	(btemp+1)^0,w,c
  4650  000D22  6EDA               	movwf	fsr2h,c
  4651  000D24  C028  FFDE         	movff	??_isr_INTERRUPTS,postinc2
  4652  000D28  C029  FFDE         	movff	??_isr_INTERRUPTS+1,postinc2
  4653  000D2C  C02A  FFDE         	movff	??_isr_INTERRUPTS+2,postinc2
  4654  000D30                     __ccov38_end_blk24:
  4655                           	callstack 19
  4656  000D30                     __ccov39_start_blk25:
  4657                           	callstack 19
  4658  000D30                     i2l113:
  4659  000D30  0E74               	movlw	116
  4660  000D32  6EE6               	movwf	postinc1,c
  4661  000D34  0E00               	movlw	0
  4662  000D36  6EE6               	movwf	postinc1,c
  4663  000D38  C03D  FFE6         	movff	isr_INTERRUPTS@task_pos,postinc1
  4664  000D3C  C03E  FFE6         	movff	isr_INTERRUPTS@task_pos+1,postinc1
  4665  000D40  ECC9  F00B         	call	___wmul	;wreg free
  4666  000D44  0EB8               	movlw	low _ready_queue
  4667  000D46  6E28               	movwf	??_isr_INTERRUPTS^0,c
  4668  000D48  0E01               	movlw	high _ready_queue
  4669  000D4A  6E29               	movwf	(??_isr_INTERRUPTS+1)^0,c
  4670  000D4C  0E06               	movlw	6
  4671  000D4E  2628               	addwf	??_isr_INTERRUPTS^0,f,c
  4672  000D50  0E00               	movlw	0
  4673  000D52  2229               	addwfc	(??_isr_INTERRUPTS+1)^0,f,c
  4674  000D54  5008               	movf	btemp^0,w,c
  4675  000D56  2628               	addwf	??_isr_INTERRUPTS^0,f,c
  4676  000D58  5009               	movf	(btemp+1)^0,w,c
  4677  000D5A  2229               	addwfc	(??_isr_INTERRUPTS+1)^0,f,c
  4678  000D5C  0E03               	movlw	3
  4679  000D5E  6EE6               	movwf	postinc1,c
  4680  000D60  0E00               	movlw	0
  4681  000D62  6EE6               	movwf	postinc1,c
  4682  000D64  C037  FFE6         	movff	isr_INTERRUPTS@p_context,postinc1
  4683  000D68  C038  FFE6         	movff	isr_INTERRUPTS@p_context+1,postinc1
  4684  000D6C  ECC9  F00B         	call	___wmul	;wreg free
  4685  000D70  5008               	movf	btemp^0,w,c
  4686  000D72  2428               	addwf	??_isr_INTERRUPTS^0,w,c
  4687  000D74  6ED9               	movwf	fsr2l,c
  4688  000D76  5009               	movf	(btemp+1)^0,w,c
  4689  000D78  2029               	addwfc	(??_isr_INTERRUPTS+1)^0,w,c
  4690  000D7A  6EDA               	movwf	fsr2h,c
  4691  000D7C  CFFD FFDE          	movff	tosl,postinc2	;volatile
  4692  000D80  CFFE FFDE          	movff	tosh,postinc2	;volatile
  4693  000D84  CFFF FFDE          	movff	tosu,postinc2	;volatile
  4694  000D88  0006               	pop		;# 
  4695  000D8A                     __ccov39_end_blk25:
  4696                           	callstack 19
  4697  000D8A                     __ccov40_start_blk26:
  4698                           	callstack 19
  4699  000D8A  4A37               	infsnz	isr_INTERRUPTS@p_context^0,f,c
  4700  000D8C  2A38               	incf	(isr_INTERRUPTS@p_context+1)^0,f,c
  4701  000D8E                     __ccov40_end_blk26:
  4702                           	callstack 19
  4703  000D8E                     __ccov41_start_blk27:
  4704                           	callstack 19
  4705  000D8E  8A05               	bsf	(__ccovbit27_12/(0+8))^0,__ccovbit27_12& (0+7),c	;volatile
  4706  000D90  50FC               	movf	252,w,c	;volatile
  4707  000D92  A4D8               	btfss	status,2,c
  4708  000D94  EFCE  F006         	goto	i2u33_41
  4709  000D98  EFD0  F006         	goto	i2u33_40
  4710  000D9C                     i2u33_41:
  4711  000D9C  EF98  F006         	goto	i2l113
  4712  000DA0                     i2u33_40:
  4713  000DA0                     __ccov41_end_blk27:
  4714                           	callstack 19
  4715  000DA0                     __ccov42_start_blk29:
  4716                           	callstack 19
  4717  000DA0  8805               	bsf	(__ccovbit29_13/(0+8))^0,__ccovbit29_13& (0+7),c	;volatile
  4718  000DA2  0E74               	movlw	116
  4719  000DA4  6EE6               	movwf	postinc1,c
  4720  000DA6  0E00               	movlw	0
  4721  000DA8  6EE6               	movwf	postinc1,c
  4722  000DAA  C03D  FFE6         	movff	isr_INTERRUPTS@task_pos,postinc1
  4723  000DAE  C03E  FFE6         	movff	isr_INTERRUPTS@task_pos+1,postinc1
  4724  000DB2  ECC9  F00B         	call	___wmul	;wreg free
  4725  000DB6  0E27               	movlw	low (_ready_queue+111)
  4726  000DB8  2408               	addwf	btemp^0,w,c
  4727  000DBA  6ED9               	movwf	fsr2l,c
  4728  000DBC  0E02               	movlw	high (_ready_queue+111)
  4729  000DBE  2009               	addwfc	(btemp+1)^0,w,c
  4730  000DC0  6EDA               	movwf	fsr2h,c
  4731  000DC2  C037  FFDE         	movff	isr_INTERRUPTS@p_context,postinc2
  4732  000DC6  C038  FFDD         	movff	isr_INTERRUPTS@p_context+1,postdec2
  4733  000DCA  0E74               	movlw	116
  4734  000DCC  6EE6               	movwf	postinc1,c
  4735  000DCE  0E00               	movlw	0
  4736  000DD0  6EE6               	movwf	postinc1,c
  4737  000DD2  C03D  FFE6         	movff	isr_INTERRUPTS@task_pos,postinc1
  4738  000DD6  C03E  FFE6         	movff	isr_INTERRUPTS@task_pos+1,postinc1
  4739  000DDA  ECC9  F00B         	call	___wmul	;wreg free
  4740  000DDE  0E29               	movlw	low (_ready_queue+113)
  4741  000DE0  2408               	addwf	btemp^0,w,c
  4742  000DE2  6ED9               	movwf	fsr2l,c
  4743  000DE4  0E02               	movlw	high (_ready_queue+113)
  4744  000DE6  2009               	addwfc	(btemp+1)^0,w,c
  4745  000DE8  6EDA               	movwf	fsr2h,c
  4746  000DEA  0E00               	movlw	0
  4747  000DEC  6EDF               	movwf	indf2,c
  4748  000DEE                     __ccov42_end_blk29:
  4749                           	callstack 19
  4750  000DEE                     __ccov43_start_blk31:
  4751                           	callstack 19
  4752  000DEE                     i2l1326:
  4753  000DEE  8EF2               	bsf	242,7,c	;volatile
  4754  000DF0                     __ccov43_end_blk31:
  4755                           	callstack 19
  4756  000DF0                     __ccov44_start_blk33:
  4757                           	callstack 19
  4758  000DF0                     
  4759                           ;kernel.c: 38:          scheduler();
  4760  000DF0  EC5E  F00D         	call	_scheduler	;wreg free
  4761  000DF4                     __ccov44_end_blk33:
  4762                           	callstack 19
  4763  000DF4                     __ccov45_start_blk34:
  4764                           	callstack 19
  4765  000DF4                     
  4766                           ;kernel.c: 40:          { u_int task_pos = ready_queue.task_running;u_int p_context = re
      +                          ady_queue.tasks_list[task_pos].task_stack_real_size;do { INTCONbits.GIE = 0; STKPTR = 0;
      +                           if (ready_queue.tasks_list[task_pos].task_stack_real_size > 0) { BSR = ready_queue.task
      +                          s_list[task_pos].task_BSR_reg; WREG = ready_queue.tasks_list[task_pos].task_WORK_reg; ST
      +                          ATUS = ready_queue.tasks_list[task_pos].task_STATUS_reg; while (p_context) { p_context -
      +                          = 1; __asm("PUSH"); TOS = ready_queue.tasks_list[task_pos].task_CONTEXT[p_context]; } } 
      +                          else { __asm("PUSH"); TOS = ready_queue.tasks_list[task_pos].task_PTR; } ready_queue.tas
      +                          ks_list[task_pos].task_STATE = RUNNING; INTCONbits.GIE = 1; } while(0); };
  4767  000DF4  C3FE  F03F         	movff	_ready_queue+582,isr_INTERRUPTS@task_pos_623
  4768  000DF8  C3FF  F040         	movff	_ready_queue+583,isr_INTERRUPTS@task_pos_623+1
  4769  000DFC                     __ccov45_end_blk34:
  4770                           	callstack 19
  4771  000DFC                     __ccov46_start_blk35:
  4772                           	callstack 19
  4773  000DFC  0E74               	movlw	116
  4774  000DFE  6EE6               	movwf	postinc1,c
  4775  000E00  0E00               	movlw	0
  4776  000E02  6EE6               	movwf	postinc1,c
  4777  000E04  C03F  FFE6         	movff	isr_INTERRUPTS@task_pos_623,postinc1
  4778  000E08  C040  FFE6         	movff	isr_INTERRUPTS@task_pos_623+1,postinc1
  4779  000E0C  ECC9  F00B         	call	___wmul	;wreg free
  4780  000E10  0E27               	movlw	low (_ready_queue+111)
  4781  000E12  2408               	addwf	btemp^0,w,c
  4782  000E14  6ED9               	movwf	fsr2l,c
  4783  000E16  0E02               	movlw	high (_ready_queue+111)
  4784  000E18  2009               	addwfc	(btemp+1)^0,w,c
  4785  000E1A  6EDA               	movwf	fsr2h,c
  4786  000E1C  CFDE F039          	movff	postinc2,isr_INTERRUPTS@p_context_624
  4787  000E20  CFDD F03A          	movff	postdec2,isr_INTERRUPTS@p_context_624+1
  4788  000E24                     __ccov46_end_blk35:
  4789                           	callstack 19
  4790  000E24                     __ccov47_start_blk37:
  4791                           	callstack 19
  4792  000E24  9EF2               	bcf	242,7,c	;volatile
  4793  000E26                     __ccov47_end_blk37:
  4794                           	callstack 19
  4795  000E26                     __ccov48_start_blk38:
  4796                           	callstack 19
  4797  000E26  6AFC               	clrf	252,c	;volatile
  4798  000E28                     __ccov48_end_blk38:
  4799                           	callstack 19
  4800  000E28                     __ccov49_start_blk39:
  4801                           	callstack 19
  4802  000E28  0E74               	movlw	116
  4803  000E2A  6EE6               	movwf	postinc1,c
  4804  000E2C  0E00               	movlw	0
  4805  000E2E  6EE6               	movwf	postinc1,c
  4806  000E30  C03F  FFE6         	movff	isr_INTERRUPTS@task_pos_623,postinc1
  4807  000E34  C040  FFE6         	movff	isr_INTERRUPTS@task_pos_623+1,postinc1
  4808  000E38  ECC9  F00B         	call	___wmul	;wreg free
  4809  000E3C  0E27               	movlw	low (_ready_queue+111)
  4810  000E3E  2408               	addwf	btemp^0,w,c
  4811  000E40  6ED9               	movwf	fsr2l,c
  4812  000E42  0E02               	movlw	high (_ready_queue+111)
  4813  000E44  2009               	addwfc	(btemp+1)^0,w,c
  4814  000E46  6EDA               	movwf	fsr2h,c
  4815  000E48  50DE               	movf	postinc2,w,c
  4816  000E4A  10DE               	iorwf	postinc2,w,c
  4817  000E4C  B4D8               	btfsc	status,2,c
  4818  000E4E  EF2B  F007         	goto	i2u34_41
  4819  000E52  EF2D  F007         	goto	i2u34_40
  4820  000E56                     i2u34_41:
  4821  000E56  EFA3  F007         	goto	i2l117
  4822  000E5A                     i2u34_40:
  4823  000E5A                     __ccov49_end_blk39:
  4824                           	callstack 19
  4825  000E5A                     __ccov50_start_blk40:
  4826                           	callstack 19
  4827  000E5A  0E74               	movlw	116
  4828  000E5C  6EE6               	movwf	postinc1,c
  4829  000E5E  0E00               	movlw	0
  4830  000E60  6EE6               	movwf	postinc1,c
  4831  000E62  C03F  FFE6         	movff	isr_INTERRUPTS@task_pos_623,postinc1
  4832  000E66  C040  FFE6         	movff	isr_INTERRUPTS@task_pos_623+1,postinc1
  4833  000E6A  ECC9  F00B         	call	___wmul	;wreg free
  4834  000E6E  0E1E               	movlw	low (_ready_queue+102)
  4835  000E70  2408               	addwf	btemp^0,w,c
  4836  000E72  6ED9               	movwf	fsr2l,c
  4837  000E74  0E02               	movlw	high (_ready_queue+102)
  4838  000E76  2009               	addwfc	(btemp+1)^0,w,c
  4839  000E78  6EDA               	movwf	fsr2h,c
  4840  000E7A  50DF               	movf	indf2,w,c
  4841  000E7C  6EE0               	movwf	224,c	;volatile
  4842  000E7E  0E74               	movlw	116
  4843  000E80  6EE6               	movwf	postinc1,c
  4844  000E82  0E00               	movlw	0
  4845  000E84  6EE6               	movwf	postinc1,c
  4846  000E86  C03F  FFE6         	movff	isr_INTERRUPTS@task_pos_623,postinc1
  4847  000E8A  C040  FFE6         	movff	isr_INTERRUPTS@task_pos_623+1,postinc1
  4848  000E8E  ECC9  F00B         	call	___wmul	;wreg free
  4849  000E92  0E21               	movlw	low (_ready_queue+105)
  4850  000E94  2408               	addwf	btemp^0,w,c
  4851  000E96  6ED9               	movwf	fsr2l,c
  4852  000E98  0E02               	movlw	high (_ready_queue+105)
  4853  000E9A  2009               	addwfc	(btemp+1)^0,w,c
  4854  000E9C  6EDA               	movwf	fsr2h,c
  4855  000E9E  50DF               	movf	indf2,w,c
  4856  000EA0  6E28               	movwf	??_isr_INTERRUPTS^0,c
  4857  000EA2  5028               	movf	??_isr_INTERRUPTS^0,w,c
  4858  000EA4  0E74               	movlw	116
  4859  000EA6  6EE6               	movwf	postinc1,c
  4860  000EA8  0E00               	movlw	0
  4861  000EAA  6EE6               	movwf	postinc1,c
  4862  000EAC  C03F  FFE6         	movff	isr_INTERRUPTS@task_pos_623,postinc1
  4863  000EB0  C040  FFE6         	movff	isr_INTERRUPTS@task_pos_623+1,postinc1
  4864  000EB4  ECC9  F00B         	call	___wmul	;wreg free
  4865  000EB8  0E24               	movlw	low (_ready_queue+108)
  4866  000EBA  2408               	addwf	btemp^0,w,c
  4867  000EBC  6ED9               	movwf	fsr2l,c
  4868  000EBE  0E02               	movlw	high (_ready_queue+108)
  4869  000EC0  2009               	addwfc	(btemp+1)^0,w,c
  4870  000EC2  6EDA               	movwf	fsr2h,c
  4871  000EC4  50DF               	movf	indf2,w,c
  4872  000EC6  6ED8               	movwf	216,c	;volatile
  4873  000EC8  EF97  F007         	goto	i2l1346
  4874  000ECC                     __ccov50_end_blk40:
  4875                           	callstack 19
  4876  000ECC                     __ccov51_start_blk42:
  4877                           	callstack 19
  4878  000ECC                     i2l1342:
  4879  000ECC  0639               	decf	isr_INTERRUPTS@p_context_624^0,f,c
  4880  000ECE  A0D8               	btfss	status,0,c
  4881  000ED0  063A               	decf	(isr_INTERRUPTS@p_context_624+1)^0,f,c
  4882  000ED2  0005               	push		;# 
  4883  000ED4                     __ccov51_end_blk42:
  4884                           	callstack 19
  4885  000ED4                     __ccov52_start_blk43:
  4886                           	callstack 19
  4887  000ED4  8605               	bsf	(__ccovbit43_14/(0+8))^0,__ccovbit43_14& (0+7),c	;volatile
  4888  000ED6  0E74               	movlw	116
  4889  000ED8  6EE6               	movwf	postinc1,c
  4890  000EDA  0E00               	movlw	0
  4891  000EDC  6EE6               	movwf	postinc1,c
  4892  000EDE  C03F  FFE6         	movff	isr_INTERRUPTS@task_pos_623,postinc1
  4893  000EE2  C040  FFE6         	movff	isr_INTERRUPTS@task_pos_623+1,postinc1
  4894  000EE6  ECC9  F00B         	call	___wmul	;wreg free
  4895  000EEA  0EB8               	movlw	low _ready_queue
  4896  000EEC  6E28               	movwf	??_isr_INTERRUPTS^0,c
  4897  000EEE  0E01               	movlw	high _ready_queue
  4898  000EF0  6E29               	movwf	(??_isr_INTERRUPTS+1)^0,c
  4899  000EF2  0E06               	movlw	6
  4900  000EF4  2628               	addwf	??_isr_INTERRUPTS^0,f,c
  4901  000EF6  0E00               	movlw	0
  4902  000EF8  2229               	addwfc	(??_isr_INTERRUPTS+1)^0,f,c
  4903  000EFA  5008               	movf	btemp^0,w,c
  4904  000EFC  2628               	addwf	??_isr_INTERRUPTS^0,f,c
  4905  000EFE  5009               	movf	(btemp+1)^0,w,c
  4906  000F00  2229               	addwfc	(??_isr_INTERRUPTS+1)^0,f,c
  4907  000F02  0E03               	movlw	3
  4908  000F04  6EE6               	movwf	postinc1,c
  4909  000F06  0E00               	movlw	0
  4910  000F08  6EE6               	movwf	postinc1,c
  4911  000F0A  C039  FFE6         	movff	isr_INTERRUPTS@p_context_624,postinc1
  4912  000F0E  C03A  FFE6         	movff	isr_INTERRUPTS@p_context_624+1,postinc1
  4913  000F12  ECC9  F00B         	call	___wmul	;wreg free
  4914  000F16  5008               	movf	btemp^0,w,c
  4915  000F18  2428               	addwf	??_isr_INTERRUPTS^0,w,c
  4916  000F1A  6ED9               	movwf	fsr2l,c
  4917  000F1C  5009               	movf	(btemp+1)^0,w,c
  4918  000F1E  2029               	addwfc	(??_isr_INTERRUPTS+1)^0,w,c
  4919  000F20  6EDA               	movwf	fsr2h,c
  4920  000F22  CFDE FFFD          	movff	postinc2,tosl	;volatile
  4921  000F26  CFDE FFFE          	movff	postinc2,tosh	;volatile
  4922  000F2A  CFDD FFFF          	movff	postdec2,tosu	;volatile
  4923  000F2E                     __ccov52_end_blk43:
  4924                           	callstack 19
  4925  000F2E                     __ccov53_start_blk45:
  4926                           	callstack 19
  4927  000F2E                     i2l1346:
  4928  000F2E  8405               	bsf	(__ccovbit45_15/(0+8))^0,__ccovbit45_15& (0+7),c	;volatile
  4929  000F30  5039               	movf	isr_INTERRUPTS@p_context_624^0,w,c
  4930  000F32  103A               	iorwf	(isr_INTERRUPTS@p_context_624+1)^0,w,c
  4931  000F34  A4D8               	btfss	status,2,c
  4932  000F36  EF9F  F007         	goto	i2u35_41
  4933  000F3A  EFA1  F007         	goto	i2u35_40
  4934  000F3E                     i2u35_41:
  4935  000F3E  EF66  F007         	goto	i2l1342
  4936  000F42                     i2u35_40:
  4937  000F42  EFBE  F007         	goto	i2l121
  4938  000F46                     __ccov53_end_blk45:
  4939                           	callstack 19
  4940  000F46                     __ccov54_start_blk47:
  4941                           	callstack 19
  4942  000F46                     i2l117:
  4943  000F46  0005               	push		;# 
  4944  000F48                     __ccov54_end_blk47:
  4945                           	callstack 19
  4946  000F48                     __ccov55_start_blk48:
  4947                           	callstack 19
  4948  000F48  8205               	bsf	(__ccovbit48_16/(0+8))^0,__ccovbit48_16& (0+7),c	;volatile
  4949  000F4A  0E74               	movlw	116
  4950  000F4C  6EE6               	movwf	postinc1,c
  4951  000F4E  0E00               	movlw	0
  4952  000F50  6EE6               	movwf	postinc1,c
  4953  000F52  C03F  FFE6         	movff	isr_INTERRUPTS@task_pos_623,postinc1
  4954  000F56  C040  FFE6         	movff	isr_INTERRUPTS@task_pos_623+1,postinc1
  4955  000F5A  ECC9  F00B         	call	___wmul	;wreg free
  4956  000F5E  0EBC               	movlw	low (_ready_queue+4)
  4957  000F60  2408               	addwf	btemp^0,w,c
  4958  000F62  6ED9               	movwf	fsr2l,c
  4959  000F64  0E01               	movlw	high (_ready_queue+4)
  4960  000F66  2009               	addwfc	(btemp+1)^0,w,c
  4961  000F68  6EDA               	movwf	fsr2h,c
  4962  000F6A  CFDE F028          	movff	postinc2,??_isr_INTERRUPTS
  4963  000F6E  CFDD F029          	movff	postdec2,??_isr_INTERRUPTS+1
  4964  000F72  C028  FFFD         	movff	??_isr_INTERRUPTS,tosl	;volatile
  4965  000F76  C029  FFFE         	movff	??_isr_INTERRUPTS+1,tosh	;volatile
  4966  000F7A  6AFF               	clrf	255,c	;volatile
  4967  000F7C                     __ccov55_end_blk48:
  4968                           	callstack 19
  4969  000F7C                     __ccov56_start_blk49:
  4970                           	callstack 19
  4971  000F7C                     i2l121:
  4972  000F7C  0E74               	movlw	116
  4973  000F7E  6EE6               	movwf	postinc1,c
  4974  000F80  0E00               	movlw	0
  4975  000F82  6EE6               	movwf	postinc1,c
  4976  000F84  C03F  FFE6         	movff	isr_INTERRUPTS@task_pos_623,postinc1
  4977  000F88  C040  FFE6         	movff	isr_INTERRUPTS@task_pos_623+1,postinc1
  4978  000F8C  ECC9  F00B         	call	___wmul	;wreg free
  4979  000F90  0E29               	movlw	low (_ready_queue+113)
  4980  000F92  2408               	addwf	btemp^0,w,c
  4981  000F94  6ED9               	movwf	fsr2l,c
  4982  000F96  0E02               	movlw	high (_ready_queue+113)
  4983  000F98  2009               	addwfc	(btemp+1)^0,w,c
  4984  000F9A  6EDA               	movwf	fsr2h,c
  4985  000F9C  0E01               	movlw	1
  4986  000F9E  6EDF               	movwf	indf2,c
  4987  000FA0                     __ccov56_end_blk49:
  4988                           	callstack 19
  4989  000FA0                     __ccov57_start_blk50:
  4990                           	callstack 19
  4991  000FA0  8005               	bsf	(__ccovbit50_17/(0+8))^0,__ccovbit50_17& (0+7),c	;volatile
  4992  000FA2  8EF2               	bsf	242,7,c	;volatile
  4993  000FA4                     __ccov57_end_blk50:
  4994                           	callstack 19
  4995  000FA4                     __ccov58_start_blk55:
  4996                           	callstack 19
  4997  000FA4                     i2l123:
  4998  000FA4  8E04               	bsf	(__ccovbit55_18/(0+8))^0,__ccovbit55_18& (0+7),c	;volatile
  4999  000FA6  C036  F013         	movff	??_isr_INTERRUPTS+14,btemp+11
  5000  000FAA  C035  F012         	movff	??_isr_INTERRUPTS+13,btemp+10
  5001  000FAE  C034  F011         	movff	??_isr_INTERRUPTS+12,btemp+9
  5002  000FB2  C033  F010         	movff	??_isr_INTERRUPTS+11,btemp+8
  5003  000FB6  C032  F009         	movff	??_isr_INTERRUPTS+10,btemp+1
  5004  000FBA  C031  F008         	movff	??_isr_INTERRUPTS+9,btemp
  5005  000FBE  C030  FFF4         	movff	??_isr_INTERRUPTS+8,prodh
  5006  000FC2  C02F  FFF3         	movff	??_isr_INTERRUPTS+7,prodl
  5007  000FC6  C02E  FFDA         	movff	??_isr_INTERRUPTS+6,fsr2h
  5008  000FCA  C02D  FFD9         	movff	??_isr_INTERRUPTS+5,fsr2l
  5009  000FCE  C02C  FFE2         	movff	??_isr_INTERRUPTS+4,fsr1h
  5010  000FD2  C02B  FFE1         	movff	??_isr_INTERRUPTS+3,fsr1l
  5011  000FD6  0011               	retfie		f
  5012  000FD8                     __end_of_isr_INTERRUPTS:
  5013                           	callstack 0
  5014  0000                     
  5015 ;; *************** function ___wmul *****************
  5016 ;; Defined at:
  5017 ;;		line 15 in file "C:\Program Files\Microchip\xc8\v2.20\pic\sources\c99\common\Umul16.c"
  5018 ;; Parameters:    Size  Location     Type
  5019 ;;  multiplier      2  [STACK] unsigned int 
  5020 ;;  multiplicand    2  [STACK] unsigned int 
  5021 ;; Auto vars:     Size  Location     Type
  5022 ;;  product         2  [STACK] unsigned int 
  5023 ;; Return value:  Size  Location     Type
  5024 ;;                  2  [STACK] unsigned int 
  5025 ;; Registers used:
  5026 ;;		wreg, fsr1l, fsr1h, fsr2l, fsr2h, status,2, status,0, btemp, btemp+1, btemp+11, prodl, prodh
  5027 ;; Tracked objects:
  5028 ;;		On entry : 0/0
  5029 ;;		On exit  : 0/0
  5030 ;;		Unchanged: 0/0
  5031 ;; Data sizes:     COMRAM   BANK0   BANK1   BANK2   BANK3   BANK4   BANK5
  5032 ;;      Params:         0       0       0       0       0       0       0
  5033 ;;      Locals:         0       0       0       0       0       0       0
  5034 ;;      Temps:          0       0       0       0       0       0       0
  5035 ;;      Totals:         0       0       0       0       0       0       0
  5036 ;;Total ram usage:        0 bytes
  5037 ;; Hardware stack levels used:    1
  5038 ;; This function calls:
  5039 ;;		Nothing
  5040 ;; This function is called by:
  5041 ;;		_isr_INTERRUPTS
  5042 ;; This function uses a reentrant model
  5043 ;;
  5044                           
  5045                           	psect	text17
  5046  001792                     __ptext17:
  5047                           	callstack 0
  5048  001792                     ___wmul:
  5049                           	callstack 0
  5050                           
  5051                           ; autosize = 2, savesize = 0, parsavesize = 0, tempsize = 0 parsize = 4, argsize = 4 var
      +                          gsize = 0, retsize = 0 argfudge = 0
  5052  001792  52E6               	movf	postinc1,f,c
  5053  001794  52E6               	movf	postinc1,f,c
  5054  001796                     
  5055                           ;stkvar	_multiplicand @ sp[(-2)+-4]
  5056  001796  0EFA               	movlw	-6
  5057  001798  CFE3 F013          	movff	plusw1,btemp+11
  5058                           
  5059                           ;stkvar	_multiplier @ sp[(-2)+-2]
  5060  00179C  0EFC               	movlw	-4
  5061  00179E  50E3               	movf	plusw1,w,c
  5062  0017A0  0213               	mulwf	(btemp+11)^0,c
  5063                           
  5064                           ;stkvar	_product @ sp[(-2)+0]
  5065  0017A2  0EFE               	movlw	-2
  5066  0017A4  CFF3 FFE3          	movff	prodl,plusw1
  5067  0017A8  0EFF               	movlw	-1
  5068  0017AA  CFF4 FFE3          	movff	prodh,plusw1
  5069  0017AE                     
  5070                           ;stkvar	_multiplicand @ sp[(-2)+-4]
  5071  0017AE  0EFB               	movlw	251
  5072  0017B0  24E1               	addwf	fsr1l,w,c
  5073  0017B2  6ED9               	movwf	fsr2l,c
  5074  0017B4  0EFF               	movlw	255
  5075  0017B6  20E2               	addwfc	fsr1h,w,c
  5076  0017B8  6EDA               	movwf	fsr2h,c
  5077  0017BA  50DF               	movf	indf2,w,c
  5078  0017BC  6E13               	movwf	(btemp+11)^0,c
  5079                           
  5080                           ;stkvar	_multiplier @ sp[(-2)+-2]
  5081  0017BE  0EFC               	movlw	-4
  5082  0017C0  50E3               	movf	plusw1,w,c
  5083  0017C2  0213               	mulwf	(btemp+11)^0,c
  5084  0017C4  CFF3 FFF4          	movff	prodl,prodh
  5085  0017C8  6AF3               	clrf	243,c
  5086                           
  5087                           ;stkvar	_product @ sp[(-2)+0]
  5088  0017CA  50E1               	movf	fsr1l,w,c
  5089  0017CC  0FFE               	addlw	-2
  5090  0017CE  6ED9               	movwf	fsr2l,c
  5091  0017D0  50E2               	movf	fsr1h,w,c
  5092  0017D2  6EDA               	movwf	fsr2h,c
  5093  0017D4  0EFF               	movlw	255
  5094  0017D6  22DA               	addwfc	fsr2h,f,c
  5095  0017D8  50F3               	movf	243,w,c
  5096  0017DA  26DE               	addwf	postinc2,f,c
  5097  0017DC  50F4               	movf	244,w,c
  5098  0017DE  22DD               	addwfc	postdec2,f,c
  5099  0017E0                     
  5100                           ;stkvar	_multiplicand @ sp[(-2)+-4]
  5101  0017E0  0EFA               	movlw	-6
  5102  0017E2  CFE3 F013          	movff	plusw1,btemp+11
  5103                           
  5104                           ;stkvar	_multiplier @ sp[(-2)+-2]
  5105  0017E6  0EFD               	movlw	253
  5106  0017E8  24E1               	addwf	fsr1l,w,c
  5107  0017EA  6ED9               	movwf	fsr2l,c
  5108  0017EC  0EFF               	movlw	255
  5109  0017EE  20E2               	addwfc	fsr1h,w,c
  5110  0017F0  6EDA               	movwf	fsr2h,c
  5111  0017F2  50DF               	movf	indf2,w,c
  5112  0017F4  0213               	mulwf	(btemp+11)^0,c
  5113  0017F6  CFF3 FFF4          	movff	prodl,prodh
  5114  0017FA  6AF3               	clrf	243,c
  5115                           
  5116                           ;stkvar	_product @ sp[(-2)+0]
  5117  0017FC  50E1               	movf	fsr1l,w,c
  5118  0017FE  0FFE               	addlw	-2
  5119  001800  6ED9               	movwf	fsr2l,c
  5120  001802  50E2               	movf	fsr1h,w,c
  5121  001804  6EDA               	movwf	fsr2h,c
  5122  001806  0EFF               	movlw	255
  5123  001808  22DA               	addwfc	fsr2h,f,c
  5124  00180A  50F3               	movf	243,w,c
  5125  00180C  26DE               	addwf	postinc2,f,c
  5126  00180E  50F4               	movf	244,w,c
  5127  001810  22DD               	addwfc	postdec2,f,c
  5128  001812                     
  5129                           ;stkvar	_product @ sp[(-2)+0]
  5130  001812  0EFE               	movlw	-2
  5131  001814  CFE3 F008          	movff	plusw1,btemp
  5132  001818  0EFF               	movlw	-1
  5133  00181A  CFE3 F009          	movff	plusw1,btemp+1
  5134  00181E                     
  5135                           ; ___wmul: autosize = 2, savesize = 0, parsavesize = 0, tempsize = 0 parsize = 4, argsiz
      +                          e = 4, vargsize = 0
  5136  00181E  0EFA               	movlw	250
  5137  001820  26E1               	addwf	fsr1l,f,c
  5138  001822  0EFF               	movlw	255
  5139  001824  22E2               	addwfc	fsr1h,f,c
  5140  001826  0012               	return		;funcret
  5141  001828                     __end_of___wmul:
  5142                           	callstack 0
  5143                           
  5144                           ;
  5145                           ; Code-coverage Info Header
  5146                           ;
  5147                           
  5148                           	psect	codecov_info_hdr
  5149  000000                     __pcodecov_info_hdr:
  5150                           	callstack 0
  5151  000000  10                 	db	16	; SIZE
  5152  000001  00000001           	ddw	1	; VERSION
  5153  000005  01                 	db	1	; POINTSIZE
  5154  000006  08                 	db	8	; UNITSIZE
  5155  000007  01                 	db	1	; FLAGS=SET
  5156  000008  00000000           	ddw	0	; Reserved
  5157  00000C  00000000           	ddw	0	; Reserved
  5158                           
  5159                           ;
  5160                           ; Code-coverage Info
  5161                           ;
  5162                           
  5163                           	psect	codecov_info
  5164  000000                     __pcodecov_info:
  5165                           	callstack 0
  5166                           
  5167                           ; Function: main, coverage: 3,2,1,0
  5168  000000  00000000           	ddw	0	; CC_ADDR_SPACE=Data
  5169  000004  00000007           	ddw	__ccovbit3_1/(0+8)	; CC_ADDR
  5170  000008  00000001           	ddw	1	; NUM_POINTS
  5171  00000C  00000000           	ddw	__ccovbit3_1& (0+7)	; OFFSET
  5172  000010  00000000           	ddw	0	; Reserved
  5173  000014  FFFFFFFF           	ddw	4294967295	; RANGE_SPACE=restricted
  5174  000018  00000003           	ddw	3	; NUM_RANGES
  5175  00001C  000018FC           	ddw	__ccov4_start_blk3	; block 3 START_ADDR
  5176  000020  00001902           	ddw	__ccov4_end_blk3	; block 3 END_ADDR
  5177  000024  000018F8           	ddw	__ccov2_start_blk1	; block 1 START_ADDR
  5178  000028  000018FC           	ddw	__ccov2_end_blk1	; block 1 END_ADDR
  5179  00002C  000018A0           	ddw	_main	; block 0 START_ADDR
  5180  000030  000018F8           	ddw	__ccov1_end_blk0	; block 0 END_ADDR
  5181                           
  5182                           ; Function: config_tasks, coverage: 2,1,0
  5183  000034  00000000           	ddw	0	; CC_ADDR_SPACE=Data
  5184  000038  00000006           	ddw	__ccovbit2_2/(0+8)	; CC_ADDR
  5185  00003C  00000001           	ddw	1	; NUM_POINTS
  5186  000040  00000007           	ddw	__ccovbit2_2& (0+7)	; OFFSET
  5187  000044  00000000           	ddw	0	; Reserved
  5188  000048  FFFFFFFF           	ddw	4294967295	; RANGE_SPACE=restricted
  5189  00004C  00000003           	ddw	3	; NUM_RANGES
  5190  000050  00001AA8           	ddw	__ccov7_start_blk2	; block 2 START_ADDR
  5191  000054  00001AAC           	ddw	__end_of_config_tasks	; block 2 END_ADDR
  5192  000058  00001A9C           	ddw	__ccov6_start_blk1	; block 1 START_ADDR
  5193  00005C  00001AA8           	ddw	__ccov6_end_blk1	; block 1 END_ADDR
  5194  000060  00001A96           	ddw	_config_tasks	; block 0 START_ADDR
  5195  000064  00001A9C           	ddw	__ccov5_end_blk0	; block 0 END_ADDR
  5196                           
  5197                           ; Function: task_1, coverage: 4,3,2,1,0
  5198  000068  00000000           	ddw	0	; CC_ADDR_SPACE=Data
  5199  00006C  00000006           	ddw	__ccovbit4_3/(0+8)	; CC_ADDR
  5200  000070  00000001           	ddw	1	; NUM_POINTS
  5201  000074  00000006           	ddw	__ccovbit4_3& (0+7)	; OFFSET
  5202  000078  00000000           	ddw	0	; Reserved
  5203  00007C  FFFFFFFF           	ddw	4294967295	; RANGE_SPACE=restricted
  5204  000080  00000004           	ddw	4	; NUM_RANGES
  5205  000084  00001996           	ddw	__ccov12_start_blk4	; block 4 START_ADDR
  5206  000088  000019A8           	ddw	__ccov12_end_blk4	; block 4 END_ADDR
  5207  00008C  0000198A           	ddw	__ccov11_start_blk3	; block 3 START_ADDR
  5208  000090  00001996           	ddw	__ccov11_end_blk3	; block 3 END_ADDR
  5209  000094  0000197E           	ddw	__ccov10_start_blk2	; block 2 START_ADDR
  5210  000098  0000198A           	ddw	__ccov10_end_blk2	; block 2 END_ADDR
  5211  00009C  0000195E           	ddw	_task_1	; block 1 START_ADDR
  5212  0000A0  0000197E           	ddw	__ccov9_end_blk1	; block 1 END_ADDR
  5213                           
  5214                           ; Function: task_2, coverage: 3,2,1,0
  5215  0000A4  00000000           	ddw	0	; CC_ADDR_SPACE=Data
  5216  0000A8  00000006           	ddw	__ccovbit3_4/(0+8)	; CC_ADDR
  5217  0000AC  00000001           	ddw	1	; NUM_POINTS
  5218  0000B0  00000005           	ddw	__ccovbit3_4& (0+7)	; OFFSET
  5219  0000B4  00000000           	ddw	0	; Reserved
  5220  0000B8  FFFFFFFF           	ddw	4294967295	; RANGE_SPACE=restricted
  5221  0000BC  00000003           	ddw	3	; NUM_RANGES
  5222  0000C0  00001A22           	ddw	__ccov16_start_blk3	; block 3 START_ADDR
  5223  0000C4  00001A34           	ddw	__ccov16_end_blk3	; block 3 END_ADDR
  5224  0000C8  00001A00           	ddw	__ccov15_start_blk2	; block 2 START_ADDR
  5225  0000CC  00001A22           	ddw	__ccov15_end_blk2	; block 2 END_ADDR
  5226  0000D0  000019F4           	ddw	_task_2	; block 1 START_ADDR
  5227  0000D4  00001A00           	ddw	__ccov14_end_blk1	; block 1 END_ADDR
  5228                           
  5229                           ; Function: task_3, coverage: 2,1,0
  5230  0000D8  00000000           	ddw	0	; CC_ADDR_SPACE=Data
  5231  0000DC  00000006           	ddw	__ccovbit2_5/(0+8)	; CC_ADDR
  5232  0000E0  00000001           	ddw	1	; NUM_POINTS
  5233  0000E4  00000004           	ddw	__ccovbit2_5& (0+7)	; OFFSET
  5234  0000E8  00000000           	ddw	0	; Reserved
  5235  0000EC  FFFFFFFF           	ddw	4294967295	; RANGE_SPACE=restricted
  5236  0000F0  00000002           	ddw	2	; NUM_RANGES
  5237  0000F4  00001A5A           	ddw	__ccov19_start_blk2	; block 2 START_ADDR
  5238  0000F8  00001A6C           	ddw	__ccov19_end_blk2	; block 2 END_ADDR
  5239  0000FC  00001A36           	ddw	_task_3	; block 1 START_ADDR
  5240  000100  00001A5A           	ddw	__ccov18_end_blk1	; block 1 END_ADDR
  5241                           
  5242                           ; Function: isr_INTERRUPTS, coverage: 1,0
  5243  000104  00000000           	ddw	0	; CC_ADDR_SPACE=Data
  5244  000108  00000006           	ddw	__ccovbit1_6/(0+8)	; CC_ADDR
  5245  00010C  00000001           	ddw	1	; NUM_POINTS
  5246  000110  00000003           	ddw	__ccovbit1_6& (0+7)	; OFFSET
  5247  000114  00000000           	ddw	0	; Reserved
  5248  000118  FFFFFFFF           	ddw	4294967295	; RANGE_SPACE=restricted
  5249  00011C  00000002           	ddw	2	; NUM_RANGES
  5250  000120  00000B3A           	ddw	__ccov21_start_blk1	; block 1 START_ADDR
  5251  000124  00000B42           	ddw	__ccov21_end_blk1	; block 1 END_ADDR
  5252  000128  00000AF6           	ddw	int_func	; block 0 START_ADDR
  5253  00012C  00000B3A           	ddw	__ccov20_end_blk0	; block 0 END_ADDR
  5254                           
  5255                           ; Function: isr_INTERRUPTS, coverage: 2,0
  5256  000130  00000000           	ddw	0	; CC_ADDR_SPACE=Data
  5257  000134  00000006           	ddw	__ccovbit2_7/(0+8)	; CC_ADDR
  5258  000138  00000001           	ddw	1	; NUM_POINTS
  5259  00013C  00000002           	ddw	__ccovbit2_7& (0+7)	; OFFSET
  5260  000140  00000000           	ddw	0	; Reserved
  5261  000144  FFFFFFFF           	ddw	4294967295	; RANGE_SPACE=restricted
  5262  000148  00000002           	ddw	2	; NUM_RANGES
  5263  00014C  00000B42           	ddw	__ccov22_start_blk2	; block 2 START_ADDR
  5264  000150  00000B52           	ddw	__ccov22_end_blk2	; block 2 END_ADDR
  5265  000154  00000AF6           	ddw	int_func	; block 0 START_ADDR
  5266  000158  00000B3A           	ddw	__ccov20_end_blk0	; block 0 END_ADDR
  5267                           
  5268                           ; Function: isr_INTERRUPTS, coverage: 8,7,14,5,4,3,2,0
  5269  00015C  00000000           	ddw	0	; CC_ADDR_SPACE=Data
  5270  000160  00000006           	ddw	__ccovbit8_8/(0+8)	; CC_ADDR
  5271  000164  00000001           	ddw	1	; NUM_POINTS
  5272  000168  00000001           	ddw	__ccovbit8_8& (0+7)	; OFFSET
  5273  00016C  00000000           	ddw	0	; Reserved
  5274  000170  FFFFFFFF           	ddw	4294967295	; RANGE_SPACE=restricted
  5275  000174  00000008           	ddw	8	; NUM_RANGES
  5276  000178  00000B96           	ddw	__ccov27_start_blk8	; block 8 START_ADDR
  5277  00017C  00000BF0           	ddw	__ccov27_end_blk8	; block 8 END_ADDR
  5278  000180  00000B64           	ddw	__ccov26_start_blk7	; block 7 START_ADDR
  5279  000184  00000B96           	ddw	__ccov26_end_blk7	; block 7 END_ADDR
  5280  000188  00000C1C           	ddw	__ccov30_start_blk14	; block 14 START_ADDR
  5281  00018C  00000C36           	ddw	__ccov30_end_blk14	; block 14 END_ADDR
  5282  000190  00000B5C           	ddw	__ccov25_start_blk5	; block 5 START_ADDR
  5283  000194  00000B64           	ddw	__ccov25_end_blk5	; block 5 END_ADDR
  5284  000198  00000B54           	ddw	__ccov24_start_blk4	; block 4 START_ADDR
  5285  00019C  00000B5C           	ddw	__ccov24_end_blk4	; block 4 END_ADDR
  5286  0001A0  00000B52           	ddw	__ccov23_start_blk3	; block 3 START_ADDR
  5287  0001A4  00000B54           	ddw	__ccov23_end_blk3	; block 3 END_ADDR
  5288  0001A8  00000B42           	ddw	__ccov22_start_blk2	; block 2 START_ADDR
  5289  0001AC  00000B52           	ddw	__ccov22_end_blk2	; block 2 END_ADDR
  5290  0001B0  00000AF6           	ddw	int_func	; block 0 START_ADDR
  5291  0001B4  00000B3A           	ddw	__ccov20_end_blk0	; block 0 END_ADDR
  5292                           
  5293                           ; Function: isr_INTERRUPTS, coverage: 9,8,7,14,5,4,3,2,0
  5294  0001B8  00000000           	ddw	0	; CC_ADDR_SPACE=Data
  5295  0001BC  00000006           	ddw	__ccovbit9_9/(0+8)	; CC_ADDR
  5296  0001C0  00000001           	ddw	1	; NUM_POINTS
  5297  0001C4  00000000           	ddw	__ccovbit9_9& (0+7)	; OFFSET
  5298  0001C8  00000000           	ddw	0	; Reserved
  5299  0001CC  FFFFFFFF           	ddw	4294967295	; RANGE_SPACE=restricted
  5300  0001D0  00000009           	ddw	9	; NUM_RANGES
  5301  0001D4  00000BF0           	ddw	__ccov28_start_blk9	; block 9 START_ADDR
  5302  0001D8  00000C16           	ddw	__ccov28_end_blk9	; block 9 END_ADDR
  5303  0001DC  00000B96           	ddw	__ccov27_start_blk8	; block 8 START_ADDR
  5304  0001E0  00000BF0           	ddw	__ccov27_end_blk8	; block 8 END_ADDR
  5305  0001E4  00000B64           	ddw	__ccov26_start_blk7	; block 7 START_ADDR
  5306  0001E8  00000B96           	ddw	__ccov26_end_blk7	; block 7 END_ADDR
  5307  0001EC  00000C1C           	ddw	__ccov30_start_blk14	; block 14 START_ADDR
  5308  0001F0  00000C36           	ddw	__ccov30_end_blk14	; block 14 END_ADDR
  5309  0001F4  00000B5C           	ddw	__ccov25_start_blk5	; block 5 START_ADDR
  5310  0001F8  00000B64           	ddw	__ccov25_end_blk5	; block 5 END_ADDR
  5311  0001FC  00000B54           	ddw	__ccov24_start_blk4	; block 4 START_ADDR
  5312  000200  00000B5C           	ddw	__ccov24_end_blk4	; block 4 END_ADDR
  5313  000204  00000B52           	ddw	__ccov23_start_blk3	; block 3 START_ADDR
  5314  000208  00000B54           	ddw	__ccov23_end_blk3	; block 3 END_ADDR
  5315  00020C  00000B42           	ddw	__ccov22_start_blk2	; block 2 START_ADDR
  5316  000210  00000B52           	ddw	__ccov22_end_blk2	; block 2 END_ADDR
  5317  000214  00000AF6           	ddw	int_func	; block 0 START_ADDR
  5318  000218  00000B3A           	ddw	__ccov20_end_blk0	; block 0 END_ADDR
  5319                           
  5320                           ; Function: isr_INTERRUPTS, coverage: 12,7,14,5,4,3,2,0
  5321  00021C  00000000           	ddw	0	; CC_ADDR_SPACE=Data
  5322  000220  00000005           	ddw	__ccovbit12_10/(0+8)	; CC_ADDR
  5323  000224  00000001           	ddw	1	; NUM_POINTS
  5324  000228  00000007           	ddw	__ccovbit12_10& (0+7)	; OFFSET
  5325  00022C  00000000           	ddw	0	; Reserved
  5326  000230  FFFFFFFF           	ddw	4294967295	; RANGE_SPACE=restricted
  5327  000234  00000008           	ddw	8	; NUM_RANGES
  5328  000238  00000C16           	ddw	__ccov29_start_blk12	; block 12 START_ADDR
  5329  00023C  00000C1C           	ddw	__ccov29_end_blk12	; block 12 END_ADDR
  5330  000240  00000B64           	ddw	__ccov26_start_blk7	; block 7 START_ADDR
  5331  000244  00000B96           	ddw	__ccov26_end_blk7	; block 7 END_ADDR
  5332  000248  00000C1C           	ddw	__ccov30_start_blk14	; block 14 START_ADDR
  5333  00024C  00000C36           	ddw	__ccov30_end_blk14	; block 14 END_ADDR
  5334  000250  00000B5C           	ddw	__ccov25_start_blk5	; block 5 START_ADDR
  5335  000254  00000B64           	ddw	__ccov25_end_blk5	; block 5 END_ADDR
  5336  000258  00000B54           	ddw	__ccov24_start_blk4	; block 4 START_ADDR
  5337  00025C  00000B5C           	ddw	__ccov24_end_blk4	; block 4 END_ADDR
  5338  000260  00000B52           	ddw	__ccov23_start_blk3	; block 3 START_ADDR
  5339  000264  00000B54           	ddw	__ccov23_end_blk3	; block 3 END_ADDR
  5340  000268  00000B42           	ddw	__ccov22_start_blk2	; block 2 START_ADDR
  5341  00026C  00000B52           	ddw	__ccov22_end_blk2	; block 2 END_ADDR
  5342  000270  00000AF6           	ddw	int_func	; block 0 START_ADDR
  5343  000274  00000B3A           	ddw	__ccov20_end_blk0	; block 0 END_ADDR
  5344                           
  5345                           ; Function: isr_INTERRUPTS, coverage: 17,16,14,5,4,3,2,0
  5346  000278  00000000           	ddw	0	; CC_ADDR_SPACE=Data
  5347  00027C  00000005           	ddw	__ccovbit17_11/(0+8)	; CC_ADDR
  5348  000280  00000001           	ddw	1	; NUM_POINTS
  5349  000284  00000006           	ddw	__ccovbit17_11& (0+7)	; OFFSET
  5350  000288  00000000           	ddw	0	; Reserved
  5351  00028C  FFFFFFFF           	ddw	4294967295	; RANGE_SPACE=restricted
  5352  000290  00000008           	ddw	8	; NUM_RANGES
  5353  000294  00000C3C           	ddw	__ccov32_start_blk17	; block 17 START_ADDR
  5354  000298  00000C50           	ddw	__ccov32_end_blk17	; block 17 END_ADDR
  5355  00029C  00000C36           	ddw	__ccov31_start_blk16	; block 16 START_ADDR
  5356  0002A0  00000C3C           	ddw	__ccov31_end_blk16	; block 16 END_ADDR
  5357  0002A4  00000C1C           	ddw	__ccov30_start_blk14	; block 14 START_ADDR
  5358  0002A8  00000C36           	ddw	__ccov30_end_blk14	; block 14 END_ADDR
  5359  0002AC  00000B5C           	ddw	__ccov25_start_blk5	; block 5 START_ADDR
  5360  0002B0  00000B64           	ddw	__ccov25_end_blk5	; block 5 END_ADDR
  5361  0002B4  00000B54           	ddw	__ccov24_start_blk4	; block 4 START_ADDR
  5362  0002B8  00000B5C           	ddw	__ccov24_end_blk4	; block 4 END_ADDR
  5363  0002BC  00000B52           	ddw	__ccov23_start_blk3	; block 3 START_ADDR
  5364  0002C0  00000B54           	ddw	__ccov23_end_blk3	; block 3 END_ADDR
  5365  0002C4  00000B42           	ddw	__ccov22_start_blk2	; block 2 START_ADDR
  5366  0002C8  00000B52           	ddw	__ccov22_end_blk2	; block 2 END_ADDR
  5367  0002CC  00000AF6           	ddw	int_func	; block 0 START_ADDR
  5368  0002D0  00000B3A           	ddw	__ccov20_end_blk0	; block 0 END_ADDR
  5369                           
  5370                           ; Function: isr_INTERRUPTS, coverage: 27,26,25,24,23,22,20,19,18,17,16,14,5,4,3,2,0
  5371  0002D4  00000000           	ddw	0	; CC_ADDR_SPACE=Data
  5372  0002D8  00000005           	ddw	__ccovbit27_12/(0+8)	; CC_ADDR
  5373  0002DC  00000001           	ddw	1	; NUM_POINTS
  5374  0002E0  00000005           	ddw	__ccovbit27_12& (0+7)	; OFFSET
  5375  0002E4  00000000           	ddw	0	; Reserved
  5376  0002E8  FFFFFFFF           	ddw	4294967295	; RANGE_SPACE=restricted
  5377  0002EC  00000011           	ddw	17	; NUM_RANGES
  5378  0002F0  00000D8E           	ddw	__ccov41_start_blk27	; block 27 START_ADDR
  5379  0002F4  00000DA0           	ddw	__ccov41_end_blk27	; block 27 END_ADDR
  5380  0002F8  00000D8A           	ddw	__ccov40_start_blk26	; block 26 START_ADDR
  5381  0002FC  00000D8E           	ddw	__ccov40_end_blk26	; block 26 END_ADDR
  5382  000300  00000D30           	ddw	__ccov39_start_blk25	; block 25 START_ADDR
  5383  000304  00000D8A           	ddw	__ccov39_end_blk25	; block 25 END_ADDR
  5384  000308  00000C96           	ddw	__ccov38_start_blk24	; block 24 START_ADDR
  5385  00030C  00000D30           	ddw	__ccov38_end_blk24	; block 24 END_ADDR
  5386  000310  00000C66           	ddw	__ccov37_start_blk23	; block 23 START_ADDR
  5387  000314  00000C96           	ddw	__ccov37_end_blk23	; block 23 END_ADDR
  5388  000318  00000C64           	ddw	__ccov36_start_blk22	; block 22 START_ADDR
  5389  00031C  00000C66           	ddw	__ccov36_end_blk22	; block 22 END_ADDR
  5390  000320  00000C5C           	ddw	__ccov35_start_blk20	; block 20 START_ADDR
  5391  000324  00000C64           	ddw	__ccov35_end_blk20	; block 20 END_ADDR
  5392  000328  00000C58           	ddw	__ccov34_start_blk19	; block 19 START_ADDR
  5393  00032C  00000C5C           	ddw	__ccov34_end_blk19	; block 19 END_ADDR
  5394  000330  00000C50           	ddw	__ccov33_start_blk18	; block 18 START_ADDR
  5395  000334  00000C58           	ddw	__ccov33_end_blk18	; block 18 END_ADDR
  5396  000338  00000C3C           	ddw	__ccov32_start_blk17	; block 17 START_ADDR
  5397  00033C  00000C50           	ddw	__ccov32_end_blk17	; block 17 END_ADDR
  5398  000340  00000C36           	ddw	__ccov31_start_blk16	; block 16 START_ADDR
  5399  000344  00000C3C           	ddw	__ccov31_end_blk16	; block 16 END_ADDR
  5400  000348  00000C1C           	ddw	__ccov30_start_blk14	; block 14 START_ADDR
  5401  00034C  00000C36           	ddw	__ccov30_end_blk14	; block 14 END_ADDR
  5402  000350  00000B5C           	ddw	__ccov25_start_blk5	; block 5 START_ADDR
  5403  000354  00000B64           	ddw	__ccov25_end_blk5	; block 5 END_ADDR
  5404  000358  00000B54           	ddw	__ccov24_start_blk4	; block 4 START_ADDR
  5405  00035C  00000B5C           	ddw	__ccov24_end_blk4	; block 4 END_ADDR
  5406  000360  00000B52           	ddw	__ccov23_start_blk3	; block 3 START_ADDR
  5407  000364  00000B54           	ddw	__ccov23_end_blk3	; block 3 END_ADDR
  5408  000368  00000B42           	ddw	__ccov22_start_blk2	; block 2 START_ADDR
  5409  00036C  00000B52           	ddw	__ccov22_end_blk2	; block 2 END_ADDR
  5410  000370  00000AF6           	ddw	int_func	; block 0 START_ADDR
  5411  000374  00000B3A           	ddw	__ccov20_end_blk0	; block 0 END_ADDR
  5412                           
  5413                           ; Function: isr_INTERRUPTS, coverage: 29,27,26,25,24,23,22,20,19,18,17,16,14,5,4,3,2,0
  5414  000378  00000000           	ddw	0	; CC_ADDR_SPACE=Data
  5415  00037C  00000005           	ddw	__ccovbit29_13/(0+8)	; CC_ADDR
  5416  000380  00000001           	ddw	1	; NUM_POINTS
  5417  000384  00000004           	ddw	__ccovbit29_13& (0+7)	; OFFSET
  5418  000388  00000000           	ddw	0	; Reserved
  5419  00038C  FFFFFFFF           	ddw	4294967295	; RANGE_SPACE=restricted
  5420  000390  00000012           	ddw	18	; NUM_RANGES
  5421  000394  00000DA0           	ddw	__ccov42_start_blk29	; block 29 START_ADDR
  5422  000398  00000DEE           	ddw	__ccov42_end_blk29	; block 29 END_ADDR
  5423  00039C  00000D8E           	ddw	__ccov41_start_blk27	; block 27 START_ADDR
  5424  0003A0  00000DA0           	ddw	__ccov41_end_blk27	; block 27 END_ADDR
  5425  0003A4  00000D8A           	ddw	__ccov40_start_blk26	; block 26 START_ADDR
  5426  0003A8  00000D8E           	ddw	__ccov40_end_blk26	; block 26 END_ADDR
  5427  0003AC  00000D30           	ddw	__ccov39_start_blk25	; block 25 START_ADDR
  5428  0003B0  00000D8A           	ddw	__ccov39_end_blk25	; block 25 END_ADDR
  5429  0003B4  00000C96           	ddw	__ccov38_start_blk24	; block 24 START_ADDR
  5430  0003B8  00000D30           	ddw	__ccov38_end_blk24	; block 24 END_ADDR
  5431  0003BC  00000C66           	ddw	__ccov37_start_blk23	; block 23 START_ADDR
  5432  0003C0  00000C96           	ddw	__ccov37_end_blk23	; block 23 END_ADDR
  5433  0003C4  00000C64           	ddw	__ccov36_start_blk22	; block 22 START_ADDR
  5434  0003C8  00000C66           	ddw	__ccov36_end_blk22	; block 22 END_ADDR
  5435  0003CC  00000C5C           	ddw	__ccov35_start_blk20	; block 20 START_ADDR
  5436  0003D0  00000C64           	ddw	__ccov35_end_blk20	; block 20 END_ADDR
  5437  0003D4  00000C58           	ddw	__ccov34_start_blk19	; block 19 START_ADDR
  5438  0003D8  00000C5C           	ddw	__ccov34_end_blk19	; block 19 END_ADDR
  5439  0003DC  00000C50           	ddw	__ccov33_start_blk18	; block 18 START_ADDR
  5440  0003E0  00000C58           	ddw	__ccov33_end_blk18	; block 18 END_ADDR
  5441  0003E4  00000C3C           	ddw	__ccov32_start_blk17	; block 17 START_ADDR
  5442  0003E8  00000C50           	ddw	__ccov32_end_blk17	; block 17 END_ADDR
  5443  0003EC  00000C36           	ddw	__ccov31_start_blk16	; block 16 START_ADDR
  5444  0003F0  00000C3C           	ddw	__ccov31_end_blk16	; block 16 END_ADDR
  5445  0003F4  00000C1C           	ddw	__ccov30_start_blk14	; block 14 START_ADDR
  5446  0003F8  00000C36           	ddw	__ccov30_end_blk14	; block 14 END_ADDR
  5447  0003FC  00000B5C           	ddw	__ccov25_start_blk5	; block 5 START_ADDR
  5448  000400  00000B64           	ddw	__ccov25_end_blk5	; block 5 END_ADDR
  5449  000404  00000B54           	ddw	__ccov24_start_blk4	; block 4 START_ADDR
  5450  000408  00000B5C           	ddw	__ccov24_end_blk4	; block 4 END_ADDR
  5451  00040C  00000B52           	ddw	__ccov23_start_blk3	; block 3 START_ADDR
  5452  000410  00000B54           	ddw	__ccov23_end_blk3	; block 3 END_ADDR
  5453  000414  00000B42           	ddw	__ccov22_start_blk2	; block 2 START_ADDR
  5454  000418  00000B52           	ddw	__ccov22_end_blk2	; block 2 END_ADDR
  5455  00041C  00000AF6           	ddw	int_func	; block 0 START_ADDR
  5456  000420  00000B3A           	ddw	__ccov20_end_blk0	; block 0 END_ADDR
  5457                           
  5458                           ; Function: isr_INTERRUPTS, coverage: 43,42,45,40,39,38,37,35,34,33,31,23,22,20,19,18,17
      +                          ,16,14,5,4,3,2,0
  5459  000424  00000000           	ddw	0	; CC_ADDR_SPACE=Data
  5460  000428  00000005           	ddw	__ccovbit43_14/(0+8)	; CC_ADDR
  5461  00042C  00000001           	ddw	1	; NUM_POINTS
  5462  000430  00000003           	ddw	__ccovbit43_14& (0+7)	; OFFSET
  5463  000434  00000000           	ddw	0	; Reserved
  5464  000438  FFFFFFFF           	ddw	4294967295	; RANGE_SPACE=restricted
  5465  00043C  00000018           	ddw	24	; NUM_RANGES
  5466  000440  00000ED4           	ddw	__ccov52_start_blk43	; block 43 START_ADDR
  5467  000444  00000F2E           	ddw	__ccov52_end_blk43	; block 43 END_ADDR
  5468  000448  00000ECC           	ddw	__ccov51_start_blk42	; block 42 START_ADDR
  5469  00044C  00000ED4           	ddw	__ccov51_end_blk42	; block 42 END_ADDR
  5470  000450  00000F2E           	ddw	__ccov53_start_blk45	; block 45 START_ADDR
  5471  000454  00000F46           	ddw	__ccov53_end_blk45	; block 45 END_ADDR
  5472  000458  00000E5A           	ddw	__ccov50_start_blk40	; block 40 START_ADDR
  5473  00045C  00000ECC           	ddw	__ccov50_end_blk40	; block 40 END_ADDR
  5474  000460  00000E28           	ddw	__ccov49_start_blk39	; block 39 START_ADDR
  5475  000464  00000E5A           	ddw	__ccov49_end_blk39	; block 39 END_ADDR
  5476  000468  00000E26           	ddw	__ccov48_start_blk38	; block 38 START_ADDR
  5477  00046C  00000E28           	ddw	__ccov48_end_blk38	; block 38 END_ADDR
  5478  000470  00000E24           	ddw	__ccov47_start_blk37	; block 37 START_ADDR
  5479  000474  00000E26           	ddw	__ccov47_end_blk37	; block 37 END_ADDR
  5480  000478  00000DFC           	ddw	__ccov46_start_blk35	; block 35 START_ADDR
  5481  00047C  00000E24           	ddw	__ccov46_end_blk35	; block 35 END_ADDR
  5482  000480  00000DF4           	ddw	__ccov45_start_blk34	; block 34 START_ADDR
  5483  000484  00000DFC           	ddw	__ccov45_end_blk34	; block 34 END_ADDR
  5484  000488  00000DF0           	ddw	__ccov44_start_blk33	; block 33 START_ADDR
  5485  00048C  00000DF4           	ddw	__ccov44_end_blk33	; block 33 END_ADDR
  5486  000490  00000DEE           	ddw	__ccov43_start_blk31	; block 31 START_ADDR
  5487  000494  00000DF0           	ddw	__ccov43_end_blk31	; block 31 END_ADDR
  5488  000498  00000C66           	ddw	__ccov37_start_blk23	; block 23 START_ADDR
  5489  00049C  00000C96           	ddw	__ccov37_end_blk23	; block 23 END_ADDR
  5490  0004A0  00000C64           	ddw	__ccov36_start_blk22	; block 22 START_ADDR
  5491  0004A4  00000C66           	ddw	__ccov36_end_blk22	; block 22 END_ADDR
  5492  0004A8  00000C5C           	ddw	__ccov35_start_blk20	; block 20 START_ADDR
  5493  0004AC  00000C64           	ddw	__ccov35_end_blk20	; block 20 END_ADDR
  5494  0004B0  00000C58           	ddw	__ccov34_start_blk19	; block 19 START_ADDR
  5495  0004B4  00000C5C           	ddw	__ccov34_end_blk19	; block 19 END_ADDR
  5496  0004B8  00000C50           	ddw	__ccov33_start_blk18	; block 18 START_ADDR
  5497  0004BC  00000C58           	ddw	__ccov33_end_blk18	; block 18 END_ADDR
  5498  0004C0  00000C3C           	ddw	__ccov32_start_blk17	; block 17 START_ADDR
  5499  0004C4  00000C50           	ddw	__ccov32_end_blk17	; block 17 END_ADDR
  5500  0004C8  00000C36           	ddw	__ccov31_start_blk16	; block 16 START_ADDR
  5501  0004CC  00000C3C           	ddw	__ccov31_end_blk16	; block 16 END_ADDR
  5502  0004D0  00000C1C           	ddw	__ccov30_start_blk14	; block 14 START_ADDR
  5503  0004D4  00000C36           	ddw	__ccov30_end_blk14	; block 14 END_ADDR
  5504  0004D8  00000B5C           	ddw	__ccov25_start_blk5	; block 5 START_ADDR
  5505  0004DC  00000B64           	ddw	__ccov25_end_blk5	; block 5 END_ADDR
  5506  0004E0  00000B54           	ddw	__ccov24_start_blk4	; block 4 START_ADDR
  5507  0004E4  00000B5C           	ddw	__ccov24_end_blk4	; block 4 END_ADDR
  5508  0004E8  00000B52           	ddw	__ccov23_start_blk3	; block 3 START_ADDR
  5509  0004EC  00000B54           	ddw	__ccov23_end_blk3	; block 3 END_ADDR
  5510  0004F0  00000B42           	ddw	__ccov22_start_blk2	; block 2 START_ADDR
  5511  0004F4  00000B52           	ddw	__ccov22_end_blk2	; block 2 END_ADDR
  5512  0004F8  00000AF6           	ddw	int_func	; block 0 START_ADDR
  5513  0004FC  00000B3A           	ddw	__ccov20_end_blk0	; block 0 END_ADDR
  5514                           
  5515                           ; Function: isr_INTERRUPTS, coverage: 45,40,39,38,37,35,34,33,31,23,22,20,19,18,17,16,14
      +                          ,5,4,3,2,0
  5516  000500  00000000           	ddw	0	; CC_ADDR_SPACE=Data
  5517  000504  00000005           	ddw	__ccovbit45_15/(0+8)	; CC_ADDR
  5518  000508  00000001           	ddw	1	; NUM_POINTS
  5519  00050C  00000002           	ddw	__ccovbit45_15& (0+7)	; OFFSET
  5520  000510  00000000           	ddw	0	; Reserved
  5521  000514  FFFFFFFF           	ddw	4294967295	; RANGE_SPACE=restricted
  5522  000518  00000016           	ddw	22	; NUM_RANGES
  5523  00051C  00000F2E           	ddw	__ccov53_start_blk45	; block 45 START_ADDR
  5524  000520  00000F46           	ddw	__ccov53_end_blk45	; block 45 END_ADDR
  5525  000524  00000E5A           	ddw	__ccov50_start_blk40	; block 40 START_ADDR
  5526  000528  00000ECC           	ddw	__ccov50_end_blk40	; block 40 END_ADDR
  5527  00052C  00000E28           	ddw	__ccov49_start_blk39	; block 39 START_ADDR
  5528  000530  00000E5A           	ddw	__ccov49_end_blk39	; block 39 END_ADDR
  5529  000534  00000E26           	ddw	__ccov48_start_blk38	; block 38 START_ADDR
  5530  000538  00000E28           	ddw	__ccov48_end_blk38	; block 38 END_ADDR
  5531  00053C  00000E24           	ddw	__ccov47_start_blk37	; block 37 START_ADDR
  5532  000540  00000E26           	ddw	__ccov47_end_blk37	; block 37 END_ADDR
  5533  000544  00000DFC           	ddw	__ccov46_start_blk35	; block 35 START_ADDR
  5534  000548  00000E24           	ddw	__ccov46_end_blk35	; block 35 END_ADDR
  5535  00054C  00000DF4           	ddw	__ccov45_start_blk34	; block 34 START_ADDR
  5536  000550  00000DFC           	ddw	__ccov45_end_blk34	; block 34 END_ADDR
  5537  000554  00000DF0           	ddw	__ccov44_start_blk33	; block 33 START_ADDR
  5538  000558  00000DF4           	ddw	__ccov44_end_blk33	; block 33 END_ADDR
  5539  00055C  00000DEE           	ddw	__ccov43_start_blk31	; block 31 START_ADDR
  5540  000560  00000DF0           	ddw	__ccov43_end_blk31	; block 31 END_ADDR
  5541  000564  00000C66           	ddw	__ccov37_start_blk23	; block 23 START_ADDR
  5542  000568  00000C96           	ddw	__ccov37_end_blk23	; block 23 END_ADDR
  5543  00056C  00000C64           	ddw	__ccov36_start_blk22	; block 22 START_ADDR
  5544  000570  00000C66           	ddw	__ccov36_end_blk22	; block 22 END_ADDR
  5545  000574  00000C5C           	ddw	__ccov35_start_blk20	; block 20 START_ADDR
  5546  000578  00000C64           	ddw	__ccov35_end_blk20	; block 20 END_ADDR
  5547  00057C  00000C58           	ddw	__ccov34_start_blk19	; block 19 START_ADDR
  5548  000580  00000C5C           	ddw	__ccov34_end_blk19	; block 19 END_ADDR
  5549  000584  00000C50           	ddw	__ccov33_start_blk18	; block 18 START_ADDR
  5550  000588  00000C58           	ddw	__ccov33_end_blk18	; block 18 END_ADDR
  5551  00058C  00000C3C           	ddw	__ccov32_start_blk17	; block 17 START_ADDR
  5552  000590  00000C50           	ddw	__ccov32_end_blk17	; block 17 END_ADDR
  5553  000594  00000C36           	ddw	__ccov31_start_blk16	; block 16 START_ADDR
  5554  000598  00000C3C           	ddw	__ccov31_end_blk16	; block 16 END_ADDR
  5555  00059C  00000C1C           	ddw	__ccov30_start_blk14	; block 14 START_ADDR
  5556  0005A0  00000C36           	ddw	__ccov30_end_blk14	; block 14 END_ADDR
  5557  0005A4  00000B5C           	ddw	__ccov25_start_blk5	; block 5 START_ADDR
  5558  0005A8  00000B64           	ddw	__ccov25_end_blk5	; block 5 END_ADDR
  5559  0005AC  00000B54           	ddw	__ccov24_start_blk4	; block 4 START_ADDR
  5560  0005B0  00000B5C           	ddw	__ccov24_end_blk4	; block 4 END_ADDR
  5561  0005B4  00000B52           	ddw	__ccov23_start_blk3	; block 3 START_ADDR
  5562  0005B8  00000B54           	ddw	__ccov23_end_blk3	; block 3 END_ADDR
  5563  0005BC  00000B42           	ddw	__ccov22_start_blk2	; block 2 START_ADDR
  5564  0005C0  00000B52           	ddw	__ccov22_end_blk2	; block 2 END_ADDR
  5565  0005C4  00000AF6           	ddw	int_func	; block 0 START_ADDR
  5566  0005C8  00000B3A           	ddw	__ccov20_end_blk0	; block 0 END_ADDR
  5567                           
  5568                           ; Function: isr_INTERRUPTS, coverage: 48,47,39,38,37,35,34,33,31,23,22,20,19,18,17,16,14
      +                          ,5,4,3,2,0
  5569  0005CC  00000000           	ddw	0	; CC_ADDR_SPACE=Data
  5570  0005D0  00000005           	ddw	__ccovbit48_16/(0+8)	; CC_ADDR
  5571  0005D4  00000001           	ddw	1	; NUM_POINTS
  5572  0005D8  00000001           	ddw	__ccovbit48_16& (0+7)	; OFFSET
  5573  0005DC  00000000           	ddw	0	; Reserved
  5574  0005E0  FFFFFFFF           	ddw	4294967295	; RANGE_SPACE=restricted
  5575  0005E4  00000016           	ddw	22	; NUM_RANGES
  5576  0005E8  00000F48           	ddw	__ccov55_start_blk48	; block 48 START_ADDR
  5577  0005EC  00000F7C           	ddw	__ccov55_end_blk48	; block 48 END_ADDR
  5578  0005F0  00000F46           	ddw	__ccov54_start_blk47	; block 47 START_ADDR
  5579  0005F4  00000F48           	ddw	__ccov54_end_blk47	; block 47 END_ADDR
  5580  0005F8  00000E28           	ddw	__ccov49_start_blk39	; block 39 START_ADDR
  5581  0005FC  00000E5A           	ddw	__ccov49_end_blk39	; block 39 END_ADDR
  5582  000600  00000E26           	ddw	__ccov48_start_blk38	; block 38 START_ADDR
  5583  000604  00000E28           	ddw	__ccov48_end_blk38	; block 38 END_ADDR
  5584  000608  00000E24           	ddw	__ccov47_start_blk37	; block 37 START_ADDR
  5585  00060C  00000E26           	ddw	__ccov47_end_blk37	; block 37 END_ADDR
  5586  000610  00000DFC           	ddw	__ccov46_start_blk35	; block 35 START_ADDR
  5587  000614  00000E24           	ddw	__ccov46_end_blk35	; block 35 END_ADDR
  5588  000618  00000DF4           	ddw	__ccov45_start_blk34	; block 34 START_ADDR
  5589  00061C  00000DFC           	ddw	__ccov45_end_blk34	; block 34 END_ADDR
  5590  000620  00000DF0           	ddw	__ccov44_start_blk33	; block 33 START_ADDR
  5591  000624  00000DF4           	ddw	__ccov44_end_blk33	; block 33 END_ADDR
  5592  000628  00000DEE           	ddw	__ccov43_start_blk31	; block 31 START_ADDR
  5593  00062C  00000DF0           	ddw	__ccov43_end_blk31	; block 31 END_ADDR
  5594  000630  00000C66           	ddw	__ccov37_start_blk23	; block 23 START_ADDR
  5595  000634  00000C96           	ddw	__ccov37_end_blk23	; block 23 END_ADDR
  5596  000638  00000C64           	ddw	__ccov36_start_blk22	; block 22 START_ADDR
  5597  00063C  00000C66           	ddw	__ccov36_end_blk22	; block 22 END_ADDR
  5598  000640  00000C5C           	ddw	__ccov35_start_blk20	; block 20 START_ADDR
  5599  000644  00000C64           	ddw	__ccov35_end_blk20	; block 20 END_ADDR
  5600  000648  00000C58           	ddw	__ccov34_start_blk19	; block 19 START_ADDR
  5601  00064C  00000C5C           	ddw	__ccov34_end_blk19	; block 19 END_ADDR
  5602  000650  00000C50           	ddw	__ccov33_start_blk18	; block 18 START_ADDR
  5603  000654  00000C58           	ddw	__ccov33_end_blk18	; block 18 END_ADDR
  5604  000658  00000C3C           	ddw	__ccov32_start_blk17	; block 17 START_ADDR
  5605  00065C  00000C50           	ddw	__ccov32_end_blk17	; block 17 END_ADDR
  5606  000660  00000C36           	ddw	__ccov31_start_blk16	; block 16 START_ADDR
  5607  000664  00000C3C           	ddw	__ccov31_end_blk16	; block 16 END_ADDR
  5608  000668  00000C1C           	ddw	__ccov30_start_blk14	; block 14 START_ADDR
  5609  00066C  00000C36           	ddw	__ccov30_end_blk14	; block 14 END_ADDR
  5610  000670  00000B5C           	ddw	__ccov25_start_blk5	; block 5 START_ADDR
  5611  000674  00000B64           	ddw	__ccov25_end_blk5	; block 5 END_ADDR
  5612  000678  00000B54           	ddw	__ccov24_start_blk4	; block 4 START_ADDR
  5613  00067C  00000B5C           	ddw	__ccov24_end_blk4	; block 4 END_ADDR
  5614  000680  00000B52           	ddw	__ccov23_start_blk3	; block 3 START_ADDR
  5615  000684  00000B54           	ddw	__ccov23_end_blk3	; block 3 END_ADDR
  5616  000688  00000B42           	ddw	__ccov22_start_blk2	; block 2 START_ADDR
  5617  00068C  00000B52           	ddw	__ccov22_end_blk2	; block 2 END_ADDR
  5618  000690  00000AF6           	ddw	int_func	; block 0 START_ADDR
  5619  000694  00000B3A           	ddw	__ccov20_end_blk0	; block 0 END_ADDR
  5620                           
  5621                           ; Function: isr_INTERRUPTS, coverage: 50,49,39,38,37,35,34,33,31,23,22,20,19,18,17,16,14
      +                          ,5,4,3,2,0
  5622  000698  00000000           	ddw	0	; CC_ADDR_SPACE=Data
  5623  00069C  00000005           	ddw	__ccovbit50_17/(0+8)	; CC_ADDR
  5624  0006A0  00000001           	ddw	1	; NUM_POINTS
  5625  0006A4  00000000           	ddw	__ccovbit50_17& (0+7)	; OFFSET
  5626  0006A8  00000000           	ddw	0	; Reserved
  5627  0006AC  FFFFFFFF           	ddw	4294967295	; RANGE_SPACE=restricted
  5628  0006B0  00000016           	ddw	22	; NUM_RANGES
  5629  0006B4  00000FA0           	ddw	__ccov57_start_blk50	; block 50 START_ADDR
  5630  0006B8  00000FA4           	ddw	__ccov57_end_blk50	; block 50 END_ADDR
  5631  0006BC  00000F7C           	ddw	__ccov56_start_blk49	; block 49 START_ADDR
  5632  0006C0  00000FA0           	ddw	__ccov56_end_blk49	; block 49 END_ADDR
  5633  0006C4  00000E28           	ddw	__ccov49_start_blk39	; block 39 START_ADDR
  5634  0006C8  00000E5A           	ddw	__ccov49_end_blk39	; block 39 END_ADDR
  5635  0006CC  00000E26           	ddw	__ccov48_start_blk38	; block 38 START_ADDR
  5636  0006D0  00000E28           	ddw	__ccov48_end_blk38	; block 38 END_ADDR
  5637  0006D4  00000E24           	ddw	__ccov47_start_blk37	; block 37 START_ADDR
  5638  0006D8  00000E26           	ddw	__ccov47_end_blk37	; block 37 END_ADDR
  5639  0006DC  00000DFC           	ddw	__ccov46_start_blk35	; block 35 START_ADDR
  5640  0006E0  00000E24           	ddw	__ccov46_end_blk35	; block 35 END_ADDR
  5641  0006E4  00000DF4           	ddw	__ccov45_start_blk34	; block 34 START_ADDR
  5642  0006E8  00000DFC           	ddw	__ccov45_end_blk34	; block 34 END_ADDR
  5643  0006EC  00000DF0           	ddw	__ccov44_start_blk33	; block 33 START_ADDR
  5644  0006F0  00000DF4           	ddw	__ccov44_end_blk33	; block 33 END_ADDR
  5645  0006F4  00000DEE           	ddw	__ccov43_start_blk31	; block 31 START_ADDR
  5646  0006F8  00000DF0           	ddw	__ccov43_end_blk31	; block 31 END_ADDR
  5647  0006FC  00000C66           	ddw	__ccov37_start_blk23	; block 23 START_ADDR
  5648  000700  00000C96           	ddw	__ccov37_end_blk23	; block 23 END_ADDR
  5649  000704  00000C64           	ddw	__ccov36_start_blk22	; block 22 START_ADDR
  5650  000708  00000C66           	ddw	__ccov36_end_blk22	; block 22 END_ADDR
  5651  00070C  00000C5C           	ddw	__ccov35_start_blk20	; block 20 START_ADDR
  5652  000710  00000C64           	ddw	__ccov35_end_blk20	; block 20 END_ADDR
  5653  000714  00000C58           	ddw	__ccov34_start_blk19	; block 19 START_ADDR
  5654  000718  00000C5C           	ddw	__ccov34_end_blk19	; block 19 END_ADDR
  5655  00071C  00000C50           	ddw	__ccov33_start_blk18	; block 18 START_ADDR
  5656  000720  00000C58           	ddw	__ccov33_end_blk18	; block 18 END_ADDR
  5657  000724  00000C3C           	ddw	__ccov32_start_blk17	; block 17 START_ADDR
  5658  000728  00000C50           	ddw	__ccov32_end_blk17	; block 17 END_ADDR
  5659  00072C  00000C36           	ddw	__ccov31_start_blk16	; block 16 START_ADDR
  5660  000730  00000C3C           	ddw	__ccov31_end_blk16	; block 16 END_ADDR
  5661  000734  00000C1C           	ddw	__ccov30_start_blk14	; block 14 START_ADDR
  5662  000738  00000C36           	ddw	__ccov30_end_blk14	; block 14 END_ADDR
  5663  00073C  00000B5C           	ddw	__ccov25_start_blk5	; block 5 START_ADDR
  5664  000740  00000B64           	ddw	__ccov25_end_blk5	; block 5 END_ADDR
  5665  000744  00000B54           	ddw	__ccov24_start_blk4	; block 4 START_ADDR
  5666  000748  00000B5C           	ddw	__ccov24_end_blk4	; block 4 END_ADDR
  5667  00074C  00000B52           	ddw	__ccov23_start_blk3	; block 3 START_ADDR
  5668  000750  00000B54           	ddw	__ccov23_end_blk3	; block 3 END_ADDR
  5669  000754  00000B42           	ddw	__ccov22_start_blk2	; block 2 START_ADDR
  5670  000758  00000B52           	ddw	__ccov22_end_blk2	; block 2 END_ADDR
  5671  00075C  00000AF6           	ddw	int_func	; block 0 START_ADDR
  5672  000760  00000B3A           	ddw	__ccov20_end_blk0	; block 0 END_ADDR
  5673                           
  5674                           ; Function: isr_INTERRUPTS, coverage: 55,0
  5675  000764  00000000           	ddw	0	; CC_ADDR_SPACE=Data
  5676  000768  00000004           	ddw	__ccovbit55_18/(0+8)	; CC_ADDR
  5677  00076C  00000001           	ddw	1	; NUM_POINTS
  5678  000770  00000007           	ddw	__ccovbit55_18& (0+7)	; OFFSET
  5679  000774  00000000           	ddw	0	; Reserved
  5680  000778  FFFFFFFF           	ddw	4294967295	; RANGE_SPACE=restricted
  5681  00077C  00000002           	ddw	2	; NUM_RANGES
  5682  000780  00000FA4           	ddw	__ccov58_start_blk55	; block 55 START_ADDR
  5683  000784  00000FD8           	ddw	__end_of_isr_INTERRUPTS	; block 55 END_ADDR
  5684  000788  00000AF6           	ddw	int_func	; block 0 START_ADDR
  5685  00078C  00000B3A           	ddw	__ccov20_end_blk0	; block 0 END_ADDR
  5686                           
  5687                           ; Function: config_os, coverage: 14,13,12,11,10,9,8,7,6,5,4,3,2,1,0
  5688  000790  00000000           	ddw	0	; CC_ADDR_SPACE=Data
  5689  000794  00000004           	ddw	__ccovbit14_19/(0+8)	; CC_ADDR
  5690  000798  00000001           	ddw	1	; NUM_POINTS
  5691  00079C  00000006           	ddw	__ccovbit14_19& (0+7)	; OFFSET
  5692  0007A0  00000000           	ddw	0	; Reserved
  5693  0007A4  FFFFFFFF           	ddw	4294967295	; RANGE_SPACE=restricted
  5694  0007A8  0000000F           	ddw	15	; NUM_RANGES
  5695  0007AC  0000195A           	ddw	__ccov73_start_blk14	; block 14 START_ADDR
  5696  0007B0  0000195E           	ddw	__end_of_config_os	; block 14 END_ADDR
  5697  0007B4  00001956           	ddw	__ccov72_start_blk13	; block 13 START_ADDR
  5698  0007B8  0000195A           	ddw	__ccov72_end_blk13	; block 13 END_ADDR
  5699  0007BC  0000194E           	ddw	__ccov71_start_blk12	; block 12 START_ADDR
  5700  0007C0  00001956           	ddw	__ccov71_end_blk12	; block 12 END_ADDR
  5701  0007C4  0000194C           	ddw	__ccov70_start_blk11	; block 11 START_ADDR
  5702  0007C8  0000194E           	ddw	__ccov70_end_blk11	; block 11 END_ADDR
  5703  0007CC  0000194A           	ddw	__ccov69_start_blk10	; block 10 START_ADDR
  5704  0007D0  0000194C           	ddw	__ccov69_end_blk10	; block 10 END_ADDR
  5705  0007D4  00001948           	ddw	__ccov68_start_blk9	; block 9 START_ADDR
  5706  0007D8  0000194A           	ddw	__ccov68_end_blk9	; block 9 END_ADDR
  5707  0007DC  00001946           	ddw	__ccov67_start_blk8	; block 8 START_ADDR
  5708  0007E0  00001948           	ddw	__ccov67_end_blk8	; block 8 END_ADDR
  5709  0007E4  00001944           	ddw	__ccov66_start_blk7	; block 7 START_ADDR
  5710  0007E8  00001946           	ddw	__ccov66_end_blk7	; block 7 END_ADDR
  5711  0007EC  00001942           	ddw	__ccov65_start_blk6	; block 6 START_ADDR
  5712  0007F0  00001944           	ddw	__ccov65_end_blk6	; block 6 END_ADDR
  5713  0007F4  00001940           	ddw	__ccov64_start_blk5	; block 5 START_ADDR
  5714  0007F8  00001942           	ddw	__ccov64_end_blk5	; block 5 END_ADDR
  5715  0007FC  0000193E           	ddw	__ccov63_start_blk4	; block 4 START_ADDR
  5716  000800  00001940           	ddw	__ccov63_end_blk4	; block 4 END_ADDR
  5717  000804  0000193C           	ddw	__ccov62_start_blk3	; block 3 START_ADDR
  5718  000808  0000193E           	ddw	__ccov62_end_blk3	; block 3 END_ADDR
  5719  00080C  0000193A           	ddw	__ccov61_start_blk2	; block 2 START_ADDR
  5720  000810  0000193C           	ddw	__ccov61_end_blk2	; block 2 END_ADDR
  5721  000814  0000191E           	ddw	__ccov60_start_blk1	; block 1 START_ADDR
  5722  000818  0000193A           	ddw	__ccov60_end_blk1	; block 1 END_ADDR
  5723  00081C  00001906           	ddw	_config_os	; block 0 START_ADDR
  5724  000820  0000191E           	ddw	__ccov59_end_blk0	; block 0 END_ADDR
  5725                           
  5726                           ; Function: create_task, coverage: 8,7,6,5,4,3,2,1,0
  5727  000824  00000000           	ddw	0	; CC_ADDR_SPACE=Data
  5728  000828  00000004           	ddw	__ccovbit8_20/(0+8)	; CC_ADDR
  5729  00082C  00000001           	ddw	1	; NUM_POINTS
  5730  000830  00000005           	ddw	__ccovbit8_20& (0+7)	; OFFSET
  5731  000834  00000000           	ddw	0	; Reserved
  5732  000838  FFFFFFFF           	ddw	4294967295	; RANGE_SPACE=restricted
  5733  00083C  00000009           	ddw	9	; NUM_RANGES
  5734  000840  0000169E           	ddw	__ccov82_start_blk8	; block 8 START_ADDR
  5735  000844  000016AA           	ddw	__end_of_create_task	; block 8 END_ADDR
  5736  000848  00001694           	ddw	__ccov81_start_blk7	; block 7 START_ADDR
  5737  00084C  0000169E           	ddw	__ccov81_end_blk7	; block 7 END_ADDR
  5738  000850  00001654           	ddw	__ccov80_start_blk6	; block 6 START_ADDR
  5739  000854  00001694           	ddw	__ccov80_end_blk6	; block 6 END_ADDR
  5740  000858  00001640           	ddw	__ccov79_start_blk5	; block 5 START_ADDR
  5741  00085C  00001654           	ddw	__ccov79_end_blk5	; block 5 END_ADDR
  5742  000860  0000162C           	ddw	__ccov78_start_blk4	; block 4 START_ADDR
  5743  000864  00001640           	ddw	__ccov78_end_blk4	; block 4 END_ADDR
  5744  000868  0000161C           	ddw	__ccov77_start_blk3	; block 3 START_ADDR
  5745  00086C  0000162C           	ddw	__ccov77_end_blk3	; block 3 END_ADDR
  5746  000870  000015FA           	ddw	__ccov76_start_blk2	; block 2 START_ADDR
  5747  000874  0000161C           	ddw	__ccov76_end_blk2	; block 2 END_ADDR
  5748  000878  000015D8           	ddw	__ccov75_start_blk1	; block 1 START_ADDR
  5749  00087C  000015FA           	ddw	__ccov75_end_blk1	; block 1 END_ADDR
  5750  000880  000015B8           	ddw	_create_task	; block 0 START_ADDR
  5751  000884  000015D8           	ddw	__ccov74_end_blk0	; block 0 END_ADDR
  5752                           
  5753                           ; Function: delay_task, coverage: 11,10,9,7,6,5,3,2,1,0
  5754  000888  00000000           	ddw	0	; CC_ADDR_SPACE=Data
  5755  00088C  00000004           	ddw	__ccovbit11_21/(0+8)	; CC_ADDR
  5756  000890  00000001           	ddw	1	; NUM_POINTS
  5757  000894  00000004           	ddw	__ccovbit11_21& (0+7)	; OFFSET
  5758  000898  00000000           	ddw	0	; Reserved
  5759  00089C  FFFFFFFF           	ddw	4294967295	; RANGE_SPACE=restricted
  5760  0008A0  0000000A           	ddw	10	; NUM_RANGES
  5761  0008A4  000011B6           	ddw	__ccov92_start_blk11	; block 11 START_ADDR
  5762  0008A8  000011C8           	ddw	__ccov92_end_blk11	; block 11 END_ADDR
  5763  0008AC  00001198           	ddw	__ccov91_start_blk10	; block 10 START_ADDR
  5764  0008B0  000011B6           	ddw	__ccov91_end_blk10	; block 10 END_ADDR
  5765  0008B4  0000112A           	ddw	__ccov90_start_blk9	; block 9 START_ADDR
  5766  0008B8  00001198           	ddw	__ccov90_end_blk9	; block 9 END_ADDR
  5767  0008BC  00001072           	ddw	__ccov89_start_blk7	; block 7 START_ADDR
  5768  0008C0  0000112A           	ddw	__ccov89_end_blk7	; block 7 END_ADDR
  5769  0008C4  00001038           	ddw	__ccov88_start_blk6	; block 6 START_ADDR
  5770  0008C8  00001072           	ddw	__ccov88_end_blk6	; block 6 END_ADDR
  5771  0008CC  00001036           	ddw	__ccov87_start_blk5	; block 5 START_ADDR
  5772  0008D0  00001038           	ddw	__ccov87_end_blk5	; block 5 END_ADDR
  5773  0008D4  0000102A           	ddw	__ccov86_start_blk3	; block 3 START_ADDR
  5774  0008D8  00001036           	ddw	__ccov86_end_blk3	; block 3 END_ADDR
  5775  0008DC  00001022           	ddw	__ccov85_start_blk2	; block 2 START_ADDR
  5776  0008E0  0000102A           	ddw	__ccov85_end_blk2	; block 2 END_ADDR
  5777  0008E4  00000FE2           	ddw	__ccov84_start_blk1	; block 1 START_ADDR
  5778  0008E8  00001022           	ddw	__ccov84_end_blk1	; block 1 END_ADDR
  5779  0008EC  00000FD8           	ddw	_delay_task	; block 0 START_ADDR
  5780  0008F0  00000FE2           	ddw	__ccov83_end_blk0	; block 0 END_ADDR
  5781                           
  5782                           ; Function: delay_task, coverage: 14,13,11,10,9,7,6,5,3,2,1,0
  5783  0008F4  00000000           	ddw	0	; CC_ADDR_SPACE=Data
  5784  0008F8  00000004           	ddw	__ccovbit14_22/(0+8)	; CC_ADDR
  5785  0008FC  00000001           	ddw	1	; NUM_POINTS
  5786  000900  00000003           	ddw	__ccovbit14_22& (0+7)	; OFFSET
  5787  000904  00000000           	ddw	0	; Reserved
  5788  000908  FFFFFFFF           	ddw	4294967295	; RANGE_SPACE=restricted
  5789  00090C  0000000C           	ddw	12	; NUM_RANGES
  5790  000910  00001208           	ddw	__ccov94_start_blk14	; block 14 START_ADDR
  5791  000914  00001238           	ddw	__ccov94_end_blk14	; block 14 END_ADDR
  5792  000918  000011C8           	ddw	__ccov93_start_blk13	; block 13 START_ADDR
  5793  00091C  00001208           	ddw	__ccov93_end_blk13	; block 13 END_ADDR
  5794  000920  000011B6           	ddw	__ccov92_start_blk11	; block 11 START_ADDR
  5795  000924  000011C8           	ddw	__ccov92_end_blk11	; block 11 END_ADDR
  5796  000928  00001198           	ddw	__ccov91_start_blk10	; block 10 START_ADDR
  5797  00092C  000011B6           	ddw	__ccov91_end_blk10	; block 10 END_ADDR
  5798  000930  0000112A           	ddw	__ccov90_start_blk9	; block 9 START_ADDR
  5799  000934  00001198           	ddw	__ccov90_end_blk9	; block 9 END_ADDR
  5800  000938  00001072           	ddw	__ccov89_start_blk7	; block 7 START_ADDR
  5801  00093C  0000112A           	ddw	__ccov89_end_blk7	; block 7 END_ADDR
  5802  000940  00001038           	ddw	__ccov88_start_blk6	; block 6 START_ADDR
  5803  000944  00001072           	ddw	__ccov88_end_blk6	; block 6 END_ADDR
  5804  000948  00001036           	ddw	__ccov87_start_blk5	; block 5 START_ADDR
  5805  00094C  00001038           	ddw	__ccov87_end_blk5	; block 5 END_ADDR
  5806  000950  0000102A           	ddw	__ccov86_start_blk3	; block 3 START_ADDR
  5807  000954  00001036           	ddw	__ccov86_end_blk3	; block 3 END_ADDR
  5808  000958  00001022           	ddw	__ccov85_start_blk2	; block 2 START_ADDR
  5809  00095C  0000102A           	ddw	__ccov85_end_blk2	; block 2 END_ADDR
  5810  000960  00000FE2           	ddw	__ccov84_start_blk1	; block 1 START_ADDR
  5811  000964  00001022           	ddw	__ccov84_end_blk1	; block 1 END_ADDR
  5812  000968  00000FD8           	ddw	_delay_task	; block 0 START_ADDR
  5813  00096C  00000FE2           	ddw	__ccov83_end_blk0	; block 0 END_ADDR
  5814                           
  5815                           ; Function: delay_task, coverage: 28,27,30,25,24,23,22,20,19,18,16,6,5,3,2,1,0
  5816  000970  00000000           	ddw	0	; CC_ADDR_SPACE=Data
  5817  000974  00000004           	ddw	__ccovbit28_23/(0+8)	; CC_ADDR
  5818  000978  00000001           	ddw	1	; NUM_POINTS
  5819  00097C  00000002           	ddw	__ccovbit28_23& (0+7)	; OFFSET
  5820  000980  00000000           	ddw	0	; Reserved
  5821  000984  FFFFFFFF           	ddw	4294967295	; RANGE_SPACE=restricted
  5822  000988  00000011           	ddw	17	; NUM_RANGES
  5823  00098C  0000137A           	ddw	__ccov104_start_blk28	; block 28 START_ADDR
  5824  000990  000013E8           	ddw	__ccov104_end_blk28	; block 28 END_ADDR
  5825  000994  00001358           	ddw	__ccov103_start_blk27	; block 27 START_ADDR
  5826  000998  0000137A           	ddw	__ccov103_end_blk27	; block 27 END_ADDR
  5827  00099C  000013E8           	ddw	__ccov105_start_blk30	; block 30 START_ADDR
  5828  0009A0  00001408           	ddw	__ccov105_end_blk30	; block 30 END_ADDR
  5829  0009A4  000012C8           	ddw	__ccov102_start_blk25	; block 25 START_ADDR
  5830  0009A8  00001358           	ddw	__ccov102_end_blk25	; block 25 END_ADDR
  5831  0009AC  0000128C           	ddw	__ccov101_start_blk24	; block 24 START_ADDR
  5832  0009B0  000012C8           	ddw	__ccov101_end_blk24	; block 24 END_ADDR
  5833  0009B4  0000128A           	ddw	__ccov100_start_blk23	; block 23 START_ADDR
  5834  0009B8  0000128C           	ddw	__ccov100_end_blk23	; block 23 END_ADDR
  5835  0009BC  00001288           	ddw	__ccov99_start_blk22	; block 22 START_ADDR
  5836  0009C0  0000128A           	ddw	__ccov99_end_blk22	; block 22 END_ADDR
  5837  0009C4  0000124A           	ddw	__ccov98_start_blk20	; block 20 START_ADDR
  5838  0009C8  00001288           	ddw	__ccov98_end_blk20	; block 20 END_ADDR
  5839  0009CC  0000123E           	ddw	__ccov97_start_blk19	; block 19 START_ADDR
  5840  0009D0  0000124A           	ddw	__ccov97_end_blk19	; block 19 END_ADDR
  5841  0009D4  0000123A           	ddw	__ccov96_start_blk18	; block 18 START_ADDR
  5842  0009D8  0000123E           	ddw	__ccov96_end_blk18	; block 18 END_ADDR
  5843  0009DC  00001238           	ddw	__ccov95_start_blk16	; block 16 START_ADDR
  5844  0009E0  0000123A           	ddw	__ccov95_end_blk16	; block 16 END_ADDR
  5845  0009E4  00001038           	ddw	__ccov88_start_blk6	; block 6 START_ADDR
  5846  0009E8  00001072           	ddw	__ccov88_end_blk6	; block 6 END_ADDR
  5847  0009EC  00001036           	ddw	__ccov87_start_blk5	; block 5 START_ADDR
  5848  0009F0  00001038           	ddw	__ccov87_end_blk5	; block 5 END_ADDR
  5849  0009F4  0000102A           	ddw	__ccov86_start_blk3	; block 3 START_ADDR
  5850  0009F8  00001036           	ddw	__ccov86_end_blk3	; block 3 END_ADDR
  5851  0009FC  00001022           	ddw	__ccov85_start_blk2	; block 2 START_ADDR
  5852  000A00  0000102A           	ddw	__ccov85_end_blk2	; block 2 END_ADDR
  5853  000A04  00000FE2           	ddw	__ccov84_start_blk1	; block 1 START_ADDR
  5854  000A08  00001022           	ddw	__ccov84_end_blk1	; block 1 END_ADDR
  5855  000A0C  00000FD8           	ddw	_delay_task	; block 0 START_ADDR
  5856  000A10  00000FE2           	ddw	__ccov83_end_blk0	; block 0 END_ADDR
  5857                           
  5858                           ; Function: delay_task, coverage: 30,25,24,23,22,20,19,18,16,6,5,3,2,1,0
  5859  000A14  00000000           	ddw	0	; CC_ADDR_SPACE=Data
  5860  000A18  00000004           	ddw	__ccovbit30_24/(0+8)	; CC_ADDR
  5861  000A1C  00000001           	ddw	1	; NUM_POINTS
  5862  000A20  00000001           	ddw	__ccovbit30_24& (0+7)	; OFFSET
  5863  000A24  00000000           	ddw	0	; Reserved
  5864  000A28  FFFFFFFF           	ddw	4294967295	; RANGE_SPACE=restricted
  5865  000A2C  0000000F           	ddw	15	; NUM_RANGES
  5866  000A30  000013E8           	ddw	__ccov105_start_blk30	; block 30 START_ADDR
  5867  000A34  00001408           	ddw	__ccov105_end_blk30	; block 30 END_ADDR
  5868  000A38  000012C8           	ddw	__ccov102_start_blk25	; block 25 START_ADDR
  5869  000A3C  00001358           	ddw	__ccov102_end_blk25	; block 25 END_ADDR
  5870  000A40  0000128C           	ddw	__ccov101_start_blk24	; block 24 START_ADDR
  5871  000A44  000012C8           	ddw	__ccov101_end_blk24	; block 24 END_ADDR
  5872  000A48  0000128A           	ddw	__ccov100_start_blk23	; block 23 START_ADDR
  5873  000A4C  0000128C           	ddw	__ccov100_end_blk23	; block 23 END_ADDR
  5874  000A50  00001288           	ddw	__ccov99_start_blk22	; block 22 START_ADDR
  5875  000A54  0000128A           	ddw	__ccov99_end_blk22	; block 22 END_ADDR
  5876  000A58  0000124A           	ddw	__ccov98_start_blk20	; block 20 START_ADDR
  5877  000A5C  00001288           	ddw	__ccov98_end_blk20	; block 20 END_ADDR
  5878  000A60  0000123E           	ddw	__ccov97_start_blk19	; block 19 START_ADDR
  5879  000A64  0000124A           	ddw	__ccov97_end_blk19	; block 19 END_ADDR
  5880  000A68  0000123A           	ddw	__ccov96_start_blk18	; block 18 START_ADDR
  5881  000A6C  0000123E           	ddw	__ccov96_end_blk18	; block 18 END_ADDR
  5882  000A70  00001238           	ddw	__ccov95_start_blk16	; block 16 START_ADDR
  5883  000A74  0000123A           	ddw	__ccov95_end_blk16	; block 16 END_ADDR
  5884  000A78  00001038           	ddw	__ccov88_start_blk6	; block 6 START_ADDR
  5885  000A7C  00001072           	ddw	__ccov88_end_blk6	; block 6 END_ADDR
  5886  000A80  00001036           	ddw	__ccov87_start_blk5	; block 5 START_ADDR
  5887  000A84  00001038           	ddw	__ccov87_end_blk5	; block 5 END_ADDR
  5888  000A88  0000102A           	ddw	__ccov86_start_blk3	; block 3 START_ADDR
  5889  000A8C  00001036           	ddw	__ccov86_end_blk3	; block 3 END_ADDR
  5890  000A90  00001022           	ddw	__ccov85_start_blk2	; block 2 START_ADDR
  5891  000A94  0000102A           	ddw	__ccov85_end_blk2	; block 2 END_ADDR
  5892  000A98  00000FE2           	ddw	__ccov84_start_blk1	; block 1 START_ADDR
  5893  000A9C  00001022           	ddw	__ccov84_end_blk1	; block 1 END_ADDR
  5894  000AA0  00000FD8           	ddw	_delay_task	; block 0 START_ADDR
  5895  000AA4  00000FE2           	ddw	__ccov83_end_blk0	; block 0 END_ADDR
  5896                           
  5897                           ; Function: delay_task, coverage: 33,32,24,23,22,20,19,18,16,6,5,3,2,1,0
  5898  000AA8  00000000           	ddw	0	; CC_ADDR_SPACE=Data
  5899  000AAC  00000004           	ddw	__ccovbit33_25/(0+8)	; CC_ADDR
  5900  000AB0  00000001           	ddw	1	; NUM_POINTS
  5901  000AB4  00000000           	ddw	__ccovbit33_25& (0+7)	; OFFSET
  5902  000AB8  00000000           	ddw	0	; Reserved
  5903  000ABC  FFFFFFFF           	ddw	4294967295	; RANGE_SPACE=restricted
  5904  000AC0  0000000F           	ddw	15	; NUM_RANGES
  5905  000AC4  0000140A           	ddw	__ccov107_start_blk33	; block 33 START_ADDR
  5906  000AC8  00001448           	ddw	__ccov107_end_blk33	; block 33 END_ADDR
  5907  000ACC  00001408           	ddw	__ccov106_start_blk32	; block 32 START_ADDR
  5908  000AD0  0000140A           	ddw	__ccov106_end_blk32	; block 32 END_ADDR
  5909  000AD4  0000128C           	ddw	__ccov101_start_blk24	; block 24 START_ADDR
  5910  000AD8  000012C8           	ddw	__ccov101_end_blk24	; block 24 END_ADDR
  5911  000ADC  0000128A           	ddw	__ccov100_start_blk23	; block 23 START_ADDR
  5912  000AE0  0000128C           	ddw	__ccov100_end_blk23	; block 23 END_ADDR
  5913  000AE4  00001288           	ddw	__ccov99_start_blk22	; block 22 START_ADDR
  5914  000AE8  0000128A           	ddw	__ccov99_end_blk22	; block 22 END_ADDR
  5915  000AEC  0000124A           	ddw	__ccov98_start_blk20	; block 20 START_ADDR
  5916  000AF0  00001288           	ddw	__ccov98_end_blk20	; block 20 END_ADDR
  5917  000AF4  0000123E           	ddw	__ccov97_start_blk19	; block 19 START_ADDR
  5918  000AF8  0000124A           	ddw	__ccov97_end_blk19	; block 19 END_ADDR
  5919  000AFC  0000123A           	ddw	__ccov96_start_blk18	; block 18 START_ADDR
  5920  000B00  0000123E           	ddw	__ccov96_end_blk18	; block 18 END_ADDR
  5921  000B04  00001238           	ddw	__ccov95_start_blk16	; block 16 START_ADDR
  5922  000B08  0000123A           	ddw	__ccov95_end_blk16	; block 16 END_ADDR
  5923  000B0C  00001038           	ddw	__ccov88_start_blk6	; block 6 START_ADDR
  5924  000B10  00001072           	ddw	__ccov88_end_blk6	; block 6 END_ADDR
  5925  000B14  00001036           	ddw	__ccov87_start_blk5	; block 5 START_ADDR
  5926  000B18  00001038           	ddw	__ccov87_end_blk5	; block 5 END_ADDR
  5927  000B1C  0000102A           	ddw	__ccov86_start_blk3	; block 3 START_ADDR
  5928  000B20  00001036           	ddw	__ccov86_end_blk3	; block 3 END_ADDR
  5929  000B24  00001022           	ddw	__ccov85_start_blk2	; block 2 START_ADDR
  5930  000B28  0000102A           	ddw	__ccov85_end_blk2	; block 2 END_ADDR
  5931  000B2C  00000FE2           	ddw	__ccov84_start_blk1	; block 1 START_ADDR
  5932  000B30  00001022           	ddw	__ccov84_end_blk1	; block 1 END_ADDR
  5933  000B34  00000FD8           	ddw	_delay_task	; block 0 START_ADDR
  5934  000B38  00000FE2           	ddw	__ccov83_end_blk0	; block 0 END_ADDR
  5935                           
  5936                           ; Function: delay_task, coverage: 37,35,34,24,23,22,20,19,18,16,6,5,3,2,1,0
  5937  000B3C  00000000           	ddw	0	; CC_ADDR_SPACE=Data
  5938  000B40  00000003           	ddw	__ccovbit37_26/(0+8)	; CC_ADDR
  5939  000B44  00000001           	ddw	1	; NUM_POINTS
  5940  000B48  00000007           	ddw	__ccovbit37_26& (0+7)	; OFFSET
  5941  000B4C  00000000           	ddw	0	; Reserved
  5942  000B50  FFFFFFFF           	ddw	4294967295	; RANGE_SPACE=restricted
  5943  000B54  00000010           	ddw	16	; NUM_RANGES
  5944  000B58  00001478           	ddw	__ccov110_start_blk37	; block 37 START_ADDR
  5945  000B5C  00001484           	ddw	__end_of_delay_task	; block 37 END_ADDR
  5946  000B60  00001476           	ddw	__ccov109_start_blk35	; block 35 START_ADDR
  5947  000B64  00001478           	ddw	__ccov109_end_blk35	; block 35 END_ADDR
  5948  000B68  00001448           	ddw	__ccov108_start_blk34	; block 34 START_ADDR
  5949  000B6C  00001476           	ddw	__ccov108_end_blk34	; block 34 END_ADDR
  5950  000B70  0000128C           	ddw	__ccov101_start_blk24	; block 24 START_ADDR
  5951  000B74  000012C8           	ddw	__ccov101_end_blk24	; block 24 END_ADDR
  5952  000B78  0000128A           	ddw	__ccov100_start_blk23	; block 23 START_ADDR
  5953  000B7C  0000128C           	ddw	__ccov100_end_blk23	; block 23 END_ADDR
  5954  000B80  00001288           	ddw	__ccov99_start_blk22	; block 22 START_ADDR
  5955  000B84  0000128A           	ddw	__ccov99_end_blk22	; block 22 END_ADDR
  5956  000B88  0000124A           	ddw	__ccov98_start_blk20	; block 20 START_ADDR
  5957  000B8C  00001288           	ddw	__ccov98_end_blk20	; block 20 END_ADDR
  5958  000B90  0000123E           	ddw	__ccov97_start_blk19	; block 19 START_ADDR
  5959  000B94  0000124A           	ddw	__ccov97_end_blk19	; block 19 END_ADDR
  5960  000B98  0000123A           	ddw	__ccov96_start_blk18	; block 18 START_ADDR
  5961  000B9C  0000123E           	ddw	__ccov96_end_blk18	; block 18 END_ADDR
  5962  000BA0  00001238           	ddw	__ccov95_start_blk16	; block 16 START_ADDR
  5963  000BA4  0000123A           	ddw	__ccov95_end_blk16	; block 16 END_ADDR
  5964  000BA8  00001038           	ddw	__ccov88_start_blk6	; block 6 START_ADDR
  5965  000BAC  00001072           	ddw	__ccov88_end_blk6	; block 6 END_ADDR
  5966  000BB0  00001036           	ddw	__ccov87_start_blk5	; block 5 START_ADDR
  5967  000BB4  00001038           	ddw	__ccov87_end_blk5	; block 5 END_ADDR
  5968  000BB8  0000102A           	ddw	__ccov86_start_blk3	; block 3 START_ADDR
  5969  000BBC  00001036           	ddw	__ccov86_end_blk3	; block 3 END_ADDR
  5970  000BC0  00001022           	ddw	__ccov85_start_blk2	; block 2 START_ADDR
  5971  000BC4  0000102A           	ddw	__ccov85_end_blk2	; block 2 END_ADDR
  5972  000BC8  00000FE2           	ddw	__ccov84_start_blk1	; block 1 START_ADDR
  5973  000BCC  00001022           	ddw	__ccov84_end_blk1	; block 1 END_ADDR
  5974  000BD0  00000FD8           	ddw	_delay_task	; block 0 START_ADDR
  5975  000BD4  00000FE2           	ddw	__ccov83_end_blk0	; block 0 END_ADDR
  5976                           
  5977                           ; Function: start_os, coverage: 2,1,0
  5978  000BD8  00000000           	ddw	0	; CC_ADDR_SPACE=Data
  5979  000BDC  00000003           	ddw	__ccovbit2_27/(0+8)	; CC_ADDR
  5980  000BE0  00000001           	ddw	1	; NUM_POINTS
  5981  000BE4  00000006           	ddw	__ccovbit2_27& (0+7)	; OFFSET
  5982  000BE8  00000000           	ddw	0	; Reserved
  5983  000BEC  FFFFFFFF           	ddw	4294967295	; RANGE_SPACE=restricted
  5984  000BF0  00000003           	ddw	3	; NUM_RANGES
  5985  000BF4  00001AB8           	ddw	__ccov113_start_blk2	; block 2 START_ADDR
  5986  000BF8  00001ABC           	ddw	__end_of_start_os	; block 2 END_ADDR
  5987  000BFC  00001AB0           	ddw	__ccov112_start_blk1	; block 1 START_ADDR
  5988  000C00  00001AB8           	ddw	__ccov112_end_blk1	; block 1 END_ADDR
  5989  000C04  00001AAC           	ddw	_start_os	; block 0 START_ADDR
  5990  000C08  00001AB0           	ddw	__ccov111_end_blk0	; block 0 END_ADDR
  5991                           
  5992                           ; Function: task_idle, coverage: 1,0
  5993  000C0C  00000000           	ddw	0	; CC_ADDR_SPACE=Data
  5994  000C10  00000003           	ddw	__ccovbit1_28/(0+8)	; CC_ADDR
  5995  000C14  00000001           	ddw	1	; NUM_POINTS
  5996  000C18  00000005           	ddw	__ccovbit1_28& (0+7)	; OFFSET
  5997  000C1C  00000000           	ddw	0	; Reserved
  5998  000C20  FFFFFFFF           	ddw	4294967295	; RANGE_SPACE=restricted
  5999  000C24  00000001           	ddw	1	; NUM_RANGES
  6000  000C28  00001A6E           	ddw	_task_idle	; block 1 START_ADDR
  6001  000C2C  00001A94           	ddw	__ccov115_end_blk1	; block 1 END_ADDR
  6002                           
  6003                           ; Function: RR_scheduler, coverage: 4,3,2,0
  6004  000C30  00000000           	ddw	0	; CC_ADDR_SPACE=Data
  6005  000C34  00000003           	ddw	__ccovbit4_29/(0+8)	; CC_ADDR
  6006  000C38  00000001           	ddw	1	; NUM_POINTS
  6007  000C3C  00000004           	ddw	__ccovbit4_29& (0+7)	; OFFSET
  6008  000C40  00000000           	ddw	0	; Reserved
  6009  000C44  FFFFFFFF           	ddw	4294967295	; RANGE_SPACE=restricted
  6010  000C48  00000004           	ddw	4	; NUM_RANGES
  6011  000C4C  00001512           	ddw	__ccov119_start_blk4	; block 4 START_ADDR
  6012  000C50  00001520           	ddw	__ccov119_end_blk4	; block 4 END_ADDR
  6013  000C54  000014D4           	ddw	__ccov118_start_blk3	; block 3 START_ADDR
  6014  000C58  00001512           	ddw	__ccov118_end_blk3	; block 3 END_ADDR
  6015  000C5C  00001494           	ddw	__ccov117_start_blk2	; block 2 START_ADDR
  6016  000C60  000014D4           	ddw	__ccov117_end_blk2	; block 2 END_ADDR
  6017  000C64  00001484           	ddw	_RR_scheduler	; block 0 START_ADDR
  6018  000C68  00001494           	ddw	__ccov116_end_blk0	; block 0 END_ADDR
  6019                           
  6020                           ; Function: RR_scheduler, coverage: 8,7,3,2,0
  6021  000C6C  00000000           	ddw	0	; CC_ADDR_SPACE=Data
  6022  000C70  00000003           	ddw	__ccovbit8_30/(0+8)	; CC_ADDR
  6023  000C74  00000001           	ddw	1	; NUM_POINTS
  6024  000C78  00000003           	ddw	__ccovbit8_30& (0+7)	; OFFSET
  6025  000C7C  00000000           	ddw	0	; Reserved
  6026  000C80  FFFFFFFF           	ddw	4294967295	; RANGE_SPACE=restricted
  6027  000C84  00000005           	ddw	5	; NUM_RANGES
  6028  000C88  0000155A           	ddw	__ccov121_start_blk8	; block 8 START_ADDR
  6029  000C8C  0000159E           	ddw	__ccov121_end_blk8	; block 8 END_ADDR
  6030  000C90  00001520           	ddw	__ccov120_start_blk7	; block 7 START_ADDR
  6031  000C94  0000155A           	ddw	__ccov120_end_blk7	; block 7 END_ADDR
  6032  000C98  000014D4           	ddw	__ccov118_start_blk3	; block 3 START_ADDR
  6033  000C9C  00001512           	ddw	__ccov118_end_blk3	; block 3 END_ADDR
  6034  000CA0  00001494           	ddw	__ccov117_start_blk2	; block 2 START_ADDR
  6035  000CA4  000014D4           	ddw	__ccov117_end_blk2	; block 2 END_ADDR
  6036  000CA8  00001484           	ddw	_RR_scheduler	; block 0 START_ADDR
  6037  000CAC  00001494           	ddw	__ccov116_end_blk0	; block 0 END_ADDR
  6038                           
  6039                           ; Function: RR_scheduler, coverage: 11,7,3,2,0
  6040  000CB0  00000000           	ddw	0	; CC_ADDR_SPACE=Data
  6041  000CB4  00000003           	ddw	__ccovbit11_31/(0+8)	; CC_ADDR
  6042  000CB8  00000001           	ddw	1	; NUM_POINTS
  6043  000CBC  00000002           	ddw	__ccovbit11_31& (0+7)	; OFFSET
  6044  000CC0  00000000           	ddw	0	; Reserved
  6045  000CC4  FFFFFFFF           	ddw	4294967295	; RANGE_SPACE=restricted
  6046  000CC8  00000005           	ddw	5	; NUM_RANGES
  6047  000CCC  0000159E           	ddw	__ccov122_start_blk11	; block 11 START_ADDR
  6048  000CD0  000015AC           	ddw	__ccov122_end_blk11	; block 11 END_ADDR
  6049  000CD4  00001520           	ddw	__ccov120_start_blk7	; block 7 START_ADDR
  6050  000CD8  0000155A           	ddw	__ccov120_end_blk7	; block 7 END_ADDR
  6051  000CDC  000014D4           	ddw	__ccov118_start_blk3	; block 3 START_ADDR
  6052  000CE0  00001512           	ddw	__ccov118_end_blk3	; block 3 END_ADDR
  6053  000CE4  00001494           	ddw	__ccov117_start_blk2	; block 2 START_ADDR
  6054  000CE8  000014D4           	ddw	__ccov117_end_blk2	; block 2 END_ADDR
  6055  000CEC  00001484           	ddw	_RR_scheduler	; block 0 START_ADDR
  6056  000CF0  00001494           	ddw	__ccov116_end_blk0	; block 0 END_ADDR
  6057                           
  6058                           ; Function: RR_scheduler, coverage: 13,3,2,0
  6059  000CF4  00000000           	ddw	0	; CC_ADDR_SPACE=Data
  6060  000CF8  00000003           	ddw	__ccovbit13_32/(0+8)	; CC_ADDR
  6061  000CFC  00000001           	ddw	1	; NUM_POINTS
  6062  000D00  00000001           	ddw	__ccovbit13_32& (0+7)	; OFFSET
  6063  000D04  00000000           	ddw	0	; Reserved
  6064  000D08  FFFFFFFF           	ddw	4294967295	; RANGE_SPACE=restricted
  6065  000D0C  00000004           	ddw	4	; NUM_RANGES
  6066  000D10  000015AC           	ddw	__ccov123_start_blk13	; block 13 START_ADDR
  6067  000D14  000015B8           	ddw	__end_of_RR_scheduler	; block 13 END_ADDR
  6068  000D18  000014D4           	ddw	__ccov118_start_blk3	; block 3 START_ADDR
  6069  000D1C  00001512           	ddw	__ccov118_end_blk3	; block 3 END_ADDR
  6070  000D20  00001494           	ddw	__ccov117_start_blk2	; block 2 START_ADDR
  6071  000D24  000014D4           	ddw	__ccov117_end_blk2	; block 2 END_ADDR
  6072  000D28  00001484           	ddw	_RR_scheduler	; block 0 START_ADDR
  6073  000D2C  00001494           	ddw	__ccov116_end_blk0	; block 0 END_ADDR
  6074                           
  6075                           ; Function: scheduler, coverage: 1,0
  6076  000D30  00000000           	ddw	0	; CC_ADDR_SPACE=Data
  6077  000D34  00000003           	ddw	__ccovbit1_33/(0+8)	; CC_ADDR
  6078  000D38  00000001           	ddw	1	; NUM_POINTS
  6079  000D3C  00000000           	ddw	__ccovbit1_33& (0+7)	; OFFSET
  6080  000D40  00000000           	ddw	0	; Reserved
  6081  000D44  FFFFFFFF           	ddw	4294967295	; RANGE_SPACE=restricted
  6082  000D48  00000002           	ddw	2	; NUM_RANGES
  6083  000D4C  00001AC8           	ddw	__ccov125_start_blk1	; block 1 START_ADDR
  6084  000D50  00001ACC           	ddw	__end_of_scheduler	; block 1 END_ADDR
  6085  000D54  00001ABC           	ddw	_scheduler	; block 0 START_ADDR
  6086  000D58  00001AC8           	ddw	__ccov124_end_blk0	; block 0 END_ADDR
  6087                           
  6088                           ; Function: init_mutex, coverage: 4,3,2,1,0
  6089  000D5C  00000000           	ddw	0	; CC_ADDR_SPACE=Data
  6090  000D60  00000002           	ddw	__ccovbit4_34/(0+8)	; CC_ADDR
  6091  000D64  00000001           	ddw	1	; NUM_POINTS
  6092  000D68  00000007           	ddw	__ccovbit4_34& (0+7)	; OFFSET
  6093  000D6C  00000000           	ddw	0	; Reserved
  6094  000D70  FFFFFFFF           	ddw	4294967295	; RANGE_SPACE=restricted
  6095  000D74  00000005           	ddw	5	; NUM_RANGES
  6096  000D78  00001898           	ddw	__ccov130_start_blk4	; block 4 START_ADDR
  6097  000D7C  000018A0           	ddw	__end_of_init_mutex	; block 4 END_ADDR
  6098  000D80  00001878           	ddw	__ccov129_start_blk3	; block 3 START_ADDR
  6099  000D84  00001898           	ddw	__ccov129_end_blk3	; block 3 END_ADDR
  6100  000D88  00001858           	ddw	__ccov128_start_blk2	; block 2 START_ADDR
  6101  000D8C  00001878           	ddw	__ccov128_end_blk2	; block 2 END_ADDR
  6102  000D90  00001838           	ddw	__ccov127_start_blk1	; block 1 START_ADDR
  6103  000D94  00001858           	ddw	__ccov127_end_blk1	; block 1 END_ADDR
  6104  000D98  00001828           	ddw	_init_mutex	; block 0 START_ADDR
  6105  000D9C  00001838           	ddw	__ccov126_end_blk0	; block 0 END_ADDR
  6106                           
  6107                           ; Function: lock, coverage: 2,1,0
  6108  000DA0  00000000           	ddw	0	; CC_ADDR_SPACE=Data
  6109  000DA4  00000002           	ddw	__ccovbit2_35/(0+8)	; CC_ADDR
  6110  000DA8  00000001           	ddw	1	; NUM_POINTS
  6111  000DAC  00000006           	ddw	__ccovbit2_35& (0+7)	; OFFSET
  6112  000DB0  00000000           	ddw	0	; Reserved
  6113  000DB4  FFFFFFFF           	ddw	4294967295	; RANGE_SPACE=restricted
  6114  000DB8  00000003           	ddw	3	; NUM_RANGES
  6115  000DBC  000005BE           	ddw	__ccov133_start_blk2	; block 2 START_ADDR
  6116  000DC0  000005D4           	ddw	__ccov133_end_blk2	; block 2 END_ADDR
  6117  000DC4  000005A2           	ddw	__ccov132_start_blk1	; block 1 START_ADDR
  6118  000DC8  000005BE           	ddw	__ccov132_end_blk1	; block 1 END_ADDR
  6119  000DCC  00000598           	ddw	_lock	; block 0 START_ADDR
  6120  000DD0  000005A2           	ddw	__ccov131_end_blk0	; block 0 END_ADDR
  6121                           
  6122                           ; Function: lock, coverage: 16,15,14,12,11,10,8,7,6,5,4,1,0
  6123  000DD4  00000000           	ddw	0	; CC_ADDR_SPACE=Data
  6124  000DD8  00000002           	ddw	__ccovbit16_36/(0+8)	; CC_ADDR
  6125  000DDC  00000001           	ddw	1	; NUM_POINTS
  6126  000DE0  00000005           	ddw	__ccovbit16_36& (0+7)	; OFFSET
  6127  000DE4  00000000           	ddw	0	; Reserved
  6128  000DE8  FFFFFFFF           	ddw	4294967295	; RANGE_SPACE=restricted
  6129  000DEC  0000000D           	ddw	13	; NUM_RANGES
  6130  000DF0  00000824           	ddw	__ccov144_start_blk16	; block 16 START_ADDR
  6131  000DF4  00000836           	ddw	__ccov144_end_blk16	; block 16 END_ADDR
  6132  000DF8  00000806           	ddw	__ccov143_start_blk15	; block 15 START_ADDR
  6133  000DFC  00000824           	ddw	__ccov143_end_blk15	; block 15 END_ADDR
  6134  000E00  00000798           	ddw	__ccov142_start_blk14	; block 14 START_ADDR
  6135  000E04  00000806           	ddw	__ccov142_end_blk14	; block 14 END_ADDR
  6136  000E08  000006E0           	ddw	__ccov141_start_blk12	; block 12 START_ADDR
  6137  000E0C  00000798           	ddw	__ccov141_end_blk12	; block 12 END_ADDR
  6138  000E10  000006A6           	ddw	__ccov140_start_blk11	; block 11 START_ADDR
  6139  000E14  000006E0           	ddw	__ccov140_end_blk11	; block 11 END_ADDR
  6140  000E18  000006A4           	ddw	__ccov139_start_blk10	; block 10 START_ADDR
  6141  000E1C  000006A6           	ddw	__ccov139_end_blk10	; block 10 END_ADDR
  6142  000E20  00000698           	ddw	__ccov138_start_blk8	; block 8 START_ADDR
  6143  000E24  000006A4           	ddw	__ccov138_end_blk8	; block 8 END_ADDR
  6144  000E28  00000690           	ddw	__ccov137_start_blk7	; block 7 START_ADDR
  6145  000E2C  00000698           	ddw	__ccov137_end_blk7	; block 7 END_ADDR
  6146  000E30  00000672           	ddw	__ccov136_start_blk6	; block 6 START_ADDR
  6147  000E34  00000690           	ddw	__ccov136_end_blk6	; block 6 END_ADDR
  6148  000E38  00000622           	ddw	__ccov135_start_blk5	; block 5 START_ADDR
  6149  000E3C  00000672           	ddw	__ccov135_end_blk5	; block 5 END_ADDR
  6150  000E40  000005D4           	ddw	__ccov134_start_blk4	; block 4 START_ADDR
  6151  000E44  00000622           	ddw	__ccov134_end_blk4	; block 4 END_ADDR
  6152  000E48  000005A2           	ddw	__ccov132_start_blk1	; block 1 START_ADDR
  6153  000E4C  000005BE           	ddw	__ccov132_end_blk1	; block 1 END_ADDR
  6154  000E50  00000598           	ddw	_lock	; block 0 START_ADDR
  6155  000E54  000005A2           	ddw	__ccov131_end_blk0	; block 0 END_ADDR
  6156                           
  6157                           ; Function: lock, coverage: 19,18,16,15,14,12,11,10,8,7,6,5,4,1,0
  6158  000E58  00000000           	ddw	0	; CC_ADDR_SPACE=Data
  6159  000E5C  00000002           	ddw	__ccovbit19_37/(0+8)	; CC_ADDR
  6160  000E60  00000001           	ddw	1	; NUM_POINTS
  6161  000E64  00000004           	ddw	__ccovbit19_37& (0+7)	; OFFSET
  6162  000E68  00000000           	ddw	0	; Reserved
  6163  000E6C  FFFFFFFF           	ddw	4294967295	; RANGE_SPACE=restricted
  6164  000E70  0000000F           	ddw	15	; NUM_RANGES
  6165  000E74  00000876           	ddw	__ccov146_start_blk19	; block 19 START_ADDR
  6166  000E78  000008A6           	ddw	__ccov146_end_blk19	; block 19 END_ADDR
  6167  000E7C  00000836           	ddw	__ccov145_start_blk18	; block 18 START_ADDR
  6168  000E80  00000876           	ddw	__ccov145_end_blk18	; block 18 END_ADDR
  6169  000E84  00000824           	ddw	__ccov144_start_blk16	; block 16 START_ADDR
  6170  000E88  00000836           	ddw	__ccov144_end_blk16	; block 16 END_ADDR
  6171  000E8C  00000806           	ddw	__ccov143_start_blk15	; block 15 START_ADDR
  6172  000E90  00000824           	ddw	__ccov143_end_blk15	; block 15 END_ADDR
  6173  000E94  00000798           	ddw	__ccov142_start_blk14	; block 14 START_ADDR
  6174  000E98  00000806           	ddw	__ccov142_end_blk14	; block 14 END_ADDR
  6175  000E9C  000006E0           	ddw	__ccov141_start_blk12	; block 12 START_ADDR
  6176  000EA0  00000798           	ddw	__ccov141_end_blk12	; block 12 END_ADDR
  6177  000EA4  000006A6           	ddw	__ccov140_start_blk11	; block 11 START_ADDR
  6178  000EA8  000006E0           	ddw	__ccov140_end_blk11	; block 11 END_ADDR
  6179  000EAC  000006A4           	ddw	__ccov139_start_blk10	; block 10 START_ADDR
  6180  000EB0  000006A6           	ddw	__ccov139_end_blk10	; block 10 END_ADDR
  6181  000EB4  00000698           	ddw	__ccov138_start_blk8	; block 8 START_ADDR
  6182  000EB8  000006A4           	ddw	__ccov138_end_blk8	; block 8 END_ADDR
  6183  000EBC  00000690           	ddw	__ccov137_start_blk7	; block 7 START_ADDR
  6184  000EC0  00000698           	ddw	__ccov137_end_blk7	; block 7 END_ADDR
  6185  000EC4  00000672           	ddw	__ccov136_start_blk6	; block 6 START_ADDR
  6186  000EC8  00000690           	ddw	__ccov136_end_blk6	; block 6 END_ADDR
  6187  000ECC  00000622           	ddw	__ccov135_start_blk5	; block 5 START_ADDR
  6188  000ED0  00000672           	ddw	__ccov135_end_blk5	; block 5 END_ADDR
  6189  000ED4  000005D4           	ddw	__ccov134_start_blk4	; block 4 START_ADDR
  6190  000ED8  00000622           	ddw	__ccov134_end_blk4	; block 4 END_ADDR
  6191  000EDC  000005A2           	ddw	__ccov132_start_blk1	; block 1 START_ADDR
  6192  000EE0  000005BE           	ddw	__ccov132_end_blk1	; block 1 END_ADDR
  6193  000EE4  00000598           	ddw	_lock	; block 0 START_ADDR
  6194  000EE8  000005A2           	ddw	__ccov131_end_blk0	; block 0 END_ADDR
  6195                           
  6196                           ; Function: lock, coverage: 33,32,35,30,29,28,27,25,24,23,21,11,10,8,7,6,5,4,1,0
  6197  000EEC  00000000           	ddw	0	; CC_ADDR_SPACE=Data
  6198  000EF0  00000002           	ddw	__ccovbit33_38/(0+8)	; CC_ADDR
  6199  000EF4  00000001           	ddw	1	; NUM_POINTS
  6200  000EF8  00000003           	ddw	__ccovbit33_38& (0+7)	; OFFSET
  6201  000EFC  00000000           	ddw	0	; Reserved
  6202  000F00  FFFFFFFF           	ddw	4294967295	; RANGE_SPACE=restricted
  6203  000F04  00000014           	ddw	20	; NUM_RANGES
  6204  000F08  000009E8           	ddw	__ccov156_start_blk33	; block 33 START_ADDR
  6205  000F0C  00000A56           	ddw	__ccov156_end_blk33	; block 33 END_ADDR
  6206  000F10  000009C6           	ddw	__ccov155_start_blk32	; block 32 START_ADDR
  6207  000F14  000009E8           	ddw	__ccov155_end_blk32	; block 32 END_ADDR
  6208  000F18  00000A56           	ddw	__ccov157_start_blk35	; block 35 START_ADDR
  6209  000F1C  00000A76           	ddw	__ccov157_end_blk35	; block 35 END_ADDR
  6210  000F20  00000936           	ddw	__ccov154_start_blk30	; block 30 START_ADDR
  6211  000F24  000009C6           	ddw	__ccov154_end_blk30	; block 30 END_ADDR
  6212  000F28  000008FA           	ddw	__ccov153_start_blk29	; block 29 START_ADDR
  6213  000F2C  00000936           	ddw	__ccov153_end_blk29	; block 29 END_ADDR
  6214  000F30  000008F8           	ddw	__ccov152_start_blk28	; block 28 START_ADDR
  6215  000F34  000008FA           	ddw	__ccov152_end_blk28	; block 28 END_ADDR
  6216  000F38  000008F6           	ddw	__ccov151_start_blk27	; block 27 START_ADDR
  6217  000F3C  000008F8           	ddw	__ccov151_end_blk27	; block 27 END_ADDR
  6218  000F40  000008B8           	ddw	__ccov150_start_blk25	; block 25 START_ADDR
  6219  000F44  000008F6           	ddw	__ccov150_end_blk25	; block 25 END_ADDR
  6220  000F48  000008AC           	ddw	__ccov149_start_blk24	; block 24 START_ADDR
  6221  000F4C  000008B8           	ddw	__ccov149_end_blk24	; block 24 END_ADDR
  6222  000F50  000008A8           	ddw	__ccov148_start_blk23	; block 23 START_ADDR
  6223  000F54  000008AC           	ddw	__ccov148_end_blk23	; block 23 END_ADDR
  6224  000F58  000008A6           	ddw	__ccov147_start_blk21	; block 21 START_ADDR
  6225  000F5C  000008A8           	ddw	__ccov147_end_blk21	; block 21 END_ADDR
  6226  000F60  000006A6           	ddw	__ccov140_start_blk11	; block 11 START_ADDR
  6227  000F64  000006E0           	ddw	__ccov140_end_blk11	; block 11 END_ADDR
  6228  000F68  000006A4           	ddw	__ccov139_start_blk10	; block 10 START_ADDR
  6229  000F6C  000006A6           	ddw	__ccov139_end_blk10	; block 10 END_ADDR
  6230  000F70  00000698           	ddw	__ccov138_start_blk8	; block 8 START_ADDR
  6231  000F74  000006A4           	ddw	__ccov138_end_blk8	; block 8 END_ADDR
  6232  000F78  00000690           	ddw	__ccov137_start_blk7	; block 7 START_ADDR
  6233  000F7C  00000698           	ddw	__ccov137_end_blk7	; block 7 END_ADDR
  6234  000F80  00000672           	ddw	__ccov136_start_blk6	; block 6 START_ADDR
  6235  000F84  00000690           	ddw	__ccov136_end_blk6	; block 6 END_ADDR
  6236  000F88  00000622           	ddw	__ccov135_start_blk5	; block 5 START_ADDR
  6237  000F8C  00000672           	ddw	__ccov135_end_blk5	; block 5 END_ADDR
  6238  000F90  000005D4           	ddw	__ccov134_start_blk4	; block 4 START_ADDR
  6239  000F94  00000622           	ddw	__ccov134_end_blk4	; block 4 END_ADDR
  6240  000F98  000005A2           	ddw	__ccov132_start_blk1	; block 1 START_ADDR
  6241  000F9C  000005BE           	ddw	__ccov132_end_blk1	; block 1 END_ADDR
  6242  000FA0  00000598           	ddw	_lock	; block 0 START_ADDR
  6243  000FA4  000005A2           	ddw	__ccov131_end_blk0	; block 0 END_ADDR
  6244                           
  6245                           ; Function: lock, coverage: 35,30,29,28,27,25,24,23,21,11,10,8,7,6,5,4,1,0
  6246  000FA8  00000000           	ddw	0	; CC_ADDR_SPACE=Data
  6247  000FAC  00000002           	ddw	__ccovbit35_39/(0+8)	; CC_ADDR
  6248  000FB0  00000001           	ddw	1	; NUM_POINTS
  6249  000FB4  00000002           	ddw	__ccovbit35_39& (0+7)	; OFFSET
  6250  000FB8  00000000           	ddw	0	; Reserved
  6251  000FBC  FFFFFFFF           	ddw	4294967295	; RANGE_SPACE=restricted
  6252  000FC0  00000012           	ddw	18	; NUM_RANGES
  6253  000FC4  00000A56           	ddw	__ccov157_start_blk35	; block 35 START_ADDR
  6254  000FC8  00000A76           	ddw	__ccov157_end_blk35	; block 35 END_ADDR
  6255  000FCC  00000936           	ddw	__ccov154_start_blk30	; block 30 START_ADDR
  6256  000FD0  000009C6           	ddw	__ccov154_end_blk30	; block 30 END_ADDR
  6257  000FD4  000008FA           	ddw	__ccov153_start_blk29	; block 29 START_ADDR
  6258  000FD8  00000936           	ddw	__ccov153_end_blk29	; block 29 END_ADDR
  6259  000FDC  000008F8           	ddw	__ccov152_start_blk28	; block 28 START_ADDR
  6260  000FE0  000008FA           	ddw	__ccov152_end_blk28	; block 28 END_ADDR
  6261  000FE4  000008F6           	ddw	__ccov151_start_blk27	; block 27 START_ADDR
  6262  000FE8  000008F8           	ddw	__ccov151_end_blk27	; block 27 END_ADDR
  6263  000FEC  000008B8           	ddw	__ccov150_start_blk25	; block 25 START_ADDR
  6264  000FF0  000008F6           	ddw	__ccov150_end_blk25	; block 25 END_ADDR
  6265  000FF4  000008AC           	ddw	__ccov149_start_blk24	; block 24 START_ADDR
  6266  000FF8  000008B8           	ddw	__ccov149_end_blk24	; block 24 END_ADDR
  6267  000FFC  000008A8           	ddw	__ccov148_start_blk23	; block 23 START_ADDR
  6268  001000  000008AC           	ddw	__ccov148_end_blk23	; block 23 END_ADDR
  6269  001004  000008A6           	ddw	__ccov147_start_blk21	; block 21 START_ADDR
  6270  001008  000008A8           	ddw	__ccov147_end_blk21	; block 21 END_ADDR
  6271  00100C  000006A6           	ddw	__ccov140_start_blk11	; block 11 START_ADDR
  6272  001010  000006E0           	ddw	__ccov140_end_blk11	; block 11 END_ADDR
  6273  001014  000006A4           	ddw	__ccov139_start_blk10	; block 10 START_ADDR
  6274  001018  000006A6           	ddw	__ccov139_end_blk10	; block 10 END_ADDR
  6275  00101C  00000698           	ddw	__ccov138_start_blk8	; block 8 START_ADDR
  6276  001020  000006A4           	ddw	__ccov138_end_blk8	; block 8 END_ADDR
  6277  001024  00000690           	ddw	__ccov137_start_blk7	; block 7 START_ADDR
  6278  001028  00000698           	ddw	__ccov137_end_blk7	; block 7 END_ADDR
  6279  00102C  00000672           	ddw	__ccov136_start_blk6	; block 6 START_ADDR
  6280  001030  00000690           	ddw	__ccov136_end_blk6	; block 6 END_ADDR
  6281  001034  00000622           	ddw	__ccov135_start_blk5	; block 5 START_ADDR
  6282  001038  00000672           	ddw	__ccov135_end_blk5	; block 5 END_ADDR
  6283  00103C  000005D4           	ddw	__ccov134_start_blk4	; block 4 START_ADDR
  6284  001040  00000622           	ddw	__ccov134_end_blk4	; block 4 END_ADDR
  6285  001044  000005A2           	ddw	__ccov132_start_blk1	; block 1 START_ADDR
  6286  001048  000005BE           	ddw	__ccov132_end_blk1	; block 1 END_ADDR
  6287  00104C  00000598           	ddw	_lock	; block 0 START_ADDR
  6288  001050  000005A2           	ddw	__ccov131_end_blk0	; block 0 END_ADDR
  6289                           
  6290                           ; Function: lock, coverage: 38,37,29,28,27,25,24,23,21,11,10,8,7,6,5,4,1,0
  6291  001054  00000000           	ddw	0	; CC_ADDR_SPACE=Data
  6292  001058  00000002           	ddw	__ccovbit38_40/(0+8)	; CC_ADDR
  6293  00105C  00000001           	ddw	1	; NUM_POINTS
  6294  001060  00000001           	ddw	__ccovbit38_40& (0+7)	; OFFSET
  6295  001064  00000000           	ddw	0	; Reserved
  6296  001068  FFFFFFFF           	ddw	4294967295	; RANGE_SPACE=restricted
  6297  00106C  00000012           	ddw	18	; NUM_RANGES
  6298  001070  00000A78           	ddw	__ccov159_start_blk38	; block 38 START_ADDR
  6299  001074  00000AB6           	ddw	__ccov159_end_blk38	; block 38 END_ADDR
  6300  001078  00000A76           	ddw	__ccov158_start_blk37	; block 37 START_ADDR
  6301  00107C  00000A78           	ddw	__ccov158_end_blk37	; block 37 END_ADDR
  6302  001080  000008FA           	ddw	__ccov153_start_blk29	; block 29 START_ADDR
  6303  001084  00000936           	ddw	__ccov153_end_blk29	; block 29 END_ADDR
  6304  001088  000008F8           	ddw	__ccov152_start_blk28	; block 28 START_ADDR
  6305  00108C  000008FA           	ddw	__ccov152_end_blk28	; block 28 END_ADDR
  6306  001090  000008F6           	ddw	__ccov151_start_blk27	; block 27 START_ADDR
  6307  001094  000008F8           	ddw	__ccov151_end_blk27	; block 27 END_ADDR
  6308  001098  000008B8           	ddw	__ccov150_start_blk25	; block 25 START_ADDR
  6309  00109C  000008F6           	ddw	__ccov150_end_blk25	; block 25 END_ADDR
  6310  0010A0  000008AC           	ddw	__ccov149_start_blk24	; block 24 START_ADDR
  6311  0010A4  000008B8           	ddw	__ccov149_end_blk24	; block 24 END_ADDR
  6312  0010A8  000008A8           	ddw	__ccov148_start_blk23	; block 23 START_ADDR
  6313  0010AC  000008AC           	ddw	__ccov148_end_blk23	; block 23 END_ADDR
  6314  0010B0  000008A6           	ddw	__ccov147_start_blk21	; block 21 START_ADDR
  6315  0010B4  000008A8           	ddw	__ccov147_end_blk21	; block 21 END_ADDR
  6316  0010B8  000006A6           	ddw	__ccov140_start_blk11	; block 11 START_ADDR
  6317  0010BC  000006E0           	ddw	__ccov140_end_blk11	; block 11 END_ADDR
  6318  0010C0  000006A4           	ddw	__ccov139_start_blk10	; block 10 START_ADDR
  6319  0010C4  000006A6           	ddw	__ccov139_end_blk10	; block 10 END_ADDR
  6320  0010C8  00000698           	ddw	__ccov138_start_blk8	; block 8 START_ADDR
  6321  0010CC  000006A4           	ddw	__ccov138_end_blk8	; block 8 END_ADDR
  6322  0010D0  00000690           	ddw	__ccov137_start_blk7	; block 7 START_ADDR
  6323  0010D4  00000698           	ddw	__ccov137_end_blk7	; block 7 END_ADDR
  6324  0010D8  00000672           	ddw	__ccov136_start_blk6	; block 6 START_ADDR
  6325  0010DC  00000690           	ddw	__ccov136_end_blk6	; block 6 END_ADDR
  6326  0010E0  00000622           	ddw	__ccov135_start_blk5	; block 5 START_ADDR
  6327  0010E4  00000672           	ddw	__ccov135_end_blk5	; block 5 END_ADDR
  6328  0010E8  000005D4           	ddw	__ccov134_start_blk4	; block 4 START_ADDR
  6329  0010EC  00000622           	ddw	__ccov134_end_blk4	; block 4 END_ADDR
  6330  0010F0  000005A2           	ddw	__ccov132_start_blk1	; block 1 START_ADDR
  6331  0010F4  000005BE           	ddw	__ccov132_end_blk1	; block 1 END_ADDR
  6332  0010F8  00000598           	ddw	_lock	; block 0 START_ADDR
  6333  0010FC  000005A2           	ddw	__ccov131_end_blk0	; block 0 END_ADDR
  6334                           
  6335                           ; Function: lock, coverage: 40,39,29,28,27,25,24,23,21,11,10,8,7,6,5,4,1,0
  6336  001100  00000000           	ddw	0	; CC_ADDR_SPACE=Data
  6337  001104  00000002           	ddw	__ccovbit40_41/(0+8)	; CC_ADDR
  6338  001108  00000001           	ddw	1	; NUM_POINTS
  6339  00110C  00000000           	ddw	__ccovbit40_41& (0+7)	; OFFSET
  6340  001110  00000000           	ddw	0	; Reserved
  6341  001114  FFFFFFFF           	ddw	4294967295	; RANGE_SPACE=restricted
  6342  001118  00000012           	ddw	18	; NUM_RANGES
  6343  00111C  00000AE4           	ddw	__ccov161_start_blk40	; block 40 START_ADDR
  6344  001120  00000AE8           	ddw	__ccov161_end_blk40	; block 40 END_ADDR
  6345  001124  00000AB6           	ddw	__ccov160_start_blk39	; block 39 START_ADDR
  6346  001128  00000AE4           	ddw	__ccov160_end_blk39	; block 39 END_ADDR
  6347  00112C  000008FA           	ddw	__ccov153_start_blk29	; block 29 START_ADDR
  6348  001130  00000936           	ddw	__ccov153_end_blk29	; block 29 END_ADDR
  6349  001134  000008F8           	ddw	__ccov152_start_blk28	; block 28 START_ADDR
  6350  001138  000008FA           	ddw	__ccov152_end_blk28	; block 28 END_ADDR
  6351  00113C  000008F6           	ddw	__ccov151_start_blk27	; block 27 START_ADDR
  6352  001140  000008F8           	ddw	__ccov151_end_blk27	; block 27 END_ADDR
  6353  001144  000008B8           	ddw	__ccov150_start_blk25	; block 25 START_ADDR
  6354  001148  000008F6           	ddw	__ccov150_end_blk25	; block 25 END_ADDR
  6355  00114C  000008AC           	ddw	__ccov149_start_blk24	; block 24 START_ADDR
  6356  001150  000008B8           	ddw	__ccov149_end_blk24	; block 24 END_ADDR
  6357  001154  000008A8           	ddw	__ccov148_start_blk23	; block 23 START_ADDR
  6358  001158  000008AC           	ddw	__ccov148_end_blk23	; block 23 END_ADDR
  6359  00115C  000008A6           	ddw	__ccov147_start_blk21	; block 21 START_ADDR
  6360  001160  000008A8           	ddw	__ccov147_end_blk21	; block 21 END_ADDR
  6361  001164  000006A6           	ddw	__ccov140_start_blk11	; block 11 START_ADDR
  6362  001168  000006E0           	ddw	__ccov140_end_blk11	; block 11 END_ADDR
  6363  00116C  000006A4           	ddw	__ccov139_start_blk10	; block 10 START_ADDR
  6364  001170  000006A6           	ddw	__ccov139_end_blk10	; block 10 END_ADDR
  6365  001174  00000698           	ddw	__ccov138_start_blk8	; block 8 START_ADDR
  6366  001178  000006A4           	ddw	__ccov138_end_blk8	; block 8 END_ADDR
  6367  00117C  00000690           	ddw	__ccov137_start_blk7	; block 7 START_ADDR
  6368  001180  00000698           	ddw	__ccov137_end_blk7	; block 7 END_ADDR
  6369  001184  00000672           	ddw	__ccov136_start_blk6	; block 6 START_ADDR
  6370  001188  00000690           	ddw	__ccov136_end_blk6	; block 6 END_ADDR
  6371  00118C  00000622           	ddw	__ccov135_start_blk5	; block 5 START_ADDR
  6372  001190  00000672           	ddw	__ccov135_end_blk5	; block 5 END_ADDR
  6373  001194  000005D4           	ddw	__ccov134_start_blk4	; block 4 START_ADDR
  6374  001198  00000622           	ddw	__ccov134_end_blk4	; block 4 END_ADDR
  6375  00119C  000005A2           	ddw	__ccov132_start_blk1	; block 1 START_ADDR
  6376  0011A0  000005BE           	ddw	__ccov132_end_blk1	; block 1 END_ADDR
  6377  0011A4  00000598           	ddw	_lock	; block 0 START_ADDR
  6378  0011A8  000005A2           	ddw	__ccov131_end_blk0	; block 0 END_ADDR
  6379                           
  6380                           ; Function: lock, coverage: 44,43,1,0
  6381  0011AC  00000000           	ddw	0	; CC_ADDR_SPACE=Data
  6382  0011B0  00000001           	ddw	__ccovbit44_42/(0+8)	; CC_ADDR
  6383  0011B4  00000001           	ddw	1	; NUM_POINTS
  6384  0011B8  00000007           	ddw	__ccovbit44_42& (0+7)	; OFFSET
  6385  0011BC  00000000           	ddw	0	; Reserved
  6386  0011C0  FFFFFFFF           	ddw	4294967295	; RANGE_SPACE=restricted
  6387  0011C4  00000004           	ddw	4	; NUM_RANGES
  6388  0011C8  00000AEA           	ddw	__ccov163_start_blk44	; block 44 START_ADDR
  6389  0011CC  00000AF6           	ddw	__end_of_lock	; block 44 END_ADDR
  6390  0011D0  00000AE8           	ddw	__ccov162_start_blk43	; block 43 START_ADDR
  6391  0011D4  00000AEA           	ddw	__ccov162_end_blk43	; block 43 END_ADDR
  6392  0011D8  000005A2           	ddw	__ccov132_start_blk1	; block 1 START_ADDR
  6393  0011DC  000005BE           	ddw	__ccov132_end_blk1	; block 1 END_ADDR
  6394  0011E0  00000598           	ddw	_lock	; block 0 START_ADDR
  6395  0011E4  000005A2           	ddw	__ccov131_end_blk0	; block 0 END_ADDR
  6396                           
  6397                           ; Function: unlock, coverage: 15,14,13,11,10,9,7,6,5,4,3,2,1,0
  6398  0011E8  00000000           	ddw	0	; CC_ADDR_SPACE=Data
  6399  0011EC  00000001           	ddw	__ccovbit15_43/(0+8)	; CC_ADDR
  6400  0011F0  00000001           	ddw	1	; NUM_POINTS
  6401  0011F4  00000006           	ddw	__ccovbit15_43& (0+7)	; OFFSET
  6402  0011F8  00000000           	ddw	0	; Reserved
  6403  0011FC  FFFFFFFF           	ddw	4294967295	; RANGE_SPACE=restricted
  6404  001200  0000000E           	ddw	14	; NUM_RANGES
  6405  001204  000002C6           	ddw	__ccov177_start_blk15	; block 15 START_ADDR
  6406  001208  000002D8           	ddw	__ccov177_end_blk15	; block 15 END_ADDR
  6407  00120C  000002A8           	ddw	__ccov176_start_blk14	; block 14 START_ADDR
  6408  001210  000002C6           	ddw	__ccov176_end_blk14	; block 14 END_ADDR
  6409  001214  0000023A           	ddw	__ccov175_start_blk13	; block 13 START_ADDR
  6410  001218  000002A8           	ddw	__ccov175_end_blk13	; block 13 END_ADDR
  6411  00121C  00000182           	ddw	__ccov174_start_blk11	; block 11 START_ADDR
  6412  001220  0000023A           	ddw	__ccov174_end_blk11	; block 11 END_ADDR
  6413  001224  00000148           	ddw	__ccov173_start_blk10	; block 10 START_ADDR
  6414  001228  00000182           	ddw	__ccov173_end_blk10	; block 10 END_ADDR
  6415  00122C  00000146           	ddw	__ccov172_start_blk9	; block 9 START_ADDR
  6416  001230  00000148           	ddw	__ccov172_end_blk9	; block 9 END_ADDR
  6417  001234  0000013A           	ddw	__ccov171_start_blk7	; block 7 START_ADDR
  6418  001238  00000146           	ddw	__ccov171_end_blk7	; block 7 END_ADDR
  6419  00123C  00000132           	ddw	__ccov170_start_blk6	; block 6 START_ADDR
  6420  001240  0000013A           	ddw	__ccov170_end_blk6	; block 6 END_ADDR
  6421  001244  00000114           	ddw	__ccov169_start_blk5	; block 5 START_ADDR
  6422  001248  00000132           	ddw	__ccov169_end_blk5	; block 5 END_ADDR
  6423  00124C  000000C4           	ddw	__ccov168_start_blk4	; block 4 START_ADDR
  6424  001250  00000114           	ddw	__ccov168_end_blk4	; block 4 END_ADDR
  6425  001254  00000058           	ddw	__ccov167_start_blk3	; block 3 START_ADDR
  6426  001258  000000C4           	ddw	__ccov167_end_blk3	; block 3 END_ADDR
  6427  00125C  0000002E           	ddw	__ccov166_start_blk2	; block 2 START_ADDR
  6428  001260  00000058           	ddw	__ccov166_end_blk2	; block 2 END_ADDR
  6429  001264  0000001E           	ddw	__ccov165_start_blk1	; block 1 START_ADDR
  6430  001268  0000002E           	ddw	__ccov165_end_blk1	; block 1 END_ADDR
  6431  00126C  00000014           	ddw	_unlock	; block 0 START_ADDR
  6432  001270  0000001E           	ddw	__ccov164_end_blk0	; block 0 END_ADDR
  6433                           
  6434                           ; Function: unlock, coverage: 18,17,15,14,13,11,10,9,7,6,5,4,3,2,1,0
  6435  001274  00000000           	ddw	0	; CC_ADDR_SPACE=Data
  6436  001278  00000001           	ddw	__ccovbit18_44/(0+8)	; CC_ADDR
  6437  00127C  00000001           	ddw	1	; NUM_POINTS
  6438  001280  00000005           	ddw	__ccovbit18_44& (0+7)	; OFFSET
  6439  001284  00000000           	ddw	0	; Reserved
  6440  001288  FFFFFFFF           	ddw	4294967295	; RANGE_SPACE=restricted
  6441  00128C  00000010           	ddw	16	; NUM_RANGES
  6442  001290  00000318           	ddw	__ccov179_start_blk18	; block 18 START_ADDR
  6443  001294  00000348           	ddw	__ccov179_end_blk18	; block 18 END_ADDR
  6444  001298  000002D8           	ddw	__ccov178_start_blk17	; block 17 START_ADDR
  6445  00129C  00000318           	ddw	__ccov178_end_blk17	; block 17 END_ADDR
  6446  0012A0  000002C6           	ddw	__ccov177_start_blk15	; block 15 START_ADDR
  6447  0012A4  000002D8           	ddw	__ccov177_end_blk15	; block 15 END_ADDR
  6448  0012A8  000002A8           	ddw	__ccov176_start_blk14	; block 14 START_ADDR
  6449  0012AC  000002C6           	ddw	__ccov176_end_blk14	; block 14 END_ADDR
  6450  0012B0  0000023A           	ddw	__ccov175_start_blk13	; block 13 START_ADDR
  6451  0012B4  000002A8           	ddw	__ccov175_end_blk13	; block 13 END_ADDR
  6452  0012B8  00000182           	ddw	__ccov174_start_blk11	; block 11 START_ADDR
  6453  0012BC  0000023A           	ddw	__ccov174_end_blk11	; block 11 END_ADDR
  6454  0012C0  00000148           	ddw	__ccov173_start_blk10	; block 10 START_ADDR
  6455  0012C4  00000182           	ddw	__ccov173_end_blk10	; block 10 END_ADDR
  6456  0012C8  00000146           	ddw	__ccov172_start_blk9	; block 9 START_ADDR
  6457  0012CC  00000148           	ddw	__ccov172_end_blk9	; block 9 END_ADDR
  6458  0012D0  0000013A           	ddw	__ccov171_start_blk7	; block 7 START_ADDR
  6459  0012D4  00000146           	ddw	__ccov171_end_blk7	; block 7 END_ADDR
  6460  0012D8  00000132           	ddw	__ccov170_start_blk6	; block 6 START_ADDR
  6461  0012DC  0000013A           	ddw	__ccov170_end_blk6	; block 6 END_ADDR
  6462  0012E0  00000114           	ddw	__ccov169_start_blk5	; block 5 START_ADDR
  6463  0012E4  00000132           	ddw	__ccov169_end_blk5	; block 5 END_ADDR
  6464  0012E8  000000C4           	ddw	__ccov168_start_blk4	; block 4 START_ADDR
  6465  0012EC  00000114           	ddw	__ccov168_end_blk4	; block 4 END_ADDR
  6466  0012F0  00000058           	ddw	__ccov167_start_blk3	; block 3 START_ADDR
  6467  0012F4  000000C4           	ddw	__ccov167_end_blk3	; block 3 END_ADDR
  6468  0012F8  0000002E           	ddw	__ccov166_start_blk2	; block 2 START_ADDR
  6469  0012FC  00000058           	ddw	__ccov166_end_blk2	; block 2 END_ADDR
  6470  001300  0000001E           	ddw	__ccov165_start_blk1	; block 1 START_ADDR
  6471  001304  0000002E           	ddw	__ccov165_end_blk1	; block 1 END_ADDR
  6472  001308  00000014           	ddw	_unlock	; block 0 START_ADDR
  6473  00130C  0000001E           	ddw	__ccov164_end_blk0	; block 0 END_ADDR
  6474                           
  6475                           ; Function: unlock, coverage: 32,31,34,29,28,27,26,24,23,22,20,10,9,7,6,5,4,3,2,1,0
  6476  001310  00000000           	ddw	0	; CC_ADDR_SPACE=Data
  6477  001314  00000001           	ddw	__ccovbit32_45/(0+8)	; CC_ADDR
  6478  001318  00000001           	ddw	1	; NUM_POINTS
  6479  00131C  00000004           	ddw	__ccovbit32_45& (0+7)	; OFFSET
  6480  001320  00000000           	ddw	0	; Reserved
  6481  001324  FFFFFFFF           	ddw	4294967295	; RANGE_SPACE=restricted
  6482  001328  00000015           	ddw	21	; NUM_RANGES
  6483  00132C  0000048A           	ddw	__ccov189_start_blk32	; block 32 START_ADDR
  6484  001330  000004F8           	ddw	__ccov189_end_blk32	; block 32 END_ADDR
  6485  001334  00000468           	ddw	__ccov188_start_blk31	; block 31 START_ADDR
  6486  001338  0000048A           	ddw	__ccov188_end_blk31	; block 31 END_ADDR
  6487  00133C  000004F8           	ddw	__ccov190_start_blk34	; block 34 START_ADDR
  6488  001340  00000518           	ddw	__ccov190_end_blk34	; block 34 END_ADDR
  6489  001344  000003D8           	ddw	__ccov187_start_blk29	; block 29 START_ADDR
  6490  001348  00000468           	ddw	__ccov187_end_blk29	; block 29 END_ADDR
  6491  00134C  0000039C           	ddw	__ccov186_start_blk28	; block 28 START_ADDR
  6492  001350  000003D8           	ddw	__ccov186_end_blk28	; block 28 END_ADDR
  6493  001354  0000039A           	ddw	__ccov185_start_blk27	; block 27 START_ADDR
  6494  001358  0000039C           	ddw	__ccov185_end_blk27	; block 27 END_ADDR
  6495  00135C  00000398           	ddw	__ccov184_start_blk26	; block 26 START_ADDR
  6496  001360  0000039A           	ddw	__ccov184_end_blk26	; block 26 END_ADDR
  6497  001364  0000035A           	ddw	__ccov183_start_blk24	; block 24 START_ADDR
  6498  001368  00000398           	ddw	__ccov183_end_blk24	; block 24 END_ADDR
  6499  00136C  0000034E           	ddw	__ccov182_start_blk23	; block 23 START_ADDR
  6500  001370  0000035A           	ddw	__ccov182_end_blk23	; block 23 END_ADDR
  6501  001374  0000034A           	ddw	__ccov181_start_blk22	; block 22 START_ADDR
  6502  001378  0000034E           	ddw	__ccov181_end_blk22	; block 22 END_ADDR
  6503  00137C  00000348           	ddw	__ccov180_start_blk20	; block 20 START_ADDR
  6504  001380  0000034A           	ddw	__ccov180_end_blk20	; block 20 END_ADDR
  6505  001384  00000148           	ddw	__ccov173_start_blk10	; block 10 START_ADDR
  6506  001388  00000182           	ddw	__ccov173_end_blk10	; block 10 END_ADDR
  6507  00138C  00000146           	ddw	__ccov172_start_blk9	; block 9 START_ADDR
  6508  001390  00000148           	ddw	__ccov172_end_blk9	; block 9 END_ADDR
  6509  001394  0000013A           	ddw	__ccov171_start_blk7	; block 7 START_ADDR
  6510  001398  00000146           	ddw	__ccov171_end_blk7	; block 7 END_ADDR
  6511  00139C  00000132           	ddw	__ccov170_start_blk6	; block 6 START_ADDR
  6512  0013A0  0000013A           	ddw	__ccov170_end_blk6	; block 6 END_ADDR
  6513  0013A4  00000114           	ddw	__ccov169_start_blk5	; block 5 START_ADDR
  6514  0013A8  00000132           	ddw	__ccov169_end_blk5	; block 5 END_ADDR
  6515  0013AC  000000C4           	ddw	__ccov168_start_blk4	; block 4 START_ADDR
  6516  0013B0  00000114           	ddw	__ccov168_end_blk4	; block 4 END_ADDR
  6517  0013B4  00000058           	ddw	__ccov167_start_blk3	; block 3 START_ADDR
  6518  0013B8  000000C4           	ddw	__ccov167_end_blk3	; block 3 END_ADDR
  6519  0013BC  0000002E           	ddw	__ccov166_start_blk2	; block 2 START_ADDR
  6520  0013C0  00000058           	ddw	__ccov166_end_blk2	; block 2 END_ADDR
  6521  0013C4  0000001E           	ddw	__ccov165_start_blk1	; block 1 START_ADDR
  6522  0013C8  0000002E           	ddw	__ccov165_end_blk1	; block 1 END_ADDR
  6523  0013CC  00000014           	ddw	_unlock	; block 0 START_ADDR
  6524  0013D0  0000001E           	ddw	__ccov164_end_blk0	; block 0 END_ADDR
  6525                           
  6526                           ; Function: unlock, coverage: 34,29,28,27,26,24,23,22,20,10,9,7,6,5,4,3,2,1,0
  6527  0013D4  00000000           	ddw	0	; CC_ADDR_SPACE=Data
  6528  0013D8  00000001           	ddw	__ccovbit34_46/(0+8)	; CC_ADDR
  6529  0013DC  00000001           	ddw	1	; NUM_POINTS
  6530  0013E0  00000003           	ddw	__ccovbit34_46& (0+7)	; OFFSET
  6531  0013E4  00000000           	ddw	0	; Reserved
  6532  0013E8  FFFFFFFF           	ddw	4294967295	; RANGE_SPACE=restricted
  6533  0013EC  00000013           	ddw	19	; NUM_RANGES
  6534  0013F0  000004F8           	ddw	__ccov190_start_blk34	; block 34 START_ADDR
  6535  0013F4  00000518           	ddw	__ccov190_end_blk34	; block 34 END_ADDR
  6536  0013F8  000003D8           	ddw	__ccov187_start_blk29	; block 29 START_ADDR
  6537  0013FC  00000468           	ddw	__ccov187_end_blk29	; block 29 END_ADDR
  6538  001400  0000039C           	ddw	__ccov186_start_blk28	; block 28 START_ADDR
  6539  001404  000003D8           	ddw	__ccov186_end_blk28	; block 28 END_ADDR
  6540  001408  0000039A           	ddw	__ccov185_start_blk27	; block 27 START_ADDR
  6541  00140C  0000039C           	ddw	__ccov185_end_blk27	; block 27 END_ADDR
  6542  001410  00000398           	ddw	__ccov184_start_blk26	; block 26 START_ADDR
  6543  001414  0000039A           	ddw	__ccov184_end_blk26	; block 26 END_ADDR
  6544  001418  0000035A           	ddw	__ccov183_start_blk24	; block 24 START_ADDR
  6545  00141C  00000398           	ddw	__ccov183_end_blk24	; block 24 END_ADDR
  6546  001420  0000034E           	ddw	__ccov182_start_blk23	; block 23 START_ADDR
  6547  001424  0000035A           	ddw	__ccov182_end_blk23	; block 23 END_ADDR
  6548  001428  0000034A           	ddw	__ccov181_start_blk22	; block 22 START_ADDR
  6549  00142C  0000034E           	ddw	__ccov181_end_blk22	; block 22 END_ADDR
  6550  001430  00000348           	ddw	__ccov180_start_blk20	; block 20 START_ADDR
  6551  001434  0000034A           	ddw	__ccov180_end_blk20	; block 20 END_ADDR
  6552  001438  00000148           	ddw	__ccov173_start_blk10	; block 10 START_ADDR
  6553  00143C  00000182           	ddw	__ccov173_end_blk10	; block 10 END_ADDR
  6554  001440  00000146           	ddw	__ccov172_start_blk9	; block 9 START_ADDR
  6555  001444  00000148           	ddw	__ccov172_end_blk9	; block 9 END_ADDR
  6556  001448  0000013A           	ddw	__ccov171_start_blk7	; block 7 START_ADDR
  6557  00144C  00000146           	ddw	__ccov171_end_blk7	; block 7 END_ADDR
  6558  001450  00000132           	ddw	__ccov170_start_blk6	; block 6 START_ADDR
  6559  001454  0000013A           	ddw	__ccov170_end_blk6	; block 6 END_ADDR
  6560  001458  00000114           	ddw	__ccov169_start_blk5	; block 5 START_ADDR
  6561  00145C  00000132           	ddw	__ccov169_end_blk5	; block 5 END_ADDR
  6562  001460  000000C4           	ddw	__ccov168_start_blk4	; block 4 START_ADDR
  6563  001464  00000114           	ddw	__ccov168_end_blk4	; block 4 END_ADDR
  6564  001468  00000058           	ddw	__ccov167_start_blk3	; block 3 START_ADDR
  6565  00146C  000000C4           	ddw	__ccov167_end_blk3	; block 3 END_ADDR
  6566  001470  0000002E           	ddw	__ccov166_start_blk2	; block 2 START_ADDR
  6567  001474  00000058           	ddw	__ccov166_end_blk2	; block 2 END_ADDR
  6568  001478  0000001E           	ddw	__ccov165_start_blk1	; block 1 START_ADDR
  6569  00147C  0000002E           	ddw	__ccov165_end_blk1	; block 1 END_ADDR
  6570  001480  00000014           	ddw	_unlock	; block 0 START_ADDR
  6571  001484  0000001E           	ddw	__ccov164_end_blk0	; block 0 END_ADDR
  6572                           
  6573                           ; Function: unlock, coverage: 37,36,28,27,26,24,23,22,20,10,9,7,6,5,4,3,2,1,0
  6574  001488  00000000           	ddw	0	; CC_ADDR_SPACE=Data
  6575  00148C  00000001           	ddw	__ccovbit37_47/(0+8)	; CC_ADDR
  6576  001490  00000001           	ddw	1	; NUM_POINTS
  6577  001494  00000002           	ddw	__ccovbit37_47& (0+7)	; OFFSET
  6578  001498  00000000           	ddw	0	; Reserved
  6579  00149C  FFFFFFFF           	ddw	4294967295	; RANGE_SPACE=restricted
  6580  0014A0  00000013           	ddw	19	; NUM_RANGES
  6581  0014A4  0000051A           	ddw	__ccov192_start_blk37	; block 37 START_ADDR
  6582  0014A8  00000558           	ddw	__ccov192_end_blk37	; block 37 END_ADDR
  6583  0014AC  00000518           	ddw	__ccov191_start_blk36	; block 36 START_ADDR
  6584  0014B0  0000051A           	ddw	__ccov191_end_blk36	; block 36 END_ADDR
  6585  0014B4  0000039C           	ddw	__ccov186_start_blk28	; block 28 START_ADDR
  6586  0014B8  000003D8           	ddw	__ccov186_end_blk28	; block 28 END_ADDR
  6587  0014BC  0000039A           	ddw	__ccov185_start_blk27	; block 27 START_ADDR
  6588  0014C0  0000039C           	ddw	__ccov185_end_blk27	; block 27 END_ADDR
  6589  0014C4  00000398           	ddw	__ccov184_start_blk26	; block 26 START_ADDR
  6590  0014C8  0000039A           	ddw	__ccov184_end_blk26	; block 26 END_ADDR
  6591  0014CC  0000035A           	ddw	__ccov183_start_blk24	; block 24 START_ADDR
  6592  0014D0  00000398           	ddw	__ccov183_end_blk24	; block 24 END_ADDR
  6593  0014D4  0000034E           	ddw	__ccov182_start_blk23	; block 23 START_ADDR
  6594  0014D8  0000035A           	ddw	__ccov182_end_blk23	; block 23 END_ADDR
  6595  0014DC  0000034A           	ddw	__ccov181_start_blk22	; block 22 START_ADDR
  6596  0014E0  0000034E           	ddw	__ccov181_end_blk22	; block 22 END_ADDR
  6597  0014E4  00000348           	ddw	__ccov180_start_blk20	; block 20 START_ADDR
  6598  0014E8  0000034A           	ddw	__ccov180_end_blk20	; block 20 END_ADDR
  6599  0014EC  00000148           	ddw	__ccov173_start_blk10	; block 10 START_ADDR
  6600  0014F0  00000182           	ddw	__ccov173_end_blk10	; block 10 END_ADDR
  6601  0014F4  00000146           	ddw	__ccov172_start_blk9	; block 9 START_ADDR
  6602  0014F8  00000148           	ddw	__ccov172_end_blk9	; block 9 END_ADDR
  6603  0014FC  0000013A           	ddw	__ccov171_start_blk7	; block 7 START_ADDR
  6604  001500  00000146           	ddw	__ccov171_end_blk7	; block 7 END_ADDR
  6605  001504  00000132           	ddw	__ccov170_start_blk6	; block 6 START_ADDR
  6606  001508  0000013A           	ddw	__ccov170_end_blk6	; block 6 END_ADDR
  6607  00150C  00000114           	ddw	__ccov169_start_blk5	; block 5 START_ADDR
  6608  001510  00000132           	ddw	__ccov169_end_blk5	; block 5 END_ADDR
  6609  001514  000000C4           	ddw	__ccov168_start_blk4	; block 4 START_ADDR
  6610  001518  00000114           	ddw	__ccov168_end_blk4	; block 4 END_ADDR
  6611  00151C  00000058           	ddw	__ccov167_start_blk3	; block 3 START_ADDR
  6612  001520  000000C4           	ddw	__ccov167_end_blk3	; block 3 END_ADDR
  6613  001524  0000002E           	ddw	__ccov166_start_blk2	; block 2 START_ADDR
  6614  001528  00000058           	ddw	__ccov166_end_blk2	; block 2 END_ADDR
  6615  00152C  0000001E           	ddw	__ccov165_start_blk1	; block 1 START_ADDR
  6616  001530  0000002E           	ddw	__ccov165_end_blk1	; block 1 END_ADDR
  6617  001534  00000014           	ddw	_unlock	; block 0 START_ADDR
  6618  001538  0000001E           	ddw	__ccov164_end_blk0	; block 0 END_ADDR
  6619                           
  6620                           ; Function: unlock, coverage: 39,38,28,27,26,24,23,22,20,10,9,7,6,5,4,3,2,1,0
  6621  00153C  00000000           	ddw	0	; CC_ADDR_SPACE=Data
  6622  001540  00000001           	ddw	__ccovbit39_48/(0+8)	; CC_ADDR
  6623  001544  00000001           	ddw	1	; NUM_POINTS
  6624  001548  00000001           	ddw	__ccovbit39_48& (0+7)	; OFFSET
  6625  00154C  00000000           	ddw	0	; Reserved
  6626  001550  FFFFFFFF           	ddw	4294967295	; RANGE_SPACE=restricted
  6627  001554  00000013           	ddw	19	; NUM_RANGES
  6628  001558  00000586           	ddw	__ccov194_start_blk39	; block 39 START_ADDR
  6629  00155C  0000058A           	ddw	__ccov194_end_blk39	; block 39 END_ADDR
  6630  001560  00000558           	ddw	__ccov193_start_blk38	; block 38 START_ADDR
  6631  001564  00000586           	ddw	__ccov193_end_blk38	; block 38 END_ADDR
  6632  001568  0000039C           	ddw	__ccov186_start_blk28	; block 28 START_ADDR
  6633  00156C  000003D8           	ddw	__ccov186_end_blk28	; block 28 END_ADDR
  6634  001570  0000039A           	ddw	__ccov185_start_blk27	; block 27 START_ADDR
  6635  001574  0000039C           	ddw	__ccov185_end_blk27	; block 27 END_ADDR
  6636  001578  00000398           	ddw	__ccov184_start_blk26	; block 26 START_ADDR
  6637  00157C  0000039A           	ddw	__ccov184_end_blk26	; block 26 END_ADDR
  6638  001580  0000035A           	ddw	__ccov183_start_blk24	; block 24 START_ADDR
  6639  001584  00000398           	ddw	__ccov183_end_blk24	; block 24 END_ADDR
  6640  001588  0000034E           	ddw	__ccov182_start_blk23	; block 23 START_ADDR
  6641  00158C  0000035A           	ddw	__ccov182_end_blk23	; block 23 END_ADDR
  6642  001590  0000034A           	ddw	__ccov181_start_blk22	; block 22 START_ADDR
  6643  001594  0000034E           	ddw	__ccov181_end_blk22	; block 22 END_ADDR
  6644  001598  00000348           	ddw	__ccov180_start_blk20	; block 20 START_ADDR
  6645  00159C  0000034A           	ddw	__ccov180_end_blk20	; block 20 END_ADDR
  6646  0015A0  00000148           	ddw	__ccov173_start_blk10	; block 10 START_ADDR
  6647  0015A4  00000182           	ddw	__ccov173_end_blk10	; block 10 END_ADDR
  6648  0015A8  00000146           	ddw	__ccov172_start_blk9	; block 9 START_ADDR
  6649  0015AC  00000148           	ddw	__ccov172_end_blk9	; block 9 END_ADDR
  6650  0015B0  0000013A           	ddw	__ccov171_start_blk7	; block 7 START_ADDR
  6651  0015B4  00000146           	ddw	__ccov171_end_blk7	; block 7 END_ADDR
  6652  0015B8  00000132           	ddw	__ccov170_start_blk6	; block 6 START_ADDR
  6653  0015BC  0000013A           	ddw	__ccov170_end_blk6	; block 6 END_ADDR
  6654  0015C0  00000114           	ddw	__ccov169_start_blk5	; block 5 START_ADDR
  6655  0015C4  00000132           	ddw	__ccov169_end_blk5	; block 5 END_ADDR
  6656  0015C8  000000C4           	ddw	__ccov168_start_blk4	; block 4 START_ADDR
  6657  0015CC  00000114           	ddw	__ccov168_end_blk4	; block 4 END_ADDR
  6658  0015D0  00000058           	ddw	__ccov167_start_blk3	; block 3 START_ADDR
  6659  0015D4  000000C4           	ddw	__ccov167_end_blk3	; block 3 END_ADDR
  6660  0015D8  0000002E           	ddw	__ccov166_start_blk2	; block 2 START_ADDR
  6661  0015DC  00000058           	ddw	__ccov166_end_blk2	; block 2 END_ADDR
  6662  0015E0  0000001E           	ddw	__ccov165_start_blk1	; block 1 START_ADDR
  6663  0015E4  0000002E           	ddw	__ccov165_end_blk1	; block 1 END_ADDR
  6664  0015E8  00000014           	ddw	_unlock	; block 0 START_ADDR
  6665  0015EC  0000001E           	ddw	__ccov164_end_blk0	; block 0 END_ADDR
  6666                           
  6667                           ; Function: unlock, coverage: 43,42,2,1,0
  6668  0015F0  00000000           	ddw	0	; CC_ADDR_SPACE=Data
  6669  0015F4  00000001           	ddw	__ccovbit43_49/(0+8)	; CC_ADDR
  6670  0015F8  00000001           	ddw	1	; NUM_POINTS
  6671  0015FC  00000000           	ddw	__ccovbit43_49& (0+7)	; OFFSET
  6672  001600  00000000           	ddw	0	; Reserved
  6673  001604  FFFFFFFF           	ddw	4294967295	; RANGE_SPACE=restricted
  6674  001608  00000005           	ddw	5	; NUM_RANGES
  6675  00160C  0000058C           	ddw	__ccov196_start_blk43	; block 43 START_ADDR
  6676  001610  00000598           	ddw	__end_of_unlock	; block 43 END_ADDR
  6677  001614  0000058A           	ddw	__ccov195_start_blk42	; block 42 START_ADDR
  6678  001618  0000058C           	ddw	__ccov195_end_blk42	; block 42 END_ADDR
  6679  00161C  0000002E           	ddw	__ccov166_start_blk2	; block 2 START_ADDR
  6680  001620  00000058           	ddw	__ccov166_end_blk2	; block 2 END_ADDR
  6681  001624  0000001E           	ddw	__ccov165_start_blk1	; block 1 START_ADDR
  6682  001628  0000002E           	ddw	__ccov165_end_blk1	; block 1 END_ADDR
  6683  00162C  00000014           	ddw	_unlock	; block 0 START_ADDR
  6684  001630  0000001E           	ddw	__ccov164_end_blk0	; block 0 END_ADDR
  6685  0000                     
  6686                           	psect	text18
  6687  000000                     __ptext18:
  6688                           	callstack 0
  6689  000000                     
  6690                           	psect	rparam
  6691  0000                     
  6692                           	psect	temp
  6693  000008                     btemp:
  6694                           	callstack 0
  6695  000008                     	ds	32
  6696  0000                     wtemp0	set	btemp
  6697  0000                     wtemp1	set	btemp+2
  6698  0000                     wtemp2	set	btemp+4
  6699  0000                     wtemp3	set	btemp+6
  6700  0000                     wtemp4	set	btemp+8
  6701  0000                     wtemp5	set	btemp+10
  6702  0000                     wtemp8	set	btemp+1
  6703  0000                     ttemp0	set	btemp
  6704  0000                     ttemp1	set	btemp+3
  6705  0000                     ttemp2	set	btemp+6
  6706  0000                     ttemp3	set	btemp+9
  6707  0000                     ttemp5	set	btemp+1
  6708  0000                     ttemp6	set	btemp+4
  6709  0000                     ttemp7	set	btemp+8
  6710  0000                     ltemp0	set	btemp
  6711  0000                     ltemp1	set	btemp+4
  6712  0000                     ltemp2	set	btemp+8
  6713  0000                     lltemp0	set	btemp
  6714  0000                     lltemp1	set	btemp+8
  6715  0000                     lltemp2	set	btemp+16
  6716  0000                     lltemp3	set	btemp+24
  6717                           
  6718                           	psect	idloc
  6719                           
  6720                           ;Config register IDLOC0 @ 0x200000
  6721                           ;	unspecified, using default values
  6722  200000                     	org	2097152
  6723  200000  FF                 	db	255
  6724                           
  6725                           ;Config register IDLOC1 @ 0x200001
  6726                           ;	unspecified, using default values
  6727  200001                     	org	2097153
  6728  200001  FF                 	db	255
  6729                           
  6730                           ;Config register IDLOC2 @ 0x200002
  6731                           ;	unspecified, using default values
  6732  200002                     	org	2097154
  6733  200002  FF                 	db	255
  6734                           
  6735                           ;Config register IDLOC3 @ 0x200003
  6736                           ;	unspecified, using default values
  6737  200003                     	org	2097155
  6738  200003  FF                 	db	255
  6739                           
  6740                           ;Config register IDLOC4 @ 0x200004
  6741                           ;	unspecified, using default values
  6742  200004                     	org	2097156
  6743  200004  FF                 	db	255
  6744                           
  6745                           ;Config register IDLOC5 @ 0x200005
  6746                           ;	unspecified, using default values
  6747  200005                     	org	2097157
  6748  200005  FF                 	db	255
  6749                           
  6750                           ;Config register IDLOC6 @ 0x200006
  6751                           ;	unspecified, using default values
  6752  200006                     	org	2097158
  6753  200006  FF                 	db	255
  6754                           
  6755                           ;Config register IDLOC7 @ 0x200007
  6756                           ;	unspecified, using default values
  6757  200007                     	org	2097159
  6758  200007  FF                 	db	255
  6759                           
  6760                           	psect	config
  6761                           
  6762                           ; Padding undefined space
  6763  300000                     	org	3145728
  6764  300000  FF                 	db	255
  6765                           
  6766                           ;Config register CONFIG1H @ 0x300001
  6767                           ;	unspecified, using default values
  6768                           ;	Oscillator Selection bits
  6769                           ;	OSC = 0x7, unprogrammed default
  6770                           ;	Fail-Safe Clock Monitor Enable bit
  6771                           ;	FCMEN = 0x0, unprogrammed default
  6772                           ;	Internal/External Oscillator Switchover bit
  6773                           ;	IESO = 0x0, unprogrammed default
  6774  300001                     	org	3145729
  6775  300001  07                 	db	7
  6776                           
  6777                           ;Config register CONFIG2L @ 0x300002
  6778                           ;	unspecified, using default values
  6779                           ;	Power-up Timer Enable bit
  6780                           ;	PWRT = 0x1, unprogrammed default
  6781                           ;	Brown-out Reset Enable bits
  6782                           ;	BOREN = 0x3, unprogrammed default
  6783                           ;	Brown Out Reset Voltage bits
  6784                           ;	BORV = 0x3, unprogrammed default
  6785  300002                     	org	3145730
  6786  300002  1F                 	db	31
  6787                           
  6788                           ;Config register CONFIG2H @ 0x300003
  6789                           ;	Watchdog Timer Enable bit
  6790                           ;	WDT = OFF, WDT disabled (control is placed on the SWDTEN bit)
  6791                           ;	Watchdog Timer Postscale Select bits
  6792                           ;	WDTPS = 0xF, unprogrammed default
  6793  300003                     	org	3145731
  6794  300003  1E                 	db	30
  6795                           
  6796                           ; Padding undefined space
  6797  300004                     	org	3145732
  6798  300004  FF                 	db	255
  6799                           
  6800                           ;Config register CONFIG3H @ 0x300005
  6801                           ;	CCP2 MUX bit
  6802                           ;	CCP2MX = 0x1, unprogrammed default
  6803                           ;	PORTB A/D Enable bit
  6804                           ;	PBADEN = OFF, PORTB<4:0> pins are configured as digital I/O on Reset
  6805                           ;	Low-Power Timer1 Oscillator Enable bit
  6806                           ;	LPT1OSC = 0x0, unprogrammed default
  6807                           ;	MCLR Pin Enable bit
  6808                           ;	MCLRE = 0x1, unprogrammed default
  6809  300005                     	org	3145733
  6810  300005  81                 	db	129
  6811                           
  6812                           ;Config register CONFIG4L @ 0x300006
  6813                           ;	unspecified, using default values
  6814                           ;	Stack Full/Underflow Reset Enable bit
  6815                           ;	STVREN = 0x1, unprogrammed default
  6816                           ;	Single-Supply ICSP Enable bit
  6817                           ;	LVP = 0x1, unprogrammed default
  6818                           ;	Extended Instruction Set Enable bit
  6819                           ;	XINST = 0x0, unprogrammed default
  6820                           ;	Background Debugger Enable bit
  6821                           ;	DEBUG = 0x1, unprogrammed default
  6822  300006                     	org	3145734
  6823  300006  85                 	db	133
  6824                           
  6825                           ; Padding undefined space
  6826  300007                     	org	3145735
  6827  300007  FF                 	db	255
  6828                           
  6829                           ;Config register CONFIG5L @ 0x300008
  6830                           ;	unspecified, using default values
  6831                           ;	Code Protection bit
  6832                           ;	CP0 = 0x1, unprogrammed default
  6833                           ;	Code Protection bit
  6834                           ;	CP1 = 0x1, unprogrammed default
  6835                           ;	Code Protection bit
  6836                           ;	CP2 = 0x1, unprogrammed default
  6837                           ;	Code Protection bit
  6838                           ;	CP3 = 0x1, unprogrammed default
  6839  300008                     	org	3145736
  6840  300008  0F                 	db	15
  6841                           
  6842                           ;Config register CONFIG5H @ 0x300009
  6843                           ;	unspecified, using default values
  6844                           ;	Boot Block Code Protection bit
  6845                           ;	CPB = 0x1, unprogrammed default
  6846                           ;	Data EEPROM Code Protection bit
  6847                           ;	CPD = 0x1, unprogrammed default
  6848  300009                     	org	3145737
  6849  300009  C0                 	db	192
  6850                           
  6851                           ;Config register CONFIG6L @ 0x30000A
  6852                           ;	unspecified, using default values
  6853                           ;	Write Protection bit
  6854                           ;	WRT0 = 0x1, unprogrammed default
  6855                           ;	Write Protection bit
  6856                           ;	WRT1 = 0x1, unprogrammed default
  6857                           ;	Write Protection bit
  6858                           ;	WRT2 = 0x1, unprogrammed default
  6859                           ;	Write Protection bit
  6860                           ;	WRT3 = 0x1, unprogrammed default
  6861  30000A                     	org	3145738
  6862  30000A  0F                 	db	15
  6863                           
  6864                           ;Config register CONFIG6H @ 0x30000B
  6865                           ;	unspecified, using default values
  6866                           ;	Configuration Register Write Protection bit
  6867                           ;	WRTC = 0x1, unprogrammed default
  6868                           ;	Boot Block Write Protection bit
  6869                           ;	WRTB = 0x1, unprogrammed default
  6870                           ;	Data EEPROM Write Protection bit
  6871                           ;	WRTD = 0x1, unprogrammed default
  6872  30000B                     	org	3145739
  6873  30000B  E0                 	db	224
  6874                           
  6875                           ;Config register CONFIG7L @ 0x30000C
  6876                           ;	unspecified, using default values
  6877                           ;	Table Read Protection bit
  6878                           ;	EBTR0 = 0x1, unprogrammed default
  6879                           ;	Table Read Protection bit
  6880                           ;	EBTR1 = 0x1, unprogrammed default
  6881                           ;	Table Read Protection bit
  6882                           ;	EBTR2 = 0x1, unprogrammed default
  6883                           ;	Table Read Protection bit
  6884                           ;	EBTR3 = 0x1, unprogrammed default
  6885  30000C                     	org	3145740
  6886  30000C  0F                 	db	15
  6887                           
  6888                           ;Config register CONFIG7H @ 0x30000D
  6889                           ;	unspecified, using default values
  6890                           ;	Boot Block Table Read Protection bit
  6891                           ;	EBTRB = 0x1, unprogrammed default
  6892  30000D                     	org	3145741
  6893  30000D  40                 	db	64
  6894                           tosu	equ	0xFFF
  6895                           tosh	equ	0xFFE
  6896                           tosl	equ	0xFFD
  6897                           stkptr	equ	0xFFC
  6898                           pclatu	equ	0xFFB
  6899                           pclath	equ	0xFFA
  6900                           pcl	equ	0xFF9
  6901                           tblptru	equ	0xFF8
  6902                           tblptrh	equ	0xFF7
  6903                           tblptrl	equ	0xFF6
  6904                           tablat	equ	0xFF5
  6905                           prodh	equ	0xFF4
  6906                           prodl	equ	0xFF3
  6907                           indf0	equ	0xFEF
  6908                           postinc0	equ	0xFEE
  6909                           postdec0	equ	0xFED
  6910                           preinc0	equ	0xFEC
  6911                           plusw0	equ	0xFEB
  6912                           fsr0h	equ	0xFEA
  6913                           fsr0l	equ	0xFE9
  6914                           wreg	equ	0xFE8
  6915                           indf1	equ	0xFE7
  6916                           postinc1	equ	0xFE6
  6917                           postdec1	equ	0xFE5
  6918                           preinc1	equ	0xFE4
  6919                           plusw1	equ	0xFE3
  6920                           fsr1h	equ	0xFE2
  6921                           fsr1l	equ	0xFE1
  6922                           bsr	equ	0xFE0
  6923                           indf2	equ	0xFDF
  6924                           postinc2	equ	0xFDE
  6925                           postdec2	equ	0xFDD
  6926                           preinc2	equ	0xFDC
  6927                           plusw2	equ	0xFDB
  6928                           fsr2h	equ	0xFDA
  6929                           fsr2l	equ	0xFD9
  6930                           status	equ	0xFD8

Data Sizes:
    Strings     0
    Constant    0
    Data        2
    BSS         1111
    Persistent  0
    Stack       0

Auto Spaces:
    Space          Size  Autos    Used
    COMRAM           95     25      49
    BANK0           128      0       0
    BANK1           256      0       0
    BANK2           256      0       0
    BANK3           256      0       0
    BANK4           256      0       0
    BANK5           256      0       0

Pointer List with Targets:

    sp__SRAMalloc	PTR unsigned char  size(2) Largest target is 512
		 -> _uDynamicHeap(BIGRAM[512]), NULL(NULL[0]), 

    resource	PTR struct mutex size(2) Largest target is 15
		 -> m_test(COMRAM[15]), 

    resource	PTR struct mutex size(2) Largest target is 15
		 -> m_test(COMRAM[15]), 

    resource	PTR struct mutex size(2) Largest target is 15
		 -> m_test(COMRAM[15]), 

    task	PTR FTN()void  size(2) Largest target is 1
		 -> task_idle(), task_3(), task_2(), task_1(), 

    new_task.task_PTR	PTR FTN()void  size(2) Largest target is 1
		 -> task_idle(), task_3(), task_2(), task_1(), 

    S270TCB$task_PTR	PTR FTN()void  size(2) Largest target is 1
		 -> task_idle(), task_3(), task_2(), task_1(), 

    ready_queue.tasks_list.task_PTR	PTR FTN()void  size(2) Largest target is 1
		 -> task_idle(), task_3(), task_2(), task_1(), 


Critical Paths under _main in COMRAM

    None.

Critical Paths under _task_1 in COMRAM

    None.

Critical Paths under _task_2 in COMRAM

    None.

Critical Paths under _task_3 in COMRAM

    None.

Critical Paths under _task_1 in COMRAM

    None.

Critical Paths under _task_2 in COMRAM

    None.

Critical Paths under _task_3 in COMRAM

    None.

Critical Paths under _task_idle in COMRAM

    None.

Critical Paths under _task_idle in COMRAM

    None.

Critical Paths under _isr_INTERRUPTS in COMRAM

    None.

Critical Paths under _main in BANK0

    None.

Critical Paths under _task_1 in BANK0

    None.

Critical Paths under _task_2 in BANK0

    None.

Critical Paths under _task_3 in BANK0

    None.

Critical Paths under _task_1 in BANK0

    None.

Critical Paths under _task_2 in BANK0

    None.

Critical Paths under _task_3 in BANK0

    None.

Critical Paths under _task_idle in BANK0

    None.

Critical Paths under _task_idle in BANK0

    None.

Critical Paths under _isr_INTERRUPTS in BANK0

    None.

Critical Paths under _main in BANK1

    None.

Critical Paths under _task_1 in BANK1

    None.

Critical Paths under _task_2 in BANK1

    None.

Critical Paths under _task_3 in BANK1

    None.

Critical Paths under _task_1 in BANK1

    None.

Critical Paths under _task_2 in BANK1

    None.

Critical Paths under _task_3 in BANK1

    None.

Critical Paths under _task_idle in BANK1

    None.

Critical Paths under _task_idle in BANK1

    None.

Critical Paths under _isr_INTERRUPTS in BANK1

    None.

Critical Paths under _main in BANK2

    None.

Critical Paths under _task_1 in BANK2

    None.

Critical Paths under _task_2 in BANK2

    None.

Critical Paths under _task_3 in BANK2

    None.

Critical Paths under _task_1 in BANK2

    None.

Critical Paths under _task_2 in BANK2

    None.

Critical Paths under _task_3 in BANK2

    None.

Critical Paths under _task_idle in BANK2

    None.

Critical Paths under _task_idle in BANK2

    None.

Critical Paths under _isr_INTERRUPTS in BANK2

    None.

Critical Paths under _main in BANK3

    None.

Critical Paths under _task_1 in BANK3

    None.

Critical Paths under _task_2 in BANK3

    None.

Critical Paths under _task_3 in BANK3

    None.

Critical Paths under _task_1 in BANK3

    None.

Critical Paths under _task_2 in BANK3

    None.

Critical Paths under _task_3 in BANK3

    None.

Critical Paths under _task_idle in BANK3

    None.

Critical Paths under _task_idle in BANK3

    None.

Critical Paths under _isr_INTERRUPTS in BANK3

    None.

Critical Paths under _main in BANK4

    None.

Critical Paths under _task_1 in BANK4

    None.

Critical Paths under _task_2 in BANK4

    None.

Critical Paths under _task_3 in BANK4

    None.

Critical Paths under _task_1 in BANK4

    None.

Critical Paths under _task_2 in BANK4

    None.

Critical Paths under _task_3 in BANK4

    None.

Critical Paths under _task_idle in BANK4

    None.

Critical Paths under _task_idle in BANK4

    None.

Critical Paths under _isr_INTERRUPTS in BANK4

    None.

Critical Paths under _main in BANK5

    None.

Critical Paths under _task_1 in BANK5

    None.

Critical Paths under _task_2 in BANK5

    None.

Critical Paths under _task_3 in BANK5

    None.

Critical Paths under _task_1 in BANK5

    None.

Critical Paths under _task_2 in BANK5

    None.

Critical Paths under _task_3 in BANK5

    None.

Critical Paths under _task_idle in BANK5

    None.

Critical Paths under _task_idle in BANK5

    None.

Critical Paths under _isr_INTERRUPTS in BANK5

    None.

Call Graph Tables:

 ---------------------------------------------------------------------------------
 (Depth) Function   	        Calls       Base Space   Used Autos Params    Refs
 ---------------------------------------------------------------------------------
 (0) _main                                                 0     0      0     330
                          _config_os
                        _create_task
                           _start_os
 ---------------------------------------------------------------------------------
 (1) _start_os                                             0     0      0       0
 ---------------------------------------------------------------------------------
 (1) _config_os                                            0     0      0     195
                       _config_tasks
                        _create_task
 ---------------------------------------------------------------------------------
 (1) _create_task                                        122   116      6     135
 ---------------------------------------------------------------------------------
 (2) _config_tasks                                         0     0      0      60
                         _init_mutex
 ---------------------------------------------------------------------------------
 (3) _init_mutex                                           2     0      2      60
 ---------------------------------------------------------------------------------
 (Depth) Function   	        Calls       Base Space   Used Autos Params    Refs
 ---------------------------------------------------------------------------------
 (4) _task_1                                               0     0      0    1575
                         _delay_task
                               _lock
                             _unlock
 ---------------------------------------------------------------------------------
 (5) _unlock                                              10     8      2     555
                          _scheduler
 ---------------------------------------------------------------------------------
 (5) _lock                                                10     8      2     555
                          _scheduler
 ---------------------------------------------------------------------------------
 (5) _delay_task                                          10     8      2     465
                          _scheduler
 ---------------------------------------------------------------------------------
 (10) _scheduler                                           0     0      0     165
                       _RR_scheduler
 ---------------------------------------------------------------------------------
 (11) _RR_scheduler                                        4     4      0     165
                            ___lwmod
 ---------------------------------------------------------------------------------
 (12) ___lwmod                                             5     1      4     105
 ---------------------------------------------------------------------------------
 (Depth) Function   	        Calls       Base Space   Used Autos Params    Refs
 ---------------------------------------------------------------------------------
 (4) _task_2                                               0     0      0    1110
                               _lock
                             _unlock
 ---------------------------------------------------------------------------------
 (5) _unlock                                              10     8      2     555
                          _scheduler
 ---------------------------------------------------------------------------------
 (5) _lock                                                10     8      2     555
                          _scheduler
 ---------------------------------------------------------------------------------
 (10) _scheduler                                           0     0      0     165
                       _RR_scheduler
 ---------------------------------------------------------------------------------
 (11) _RR_scheduler                                        4     4      0     165
                            ___lwmod
 ---------------------------------------------------------------------------------
 (12) ___lwmod                                             5     1      4     105
 ---------------------------------------------------------------------------------
 (Depth) Function   	        Calls       Base Space   Used Autos Params    Refs
 ---------------------------------------------------------------------------------
 (4) _task_3                                               0     0      0     465
                         _delay_task
 ---------------------------------------------------------------------------------
 (5) _delay_task                                          10     8      2     465
                          _scheduler
 ---------------------------------------------------------------------------------
 (10) _scheduler                                           0     0      0     165
                       _RR_scheduler
 ---------------------------------------------------------------------------------
 (11) _RR_scheduler                                        4     4      0     165
                            ___lwmod
 ---------------------------------------------------------------------------------
 (12) ___lwmod                                             5     1      4     105
 ---------------------------------------------------------------------------------
 (Depth) Function   	        Calls       Base Space   Used Autos Params    Refs
 ---------------------------------------------------------------------------------
 (4) _task_1                                               0     0      0    1575
                         _delay_task
                               _lock
                             _unlock
 ---------------------------------------------------------------------------------
 (5) _unlock                                              10     8      2     555
                          _scheduler
 ---------------------------------------------------------------------------------
 (5) _lock                                                10     8      2     555
                          _scheduler
 ---------------------------------------------------------------------------------
 (5) _delay_task                                          10     8      2     465
                          _scheduler
 ---------------------------------------------------------------------------------
 (10) _scheduler                                           0     0      0     165
                       _RR_scheduler
 ---------------------------------------------------------------------------------
 (11) _RR_scheduler                                        4     4      0     165
                            ___lwmod
 ---------------------------------------------------------------------------------
 (12) ___lwmod                                             5     1      4     105
 ---------------------------------------------------------------------------------
 (Depth) Function   	        Calls       Base Space   Used Autos Params    Refs
 ---------------------------------------------------------------------------------
 (4) _task_2                                               0     0      0    1110
                               _lock
                             _unlock
 ---------------------------------------------------------------------------------
 (5) _unlock                                              10     8      2     555
                          _scheduler
 ---------------------------------------------------------------------------------
 (5) _lock                                                10     8      2     555
                          _scheduler
 ---------------------------------------------------------------------------------
 (10) _scheduler                                           0     0      0     165
                       _RR_scheduler
 ---------------------------------------------------------------------------------
 (11) _RR_scheduler                                        4     4      0     165
                            ___lwmod
 ---------------------------------------------------------------------------------
 (12) ___lwmod                                             5     1      4     105
 ---------------------------------------------------------------------------------
 (Depth) Function   	        Calls       Base Space   Used Autos Params    Refs
 ---------------------------------------------------------------------------------
 (4) _task_3                                               0     0      0     465
                         _delay_task
 ---------------------------------------------------------------------------------
 (5) _delay_task                                          10     8      2     465
                          _scheduler
 ---------------------------------------------------------------------------------
 (10) _scheduler                                           0     0      0     165
                       _RR_scheduler
 ---------------------------------------------------------------------------------
 (11) _RR_scheduler                                        4     4      0     165
                            ___lwmod
 ---------------------------------------------------------------------------------
 (12) ___lwmod                                             5     1      4     105
 ---------------------------------------------------------------------------------
 (Depth) Function   	        Calls       Base Space   Used Autos Params    Refs
 ---------------------------------------------------------------------------------
 (4) _task_idle                                            0     0      0       0
 ---------------------------------------------------------------------------------
 (Depth) Function   	        Calls       Base Space   Used Autos Params    Refs
 ---------------------------------------------------------------------------------
 (4) _task_idle                                            0     0      0       0
 ---------------------------------------------------------------------------------
 (Depth) Function   	        Calls       Base Space   Used Autos Params    Refs
 ---------------------------------------------------------------------------------
 (9) _isr_INTERRUPTS                                      25    25      0     630
                                              0 COMRAM    25    25      0
                             ___wmul
                          _scheduler
 ---------------------------------------------------------------------------------
 (10) _scheduler                                           0     0      0     165
                       _RR_scheduler
 ---------------------------------------------------------------------------------
 (11) _RR_scheduler                                        4     4      0     165
                            ___lwmod
 ---------------------------------------------------------------------------------
 (12) ___lwmod                                             5     1      4     105
 ---------------------------------------------------------------------------------
 (10) ___wmul                                              6     2      4     105
 ---------------------------------------------------------------------------------
 Estimated maximum stack depth 12
 ---------------------------------------------------------------------------------

 Call Graph Graphs:

 _main (ROOT)
   _config_os
     _config_tasks
       _init_mutex
     _create_task
   _create_task
   _start_os

 _task_1 (ROOT)
   _delay_task
     _scheduler
       _RR_scheduler
         ___lwmod
   _lock
     _scheduler
       _RR_scheduler
         ___lwmod
   _unlock
     _scheduler
       _RR_scheduler
         ___lwmod

 _task_2 (ROOT)
   _lock
     _scheduler
       _RR_scheduler
         ___lwmod
   _unlock
     _scheduler
       _RR_scheduler
         ___lwmod

 _task_3 (ROOT)
   _delay_task
     _scheduler
       _RR_scheduler
         ___lwmod

 _task_1 (ROOT)
   _delay_task
     _scheduler
       _RR_scheduler
         ___lwmod
   _lock
     _scheduler
       _RR_scheduler
         ___lwmod
   _unlock
     _scheduler
       _RR_scheduler
         ___lwmod

 _task_2 (ROOT)
   _lock
     _scheduler
       _RR_scheduler
         ___lwmod
   _unlock
     _scheduler
       _RR_scheduler
         ___lwmod

 _task_3 (ROOT)
   _delay_task
     _scheduler
       _RR_scheduler
         ___lwmod

 _task_idle (ROOT)

 _task_idle (ROOT)

 _isr_INTERRUPTS (ROOT)
   ___wmul
   _scheduler
     _RR_scheduler
       ___lwmod

 Address spaces:
Name               Size   Autos  Total    Cost      Usage
BIGRAM             5FF      0     448      17       71.4%
EEDATA             100      0       0       0        0.0%
BITBANK5           100      0       0      16        0.0%
BANK5              100      0       0      14        0.0%
BITBANK4           100      0       0      12        0.0%
BANK4              100      0       0      13        0.0%
BITBANK3           100      0       0      10        0.0%
BANK3              100      0       0      11        0.0%
BITBANK2           100      0       0       8        0.0%
BANK2              100      0       0       9        0.0%
BITBANK1           100      0       0       6        0.0%
BANK1              100      0       0       7        0.0%
BITBANK0            80      0       0       4        0.0%
BANK0               80      0       0       5        0.0%
BITCOMRAM           5F      0       7       0        7.4%
COMRAM              5F     19      31       1       51.6%
BITSFR               0      0       0     200        0.0%
SFR                  0      0       0     200        0.0%
STACK                0      0       0       2        0.0%
NULL                 0      0       0       0        0.0%
ABS                  0      0      31      15        0.0%
DATA                 0      0     479       3        0.0%
CODE                 0      0       0       0        0.0%


Microchip Technology PIC18 Macro Assembler V2.20 build 20200408173844 
Symbol Table                                                                                   Mon May 30 15:23:35 2022

          __ccov116_end_blk0 1494            __ccov124_end_blk0 1AC8            __ccov132_end_blk1 05BE  
         __ccov140_end_blk11 06E0           __ccov108_end_blk34 1476          __ccov111_start_blk0 1AAC  
         __pcodecov_info_hdr 0000          __ccov92_start_blk11 11B6         __ccov103_start_blk27 1358  
          __ccov125_end_blk1 1ACC            __ccov117_end_blk2 14D4            __ccov133_end_blk2 05D4  
                         l41 1AA8                           l17 18FC                           l50 19F4  
                         l18 18FC                           l44 195E                           l56 1A36  
                         u51 168C            __ccov126_end_blk0 1838            __ccov118_end_blk3 1512  
          __ccov134_end_blk4 0622           __ccov141_end_blk12 0798           __ccov109_end_blk35 1478  
                        l203 1AC8                          l222 1898                          l126 195A  
                        l233 0A76                          l129 169E                          l170 1A6E  
                        l162 1448                          l307 181E                          l164 1478  
                        l237 0AB6                          l253 0558                          l182 15AC  
                        l158 1408                          l239 0AEA                          l255 058C  
                        l167 1AB8                          l249 0518                          l815 1788  
                        l980 1828                          l990 16C6                          l982 1838  
                        l992 16D0                          l984 1858                          l994 16EE  
                        l986 1878                          l996 16F2                          l988 16AC  
                        l998 1702                          _BSR 000FE0                          _TOS 000FFD  
       __ccov174_start_blk11 0182         __ccov182_start_blk23 034E         __ccov190_start_blk34 04F8  
       __ccov158_start_blk37 0A76            __ccov127_end_blk1 1858            __ccov119_end_blk4 1520  
          __ccov135_end_blk5 0672           __ccov14_start_blk1 19F4           __ccov22_start_blk2 0B42  
                        wreg 000FE8            __ccov128_end_blk2 1878            __ccov136_end_blk6 0690  
            isr_INTERRUPTS@i 003B           __ccov142_end_blk14 0806           __ccov150_end_blk25 08F6  
               fp__task_idle 0000          __ccov112_start_blk1 1AB0          __ccov120_start_blk7 1520  
                       l1000 1730                         l1002 1754                         l1010 15C0  
                       l1004 175E                         l1100 06E0                         l1020 1640  
                       l1012 15D8                         l1006 177C                         l1030 148C  
                       l1110 0876                         l1102 0798                         l1022 1654  
                       l1014 15FA                         l1040 1520                         l1032 1494  
                       l1120 08F6                         l1104 0806                         l1112 08A6  
                       l1200 0114                         l1024 1694                         l1016 161C  
                       l1042 155A                         l1034 14D4                         l1130 09E8  
                       l1122 08F8                         l1114 08A8                         l1106 0824  
                       l1210 0182                         l1202 0132                         l1026 1A96  
                       l1018 162C                         l1050 191E                         l1044 159E  
                       l1036 1512                         l1140 0FE0                         l1132 0A56  
                       l1124 08FA                         l1116 08AC                         l1108 0836  
                       l1220 0318                         l1212 023A                         l1204 013A  
                       l1028 1A9C                         l1060 1942                         l1052 193A  
                       l1150 1038                         l1142 0FE2                         l1134 0A78  
                       l1126 0936                         l1118 08B8                         l1230 0398  
                       l1214 02A8                         l1222 0348                         l1206 0146  
                       l1070 194C                         l1062 1944                         l1054 193C  
                       l1160 11C8                         l1152 1072                         l1144 1022  
                       l1136 0AE4                         l1128 09C6                         l1080 05A0  
                       l1240 048A                         l1232 039A                         l1224 034A  
                       l1216 02C6                         l1208 0148                         l1072 194E  
                       l1064 1946                         l1056 193E                         l1048 1906  
                       l1250 1ABC                         l1170 124A                         l1162 1208  
                       l1154 112A                         l1146 102A                         l1090 0672  
                       l1138 0AE8                         l1082 05A2                         l1242 04F8  
                       l1234 039C                         l1226 034E                         l1218 02D8  
                       l1074 1956                         l1066 1948                         l1058 1940  
                       l1252 1796                         l1180 1358                         l1172 1288  
                       l1156 1198                         l1164 1238                         l1148 1036  
                       l1092 0690                         l1084 05BE                         l1244 051A  
                       l1236 03D8                         l1228 035A                         l1068 194A  
                       l1076 1AAC                         l1254 17AE                         l1182 137A  
                       l1174 128A                         l1166 123A                         l1158 11B6  
                       l1094 0698                         l1086 05D4                         l1246 0586  
                       l1238 0468                         l1190 001C                         l1270 198A  
                       l1078 1AB0                         l1262 18A0                         l1256 17E0  
                       l1352 1A6E                         l1280 1A36                         l1184 13E8  
                       l1176 128C                         l1168 123E                         l1096 06A4  
                       l1088 0622                         l1248 058A                         l1192 001E  
                       l1272 1996                         l1264 18F8                         l1258 1812  
                       l1282 1A5A                         l1274 19F4                         l1186 140A  
                       l1178 12C8                         l1098 06A6                         l1194 002E  
                       l1266 195E                         l1276 1A00                         l1188 1476  
                       l1196 0058                         l1268 197E                         l1278 1A22  
                       l1198 00C4            __ccov129_end_blk3 1898            __ccov137_end_blk7 0698  
                       _TMR0 000FD6                         _WREG 000FE8                         u1_20 16C6  
                       u1_21 16C2                         u2_20 1702                         u2_21 16FE  
                       u3_20 1730                         u3_21 172C                         u4_20 177C  
                       u4_21 1778                         u6_20 1512                         u6_21 150E  
                       u7_20 155A                         u7_21 1556                         u8_20 159E  
                       u8_21 159A                         u9_20 05BE                         u9_21 05BA  
          __ccov170_end_blk6 013A                         _main 18A0            __ccov138_end_blk8 06A4  
                       _lock 0598           __ccov143_end_blk15 0824           __ccov151_end_blk27 08F8  
                       fsr0h 000FEA                         fsr1h 000FE2                         fsr2h 000FDA  
                       fsr0l 000FE9                         indf2 000FDF                         fsr1l 000FE1  
                       fsr2l 000FD9                         btemp 0008                         prodh 000FF4  
                       prodl 000FF3          __ccov30_start_blk14 0C1C                         start 000C  
          __ccov171_end_blk7 0146           __ccov15_start_blk2 1A00           __ccov23_start_blk3 0B52  
               ___param_bank 000000            __ccov164_end_blk0 001E            __ccov172_end_blk9 0148  
         __ccov144_end_blk16 0836           __ccov152_end_blk28 08FA           __ccov160_end_blk39 0AE4  
        __ccov113_start_blk2 1AB8          __ccov121_start_blk8 155A          __ccov69_start_blk10 194A  
        __ccov93_start_blk13 11C8         __ccov104_start_blk28 137A            __ccov165_end_blk1 002E  
       __end_of_RR_scheduler 15B8            __ccov166_end_blk2 0058           __ccov161_end_blk40 0AE8  
         __ccov145_end_blk18 0876           __ccov153_end_blk29 0936                 __ccovbit1_33 0018  
               __ccovbit1_28 001D                 __ccovbit2_27 001E                 __ccovbit2_35 0016  
               __ccovbit4_34 0017                 __ccovbit4_29 001C                 __ccovbit8_20 0025  
               __ccovbit8_30 001B                        i2l102 0B42                        i2l121 0F7C  
                      i2l113 0D30              __end_of___lwmod 1792                        i2l123 0FA4  
                      i2l117 0F46                        u10_20 06E0                        u10_21 06DC  
                      u11_20 0836                        u11_21 0832                        u12_20 0936  
                      u20_20 02D8                        u12_21 0932                        u20_21 02D4  
       __ccov175_start_blk13 023A         __ccov183_start_blk24 035A                        u13_20 0A72  
                      u21_20 03D8                        u13_21 0A6E                        u21_21 03D4  
       __ccov191_start_blk36 0518         __ccov159_start_blk38 0A78                        u14_20 1072  
                      u22_20 0514                        u14_21 106E                        u22_21 0510  
                      u15_20 11C8                        u23_20 196E                        u15_21 11C4  
                      u23_21 1968                        u23_26 1970                        u24_20 1A10  
                      u16_20 12C8                        u24_21 1A0A                        u16_21 12C4  
                      u24_26 1A12                        u25_20 1A46                        u17_20 1404  
                      u25_21 1A40                        u17_21 1400                        u25_26 1A48  
                      u18_20 0058                        u18_21 0054                        u19_20 0182  
                      u19_21 017E                        u36_20 1A80                        u36_21 1A7A  
                      u36_26 1A82            __ccov167_end_blk3 00C4           __ccov16_start_blk3 1A22  
         __ccov24_start_blk4 0B54            __ccov168_end_blk4 0114           __ccov154_end_blk30 09C6  
         __ccov162_end_blk43 0AEA           __ccov146_end_blk19 08A6          __ccov130_start_blk4 1898  
          __ccov169_end_blk5 0132               __pbitbssCOMRAM 0008                        tablat 000FF5  
                      ltemp0 0008                        ltemp1 000C                        ltemp2 0010  
                      plusw0 000FEB                        plusw1 000FE3                        plusw2 000FDB  
                      ttemp0 0008                        ttemp1 000B                        ttemp2 000E  
                      ttemp3 0011                        ttemp5 0009                        ttemp6 000C  
                      ttemp7 0010                        status 000FD8                        wtemp0 0008  
                      wtemp1 000A                        wtemp2 000C                        wtemp3 000E  
                      wtemp4 0010                        wtemp5 0012                        wtemp8 0009  
         __ccov139_end_blk10 06A6           __ccov147_end_blk21 08A8           __ccov155_end_blk32 09E8  
         __ccov163_end_blk44 0AF6               __pcodecov_info 0000          __ccov31_start_blk16 0C36  
         __ccov25_start_blk5 0B5C              __initialization 19AA                 __end_of_main 1906  
               __end_of_lock 0AF6           __ccov180_end_blk20 034A           __ccov148_end_blk23 08AC  
         __ccov156_end_blk33 0A56          __ccov131_start_blk0 0598          __ccov115_start_blk1 1A6E  
        __ccov94_start_blk14 1208         __ccov105_start_blk30 13E8           __ccov173_end_blk10 0182  
         __ccov181_end_blk22 034E           __ccov149_end_blk24 08B8           __ccov157_end_blk35 0A76  
              __activetblptr 000000   isr_INTERRUPTS@task_pos_623 003F         __ccov176_start_blk14 02A8  
       __ccov184_start_blk26 0398         __ccov192_start_blk37 051A           __ccov18_start_blk1 1A36  
         __ccov26_start_blk7 0B64           __ccov174_end_blk11 023A           __ccov182_end_blk23 035A  
         __ccov190_end_blk34 0518           __ccov158_end_blk37 0A78                __ccovbit11_21 0024  
              __ccovbit11_31 001A                __ccovbit12_10 002F                __ccovbit13_32 0019  
              __ccovbit14_22 0023                __ccovbit30_24 0021                __ccovbit14_19 0026  
        __ccov116_start_blk0 1484          __ccov124_start_blk0 1ABC          __ccov132_start_blk1 05A2  
              __ccovbit15_43 000E                __ccovbit40_41 0010                __ccovbit17_11 002E  
              __ccovbit16_36 0015                __ccovbit32_45 000C                __ccovbit33_25 0020  
              __ccovbit33_38 0013                __ccovbit50_17 0028                __ccovbit27_12 002D  
              __ccovbit18_44 000D                __ccovbit43_14 002B                __ccovbit34_46 000B  
              __ccovbit19_37 0014                __ccovbit28_23 0022                __ccovbit35_39 0012  
              __ccovbit43_49 0008                __ccovbit44_42 000F                __ccovbit29_13 002C  
              __ccovbit45_15 002A                __ccovbit37_26 001F                __ccovbit37_47 000A  
              __ccovbit38_40 0011                __ccovbit55_18 0027                __ccovbit48_16 0029  
              __ccovbit39_48 0009                       i2l1300 0C16                       i2l1310 0C58  
                     i2l1302 0C1C                       i2l1320 0D8A                       i2l1312 0C5C  
                     i2l1304 0C36                       i2l1330 0DF4                       i2l1322 0D8E  
                     i2l1314 0C64                       i2l1306 0C3C                       i2l1340 0E5A  
                     i2l1332 0DFC                       i2l1324 0DA0                       i2l1316 0C66  
                     i2l1308 0C50                       i2l1350 0FA0                       i2l1342 0ECC  
                     i2l1334 0E24                       i2l1318 0C96                       i2l1326 0DEE  
                     i2l1344 0ED4                       i2l1336 0E26                       i2l1328 0DF0  
                     i2l1346 0F2E                       i2l1338 0E28                       i2l1290 0B54  
                     i2l1348 0F48                       i2l1292 0B5C                       i2l1284 0B2C  
                     i2l1294 0B64                       i2l1286 0B3A                       i2l1296 0B96  
                     i2l1288 0B52                       i2l1298 0BF0             __ccov10_end_blk2 198A  
                     _STATUS 000FD8                       _STKPTR 000FFC           __ccov175_end_blk13 02A8  
         __ccov183_end_blk24 0398           __ccov191_end_blk36 051A           __ccov159_end_blk38 0AB6  
           __ccov11_end_blk3 1996          __ccov32_start_blk17 0C3C          __ccov40_start_blk26 0D8A  
       __size_of_create_task 00F2             __ccov20_end_blk0 0B3A             __ccov12_end_blk4 19A8  
         __ccov19_start_blk2 1A5A           __ccov27_start_blk8 0B96                       ___wmul 1792  
         __ccov176_end_blk14 02C6           __ccov184_end_blk26 039A           __ccov192_end_blk37 0558  
           __ccov21_end_blk1 0B42          __ccov125_start_blk1 1AC8          __ccov117_start_blk2 1494  
        __ccov133_start_blk2 05BE          __ccov95_start_blk16 1238         __ccov122_start_blk11 159E  
       __ccov106_start_blk32 1408                       _m_test 0041                       clear_0 19CA  
                     clear_1 19DC                       clear_2 19E8                       _task_1 195E  
                     _task_2 19F4                       _task_3 1A36             __ccov14_end_blk1 1A00  
           __ccov22_end_blk2 0B52                       _unlock 0014           __ccov177_end_blk15 02D8  
         __ccov185_end_blk27 039C           __ccov193_end_blk38 0586             __ccov15_end_blk2 1A22  
           __ccov23_end_blk3 0B54                 __pdataCOMRAM 0050         __ccov177_start_blk15 02C6  
       __ccov185_start_blk27 039A         __ccov193_start_blk38 0558                       lltemp0 0008  
                     lltemp1 0010                       lltemp2 0018                       lltemp3 0020  
         _rr_quantum_control 0050         __end_of_config_tasks 1AAC                       tblptrh 000FF7  
                     tblptrl 000FF6             __ccov16_end_blk3 1A34                       tblptru 000FF8  
           __ccov24_end_blk4 0B5C           __ccov60_start_blk1 191E           __ccov28_start_blk9 0BF0  
           __end_of_start_os 1ABC           __ccov178_end_blk17 0318           __ccov186_end_blk28 03D8  
         __ccov194_end_blk39 058A             __ccov25_end_blk5 0B64          __ccov126_start_blk0 1828  
        __ccov118_start_blk3 14D4          __ccov134_start_blk4 05D4             __ccov18_end_blk1 1A5A  
           __ccov26_end_blk7 0B96                   __accesstop 0080      __end_of__initialization 19EE  
         __ccov195_end_blk42 058C           __ccov179_end_blk18 0348           __ccov187_end_blk29 0468  
              ___rparam_used 000001             __ccov19_end_blk2 1A6C             __ccov27_end_blk8 0BF0  
        __ccov33_start_blk18 0C50          __ccov41_start_blk27 0D8E             __ccov60_end_blk1 193A  
         __ccov61_start_blk2 193A             __ccov28_end_blk9 0C16        __size_of_RR_scheduler 0134  
             __pcstackCOMRAM 0028                   ___inthi_sp 00E8           __ccov188_end_blk31 048A  
         __ccov196_end_blk43 0598             __ccov61_end_blk2 193C          __ccov127_start_blk1 1838  
        __ccov119_start_blk4 1512          __ccov135_start_blk5 0622          __ccov96_start_blk18 123A  
       __ccov123_start_blk13 15AC         __ccov107_start_blk33 140A             __ccov62_end_blk3 193E  
         __ccov189_end_blk32 04F8      __size_of_isr_INTERRUPTS 0FD0             __ccov63_end_blk4 1940  
       __ccov178_start_blk17 02D8         __ccov186_start_blk28 039C         __ccov194_start_blk39 0586  
           __ccov64_end_blk5 1942             __ccov80_end_blk6 1694           __ccov62_start_blk3 193C  
         __size_of_config_os 0058              __ccov1_end_blk0 18F8             __ccov65_end_blk6 1944  
           __ccov81_end_blk7 169E          __ccov128_start_blk2 1858          __ccov136_start_blk6 0672  
            __ccov2_end_blk1 18FC                 _RR_scheduler 1484             __ccov74_end_blk0 15D8  
           __ccov66_end_blk7 1946             __ccov82_end_blk8 16AA             __ccov90_end_blk9 1198  
              __uDynamicHeap 0400             __ccov83_end_blk0 0FE2             __ccov59_end_blk0 191E  
           __ccov75_end_blk1 15FA             __ccov67_end_blk8 1948          __ccov50_start_blk40 0E5A  
        __ccov34_start_blk19 0C58          __ccov42_start_blk29 0DA0                   _delay_task 0FD8  
            __ccov4_end_blk3 1902             __ccov84_end_blk1 1022             __ccov76_end_blk2 161C  
         __ccov63_start_blk4 193E             __ccov68_end_blk9 194A           __size_of_scheduler 0010  
            __ccov5_end_blk0 1A9C             __ccov85_end_blk2 102A             __ccov77_end_blk3 162C  
        __ccov129_start_blk3 1878          __ccov137_start_blk7 0690          __ccov97_start_blk19 123E  
       __ccov140_start_blk11 06A6         __ccov108_start_blk34 1448              __ccov6_end_blk1 1AA8  
         __size_of_task_idle 0028             __ccov86_end_blk3 1036             __ccov78_end_blk4 1640  
            __ccov7_end_blk2 1AAC             __ccov87_end_blk5 1038             __ccov79_end_blk5 1654  
       __ccov195_start_blk42 058A         __ccov179_start_blk18 0318         __ccov187_start_blk29 03D8  
                    i2u30_40 0C36                      i2u30_41 0C32                      i2u31_40 0C50  
                    i2u31_41 0C4C                      i2u32_40 0C96                      i2u32_41 0C92  
                    i2u33_40 0DA0                      i2u33_41 0D9C                      i2u34_40 0E5A  
                    i2u26_40 0B3A                      i2u34_41 0E56                      i2u26_41 0B36  
                    i2u35_40 0F42                      i2u27_40 0B52                      i2u35_41 0F3E  
                    i2u27_41 0B4E                      i2u28_40 0B96                      i2u28_41 0B92  
                    i2u29_40 0BF0                      i2u29_41 0BEC             __ccov88_end_blk6 1072  
         __ccov64_start_blk5 1940           __ccov80_start_blk6 1654              __ccov9_end_blk1 197E  
           __ccov89_end_blk7 112A          __ccov170_start_blk6 0132          __ccov138_start_blk8 0698  
          __ccov1_start_blk0 18A0                      __Hparam 0000          __ccov35_start_blk20 0C5C  
        __ccov43_start_blk31 0DEE          __ccov51_start_blk42 0ECC                      __Lparam 0000  
         __ccov65_start_blk6 1942           __ccov81_start_blk7 1694            __end_of_config_os 195E  
            __size_of___wmul 0096                      ___lwmod 16AA          __ccov171_start_blk7 013A  
        __ccov98_start_blk20 124A         __ccov141_start_blk12 06E0         __ccov109_start_blk35 1476  
                    __pcinit 19AA        __size_of_config_tasks 0016                   _init_mutex 1828  
                    __ramtop 0600              __size_of_task_1 004C              __size_of_task_2 0042  
            __size_of_task_3 0038                      __ptext0 18A0                      __ptext1 1AAC  
                    __ptext2 1906                      __ptext3 15B8                      __ptext4 1A96  
                    __ptext5 1828                      __ptext6 195E                      __ptext7 0014  
                    __ptext8 0598                      __ptext9 0FD8                    _T0CONbits 000FD5  
            __size_of_unlock 0584            __ccov2_start_blk1 18F8         __ccov188_start_blk31 0468  
       __ccov196_start_blk43 058C            __ccov30_end_blk14 0C36           __ccov74_start_blk0 15B8  
         __ccov66_start_blk7 1944           __ccov82_start_blk8 169E           __ccov90_start_blk9 112A  
          __end_of_scheduler 1ACC               __pintcode_body 0AF6         end_of_initialization 19EE  
        __ccov164_start_blk0 0014          __ccov172_start_blk9 0146            __ccov31_end_blk16 0C3C  
          __end_of_task_idle 1A96                      int_func 0AF6            __ccov32_end_blk17 0C50  
          __ccov40_end_blk26 0D8E          __ccov36_start_blk22 0C64          __ccov44_start_blk33 0DF0  
        __ccov52_start_blk43 0ED4                 _config_tasks 1A96           __ccov83_start_blk0 0FD8  
         __ccov59_start_blk0 1906           __ccov75_start_blk1 15D8           __ccov67_start_blk8 1946  
                    postdec0 000FED                      postdec1 000FE5                      postdec2 000FDD  
                    postinc0 000FEE                      postinc1 000FE6                      postinc2 000FDE  
        __ccov165_start_blk1 001E          __ccov99_start_blk22 1288            __ccov33_end_blk18 0C58  
          __ccov41_end_blk27 0DA0         __ccov142_start_blk14 0798         __ccov150_start_blk25 08B8  
                  _PORTCbits 000F82                    _PORTDbits 000F83               _isr_INTERRUPTS 0008  
          __ccov4_start_blk3 18FC         __ccov189_start_blk32 048A                    _TRISBbits 000F93  
          __ccov50_end_blk40 0ECC            __ccov34_end_blk19 0C5C            __ccov42_end_blk29 0DEE  
                  _TRISCbits 000F94                    _TRISDbits 000F95           __ccov84_start_blk1 0FE2  
         __ccov76_start_blk2 15FA           __ccov68_start_blk9 1948          __ccov166_start_blk2 002E  
          __ccov35_end_blk20 0C64            __ccov43_end_blk31 0DF0            __ccov51_end_blk42 0ED4  
    isr_INTERRUPTS@p_context 0037            __ccov5_start_blk0 1A96            __ccov36_end_blk22 0C66  
          __ccov44_end_blk33 0DF4          __ccov29_start_blk12 0C16            __ccov52_end_blk43 0F2E  
        __ccov37_start_blk23 0C66          __ccov45_start_blk34 0DF4          __ccov53_start_blk45 0F2E  
         __ccov85_start_blk2 1022           __ccov77_start_blk3 161C                  __ccovbit2_2 0037  
                __ccovbit1_6 0033                  __ccovbit3_1 0038                  __ccovbit2_5 0034  
                __ccovbit2_7 0032                  __ccovbit3_4 0035                  __ccovbit4_3 0036  
                __ccovbit8_8 0031                  __ccovbit9_9 0030               __end_of___wmul 1828  
        __ccov167_start_blk3 0058       __end_of_isr_INTERRUPTS 0FD8                __pidataCOMRAM 1ACC  
          __ccov29_end_blk12 0C1C            __ccov37_end_blk23 0C96            __ccov45_end_blk34 0DFC  
          __ccov53_end_blk45 0F46         __ccov143_start_blk15 0806         __ccov151_start_blk27 08F6  
             __end_of_task_1 19AA               __end_of_task_2 1A36               __end_of_task_3 1A6E  
          __ccov6_start_blk1 1A9C               __end_of_unlock 0598          start_initialization 19AA  
          __ccov70_end_blk11 194E            __ccov38_end_blk24 0D30            __ccov46_end_blk35 0E24  
          __ccov54_end_blk47 0F48          __size_of_delay_task 04AC           __ccov86_start_blk3 102A  
         __ccov78_start_blk4 162C          __ccov168_start_blk4 00C4            __ccov71_end_blk12 1956  
          __ccov39_end_blk25 0D8A            __ccov47_end_blk37 0E26            __ccov55_end_blk48 0F7C  
          __ccov7_start_blk2 1AA8            __ccov72_end_blk13 195A          __ccov70_start_blk11 194C  
          __ccov48_end_blk38 0E28          __ccov38_start_blk24 0C96            __ccov56_end_blk49 0FA0  
        __ccov46_start_blk35 0DFC          __ccov54_start_blk47 0F46          __end_of_create_task 16AA  
         __ccov87_start_blk5 1036           __ccov79_start_blk5 1640          __ccov169_start_blk5 0114  
            ?_isr_INTERRUPTS 0028            __ccov73_end_blk14 195E            __ccov57_end_blk50 0FA4  
          __ccov49_end_blk39 0E5A         __ccov144_start_blk16 0824         __ccov152_start_blk28 08F8  
       __ccov160_start_blk39 0AB6                  __pbssBIGRAM 01B8                  __pbssCOMRAM 0041  
          __ccov58_end_blk55 0FD8           __ccov88_start_blk6 1038            __ccov91_end_blk10 11B6  
        __size_of_init_mutex 0078            __ccov9_start_blk1 195E            __ccov92_end_blk11 11C8  
        __ccov71_start_blk12 194E          __ccov39_start_blk25 0D30          __ccov47_start_blk37 0E24  
        __ccov55_start_blk48 0F48                    __pintcode 0008           __ccov89_start_blk7 1072  
                  _config_os 1906            __ccov69_end_blk10 194C            __ccov93_end_blk13 1208  
       __ccov161_start_blk40 0AE4         __ccov145_start_blk18 0836         __ccov153_start_blk29 08FA  
          __size_of_start_os 0010            __ccov94_end_blk14 1238            __ccov95_end_blk16 123A  
                  _scheduler 1ABC                  _create_task 15B8                     _LATCbits 000F8B  
                   _LATDbits 000F8C                    _task_idle 1A6E            __ccov96_end_blk18 123E  
        __ccov72_start_blk13 1956          __ccov48_start_blk38 0E26          __ccov56_start_blk49 0F7C  
          __ccov97_end_blk19 124A         __ccov154_start_blk30 0936         __ccov162_start_blk43 0AE8  
       __ccov146_start_blk19 0876                    fp__task_1 0000                    fp__task_2 0000  
                  fp__task_3 0000            __ccov98_end_blk20 1288           __end_of_delay_task 1484  
     isr_INTERRUPTS@task_pos 003D            __ccov99_end_blk22 128A                     __Hrparam 0000  
                   __Lrparam 0000          __ccov73_start_blk14 195A          __ccov57_start_blk50 0FA0  
        __ccov49_start_blk39 0E28         __ccov100_start_blk23 128A  isr_INTERRUPTS@p_context_624 0039  
           __size_of___lwmod 00E8         __ccov139_start_blk10 06A4         __ccov147_start_blk21 08A6  
       __ccov155_start_blk32 09C6         __ccov163_start_blk44 0AEA                     __ptext10 1ABC  
                   __ptext11 1484                     __ptext12 16AA                     __ptext13 19F4  
                   __ptext14 1A36                     __ptext15 1A6E                     __ptext17 1792  
                   __ptext18 0000                __size_of_main 0066                __size_of_lock 055E  
         __end_of_init_mutex 18A0                  _ready_queue 01B8             ??_isr_INTERRUPTS 0028  
         __ccov100_end_blk23 128C          __ccov58_start_blk55 0FA4         __ccov101_start_blk24 128C  
                   _start_os 1AAC           __ccov101_end_blk24 12C8         __ccov180_start_blk20 0348  
       __ccov148_start_blk23 08A8         __ccov156_start_blk33 09E8                   _INTCONbits 000FF2  
         __ccov10_start_blk2 197E           __ccov102_end_blk25 1358           __ccov110_end_blk37 1484  
                   intlevel1 0000                     intlevel2 0000           __ccov103_end_blk27 137A  
         __ccov11_start_blk3 198A           __ccov104_end_blk28 13E8          __ccov91_start_blk10 1198  
       __ccov102_start_blk25 12C8         __ccov110_start_blk37 1478           __ccov105_end_blk30 1408  
       __ccov173_start_blk10 0148         __ccov181_start_blk22 034A         __ccov149_start_blk24 08AC  
       __ccov157_start_blk35 0A56            __ccov111_end_blk0 1AB0           __ccov20_start_blk0 0AF6  
         __ccov12_start_blk4 1996            __ccov112_end_blk1 1AB8            __ccov120_end_blk7 155A  
         __ccov122_end_blk11 15AC           __ccov106_end_blk32 140A            __ccov113_end_blk2 1ABC  
          __ccov121_end_blk8 159E            __ccov130_end_blk4 18A0           __ccov123_end_blk13 15B8  
         __ccov107_end_blk33 1448            __ccov131_end_blk0 05A2            __ccov115_end_blk1 1A94  
         __ccov21_start_blk1 0B3A  
