

Microchip MPLAB XC8 Assembler V2.20 build 20200408173844 
                                                                                               Wed May 18 16:02:34 2022

Microchip MPLAB XC8 C Compiler v2.20 (Free license) build 20200408173844 Og1 
     1                           	processor	18F4520
     2                           	fnconf	rparam,??,?,0
     3                           	pagewidth 120
     4                           	opt	flic
     5                           	psect	idataCOMRAM,global,class=CODE,delta=1,noexec
     6                           	psect	cinit,global,reloc=2,class=CODE,delta=1
     7                           	psect	bitbssCOMRAM,global,bit,class=COMRAM,space=1,delta=1,lowdata,noexec
     8                           	psect	dataCOMRAM,global,class=COMRAM,space=1,delta=1,lowdata,noexec
     9                           	psect	bssBIGRAM,global,class=BIGRAM,space=1,delta=1,lowdata,noexec
    10                           	psect	cstackBANK1,global,class=BANK1,space=1,delta=1,lowdata,noexec
    11                           	psect	cstackBANK0,global,class=BANK0,space=1,delta=1,lowdata,noexec
    12                           	psect	cstackCOMRAM,global,class=COMRAM,space=1,delta=1,lowdata,noexec
    13                           	psect	text0,global,reloc=2,class=CODE,delta=1,codecov
    14                           	psect	text1,global,reloc=2,class=CODE,delta=1,codecov
    15                           	psect	text2,global,reloc=2,class=CODE,delta=1,codecov
    16                           	psect	text3,global,reloc=2,class=CODE,delta=1,group=1
    17                           	psect	text4,global,reloc=2,class=CODE,delta=1,codecov
    18                           	psect	text5,global,reloc=2,class=CODE,delta=1,codecov
    19                           	psect	text6,global,reloc=2,class=CODE,delta=1,codecov
    20                           	psect	text7,global,reloc=2,class=CODE,delta=1,codecov
    21                           	psect	text8,global,reloc=2,class=CODE,delta=1,codecov
    22                           	psect	text9,global,reloc=2,class=CODE,delta=1,codecov
    23                           	psect	text10,global,reloc=2,class=CODE,delta=1,codecov
    24                           	psect	text11,global,reloc=2,class=CODE,delta=1,codecov
    25                           	psect	text12,global,reloc=2,class=CODE,delta=1
    26                           	psect	intcode,global,reloc=2,class=CODE,delta=1
    27                           	psect	intcode_body,global,reloc=2,class=CODE,delta=1
    28                           	psect	text14,global,reloc=2,class=CODE,delta=1,codecov
    29                           	psect	text15,global,reloc=2,class=CODE,delta=1,codecov
    30                           	psect	text16,global,reloc=2,class=CODE,delta=1
    31                           	psect	codecov_info_hdr,global,note,abs,reloc=1,space=6,delta=1,noexec
    32                           	psect	codecov_info,global,note,abs,reloc=1,space=6,delta=1,noexec
    33                           	psect	intsave_regs,global,class=BIGRAM,space=1,delta=1,noexec
    34                           	psect	text17,global,reloc=2,class=CODE,delta=1
    35                           	psect	rparam,global,class=COMRAM,space=1,delta=1,noexec
    36                           	psect	temp,global,ovrld,common,class=COMRAM,space=1,delta=1
    37                           	psect	idloc,global,abs,ovrld,class=IDLOC,space=5,delta=1,noexec
    38                           	psect	config,global,abs,ovrld,class=CONFIG,space=4,delta=1,noexec
    39  0000                     
    40                           ; Version 2.40
    41                           ; Generated 17/11/2021 GMT
    42                           ; 
    43                           ; Copyright © 2021, Microchip Technology Inc. and its subsidiaries ("Microchip")
    44                           ; All rights reserved.
    45                           ; 
    46                           ; This software is developed by Microchip Technology Inc. and its subsidiaries ("Microch
      +                          ip").
    47                           ; 
    48                           ; Redistribution and use in source and binary forms, with or without modification, are
    49                           ; permitted provided that the following conditions are met:
    50                           ; 
    51                           ;     1. Redistributions of source code must retain the above copyright notice, this lis
      +                          t of
    52                           ;        conditions and the following disclaimer.
    53                           ; 
    54                           ;     2. Redistributions in binary form must reproduce the above copyright notice, this 
      +                          list
    55                           ;        of conditions and the following disclaimer in the documentation and/or other
    56                           ;        materials provided with the distribution. Publication is not required when
    57                           ;        this file is used in an embedded application.
    58                           ; 
    59                           ;     3. Microchip's name may not be used to endorse or promote products derived from th
      +                          is
    60                           ;        software without specific prior written permission.
    61                           ; 
    62                           ; THIS SOFTWARE IS PROVIDED BY MICROCHIP "AS IS" AND ANY EXPRESS OR IMPLIED WARRANTIES,
    63                           ; INCLUDING, BUT NOT LIMITED TO, THE IMPLIED WARRANTIES OF MERCHANTABILITY AND FITNESS F
      +                          OR
    64                           ; PURPOSE ARE DISCLAIMED.  IN NO EVENT SHALL MICROCHIP BE LIABLE FOR ANY DIRECT, INDIREC
      +                          T,
    65                           ; INCIDENTAL, SPECIAL, EXEMPLARY, OR CONSEQUENTIAL DAMAGES (INCLUDING BUT NOT LIMITED TO
    66                           ; PROCUREMENT OF SUBSTITUTE GOODS OR SERVICES; LOSS OF USE, DATA OR PROFITS; OR BUSINESS
    67                           ; INTERRUPTION) HOWSOEVER CAUSED AND ON ANY THEORY OF LIABILITY, WHETHER IN CONTRACT, ST
      +                          RICT
    68                           ; LIABILITY, OR TORT (INCLUDING NEGLIGENCE OR OTHERWISE) ARISING IN ANY WAY OUT OF THE U
      +                          SE OF
    69                           ; THIS SOFTWARE, EVEN IF ADVISED OF THE POSSIBILITY OF SUCH DAMAGE.
    70                           ; 
    71                           ; 
    72                           ; Code-generator required, PIC18F4520 Definitions
    73                           ; 
    74                           ; SFR Addresses
    75  0000                     
    76                           	psect	idataCOMRAM
    77  000D28                     __pidataCOMRAM:
    78                           	callstack 0
    79                           
    80                           ;initializer for _rr_quantum_control
    81  000D28  0008               	dw	8
    82  0000                     _TOS	set	4093
    83  0000                     _TMR0	set	4054
    84  0000                     _T0CONbits	set	4053
    85  0000                     _TRISBbits	set	3987
    86  0000                     _STKPTR	set	4092
    87  0000                     _STATUS	set	4056
    88  0000                     _WREG	set	4072
    89  0000                     _BSR	set	4064
    90  0000                     _INTCONbits	set	4082
    91  0000                     _PORTDbits	set	3971
    92  0000                     _LATDbits	set	3980
    93  0000                     _TRISDbits	set	3989
    94                           
    95                           ; #config settings
    96                           
    97                           	psect	cinit
    98  000B5E                     __pcinit:
    99                           	callstack 0
   100  000B5E                     start_initialization:
   101                           	callstack 0
   102  000B5E                     __initialization:
   103                           	callstack 0
   104                           
   105                           ; Initialize objects allocated to COMRAM (2 bytes)
   106                           ; load TBLPTR registers with __pidataCOMRAM
   107  000B5E  0E28               	movlw	low __pidataCOMRAM
   108  000B60  6EF6               	movwf	tblptrl,c
   109  000B62  0E0D               	movlw	high __pidataCOMRAM
   110  000B64  6EF7               	movwf	tblptrh,c
   111  000B66  0E00               	movlw	low (__pidataCOMRAM shr (0+16))
   112  000B68  6EF8               	movwf	tblptru,c
   113  000B6A  0009               	tblrd		*+	;fetch initializer
   114  000B6C  CFF5 F02B          	movff	tablat,__pdataCOMRAM
   115  000B70  0009               	tblrd		*+	;fetch initializer
   116  000B72  CFF5 F02C          	movff	tablat,__pdataCOMRAM+1
   117                           
   118                           ; Clear objects allocated to BIGRAM (468 bytes)
   119  000B76  EE01  F080         	lfsr	0,__pbssBIGRAM
   120  000B7A  EE11 F0D4          	lfsr	1,468
   121  000B7E                     clear_0:
   122  000B7E  6AEE               	clrf	postinc0,c
   123  000B80  50E5               	movf	postdec1,w,c
   124  000B82  50E1               	movf	fsr1l,w,c
   125  000B84  E1FC               	bnz	clear_0
   126  000B86  50E2               	movf	fsr1h,w,c
   127  000B88  E1FA               	bnz	clear_0
   128                           
   129                           ; Clear objects allocated to BITCOMRAM (5 bytes)
   130  000B8A  6A05               	clrf	((__pbitbssCOMRAM/(0+8)+4))& (0+255),c
   131  000B8C  6A04               	clrf	((__pbitbssCOMRAM/(0+8)+3))& (0+255),c
   132  000B8E  6A03               	clrf	((__pbitbssCOMRAM/(0+8)+2))& (0+255),c
   133  000B90  6A02               	clrf	((__pbitbssCOMRAM/(0+8)+1))& (0+255),c
   134  000B92  6A01               	clrf	(__pbitbssCOMRAM/(0+8))& (0+255),c
   135  000B94                     end_of_initialization:
   136                           	callstack 0
   137  000B94                     __end_of__initialization:
   138                           	callstack 0
   139  000B94  902D               	bcf	int$flags,0,c	;clear compiler interrupt flag (level 1)
   140  000B96  922D               	bcf	int$flags,1,c	;clear compiler interrupt flag (level 2)
   141  000B98  0100               	movlb	0
   142  000B9A  EF43  F005         	goto	_main	;jump to C main() function
   143                           
   144                           	psect	bitbssCOMRAM
   145  000008                     __pbitbssCOMRAM:
   146                           	callstack 0
   147  000008                     __ccovbit3_37:
   148                           	callstack 0
   149  000008                     	ds	1
   150  000009                     __ccovbit13_36:
   151                           	callstack 0
   152  000009                     	ds	1
   153  00000A                     __ccovbit9_35:
   154                           	callstack 0
   155  00000A                     	ds	1
   156  00000B                     __ccovbit7_34:
   157                           	callstack 0
   158  00000B                     	ds	1
   159  00000C                     __ccovbit5_33:
   160                           	callstack 0
   161  00000C                     	ds	1
   162  00000D                     __ccovbit3_32:
   163                           	callstack 0
   164  00000D                     	ds	1
   165  00000E                     __ccovbit13_31:
   166                           	callstack 0
   167  00000E                     	ds	1
   168  00000F                     __ccovbit9_30:
   169                           	callstack 0
   170  00000F                     	ds	1
   171  000010                     __ccovbit7_29:
   172                           	callstack 0
   173  000010                     	ds	1
   174  000011                     __ccovbit5_28:
   175                           	callstack 0
   176  000011                     	ds	1
   177  000012                     __ccovbit33_27:
   178                           	callstack 0
   179  000012                     	ds	1
   180  000013                     __ccovbit29_26:
   181                           	callstack 0
   182  000013                     	ds	1
   183  000014                     __ccovbit26_25:
   184                           	callstack 0
   185  000014                     	ds	1
   186  000015                     __ccovbit24_24:
   187                           	callstack 0
   188  000015                     	ds	1
   189  000016                     __ccovbit12_23:
   190                           	callstack 0
   191  000016                     	ds	1
   192  000017                     __ccovbit10_22:
   193                           	callstack 0
   194  000017                     	ds	1
   195  000018                     __ccovbit2_21:
   196                           	callstack 0
   197  000018                     	ds	1
   198  000019                     __ccovbit7_20:
   199                           	callstack 0
   200  000019                     	ds	1
   201  00001A                     __ccovbit3_19:
   202                           	callstack 0
   203  00001A                     	ds	1
   204  00001B                     __ccovbit51_18:
   205                           	callstack 0
   206  00001B                     	ds	1
   207  00001C                     __ccovbit46_17:
   208                           	callstack 0
   209  00001C                     	ds	1
   210  00001D                     __ccovbit44_16:
   211                           	callstack 0
   212  00001D                     	ds	1
   213  00001E                     __ccovbit41_15:
   214                           	callstack 0
   215  00001E                     	ds	1
   216  00001F                     __ccovbit39_14:
   217                           	callstack 0
   218  00001F                     	ds	1
   219  000020                     __ccovbit27_13:
   220                           	callstack 0
   221  000020                     	ds	1
   222  000021                     __ccovbit25_12:
   223                           	callstack 0
   224  000021                     	ds	1
   225  000022                     __ccovbit16_11:
   226                           	callstack 0
   227  000022                     	ds	1
   228  000023                     __ccovbit11_10:
   229                           	callstack 0
   230  000023                     	ds	1
   231  000024                     __ccovbit8_9:
   232                           	callstack 0
   233  000024                     	ds	1
   234  000025                     __ccovbit7_8:
   235                           	callstack 0
   236  000025                     	ds	1
   237  000026                     __ccovbit2_7:
   238                           	callstack 0
   239  000026                     	ds	1
   240  000027                     __ccovbit1_6:
   241                           	callstack 0
   242  000027                     	ds	1
   243  000028                     __ccovbit2_5:
   244                           	callstack 0
   245  000028                     	ds	1
   246  000029                     __ccovbit1_4:
   247                           	callstack 0
   248  000029                     	ds	1
   249  00002A                     __ccovbit1_3:
   250                           	callstack 0
   251  00002A                     	ds	1
   252  00002B                     __ccovbit1_2:
   253                           	callstack 0
   254  00002B                     	ds	1
   255  00002C                     __ccovbit6_1:
   256                           	callstack 0
   257  00002C                     	ds	1
   258                           
   259                           	psect	dataCOMRAM
   260  00002B                     __pdataCOMRAM:
   261                           	callstack 0
   262  00002B                     _rr_quantum_control:
   263                           	callstack 0
   264  00002B                     	ds	2
   265                           
   266                           	psect	bssBIGRAM
   267  000180                     __pbssBIGRAM:
   268                           	callstack 0
   269  000180                     _ready_queue:
   270                           	callstack 0
   271  000180                     	ds	468
   272                           
   273                           	psect	cstackBANK1
   274  000100                     __pcstackBANK1:
   275                           	callstack 0
   276  000100                     ?___wmul:
   277                           	callstack 0
   278  000100                     ___wmul@multiplier:
   279                           	callstack 0
   280                           
   281                           ; 2 bytes @ 0x0
   282  000100                     	ds	2
   283  000102                     ___wmul@multiplicand:
   284                           	callstack 0
   285                           
   286                           ; 2 bytes @ 0x2
   287  000102                     	ds	2
   288  000104                     ___wmul@product:
   289                           	callstack 0
   290                           
   291                           ; 2 bytes @ 0x4
   292  000104                     	ds	2
   293  000106                     create_task@id:
   294                           	callstack 0
   295                           
   296                           ; 2 bytes @ 0x6
   297  000106                     	ds	2
   298  000108                     create_task@prior:
   299                           	callstack 0
   300                           
   301                           ; 2 bytes @ 0x8
   302  000108                     	ds	2
   303  00010A                     create_task@task:
   304                           	callstack 0
   305                           
   306                           ; 2 bytes @ 0xA
   307  00010A                     	ds	2
   308  00010C                     create_task@new_task:
   309                           	callstack 0
   310                           
   311                           ; 116 bytes @ 0xC
   312  00010C                     	ds	116
   313  000180                     
   314                           ; 1 bytes @ 0x80
   315                           
   316                           	psect	cstackBANK0
   317  000080                     __pcstackBANK0:
   318                           	callstack 0
   319  000080                     	ds	36
   320  0000A4                     ??_task_1:
   321                           
   322                           ; 1 bytes @ 0x24
   323  0000A4                     	ds	1
   324  0000A5                     ??_task_2:
   325                           
   326                           ; 1 bytes @ 0x25
   327  0000A5                     	ds	1
   328  0000A6                     ?i1___wmul:
   329                           	callstack 0
   330  0000A6                     i1___wmul@multiplier:
   331                           	callstack 0
   332                           
   333                           ; 2 bytes @ 0x26
   334  0000A6                     	ds	2
   335  0000A8                     i1___wmul@multiplicand:
   336                           	callstack 0
   337                           
   338                           ; 2 bytes @ 0x28
   339  0000A8                     	ds	2
   340  0000AA                     i1___wmul@product:
   341                           	callstack 0
   342                           
   343                           ; 2 bytes @ 0x2A
   344  0000AA                     	ds	2
   345  0000AC                     ?_PRIOR_scheduler:
   346                           	callstack 0
   347                           
   348                           ; 2 bytes @ 0x2C
   349  0000AC                     	ds	2
   350  0000AE                     
   351                           ; 1 bytes @ 0x2E
   352  0000AE                     	ds	2
   353  0000B0                     PRIOR_scheduler@menor_prioridade:
   354                           	callstack 0
   355                           
   356                           ; 2 bytes @ 0x30
   357  0000B0                     	ds	2
   358  0000B2                     PRIOR_scheduler@task_to_run:
   359                           	callstack 0
   360                           
   361                           ; 2 bytes @ 0x32
   362  0000B2                     	ds	2
   363  0000B4                     PRIOR_scheduler@y:
   364                           	callstack 0
   365                           
   366                           ; 2 bytes @ 0x34
   367  0000B4                     	ds	2
   368  0000B6                     ?_scheduler:
   369                           	callstack 0
   370                           
   371                           ; 2 bytes @ 0x36
   372  0000B6                     	ds	2
   373  0000B8                     scheduler@task_to_run:
   374                           	callstack 0
   375                           
   376                           ; 2 bytes @ 0x38
   377  0000B8                     	ds	2
   378  0000BA                     delay_task@time:
   379                           	callstack 0
   380                           
   381                           ; 2 bytes @ 0x3A
   382  0000BA                     	ds	2
   383  0000BC                     ??_delay_task:
   384                           
   385                           ; 1 bytes @ 0x3C
   386  0000BC                     	ds	3
   387  0000BF                     delay_task@p_context:
   388                           	callstack 0
   389                           
   390                           ; 2 bytes @ 0x3F
   391  0000BF                     	ds	2
   392  0000C1                     delay_task@p_context_474:
   393                           	callstack 0
   394                           
   395                           ; 2 bytes @ 0x41
   396  0000C1                     	ds	2
   397  0000C3                     delay_task@task_pos:
   398                           	callstack 0
   399                           
   400                           ; 2 bytes @ 0x43
   401  0000C3                     	ds	2
   402  0000C5                     delay_task@task_pos_473:
   403                           	callstack 0
   404                           
   405                           ; 2 bytes @ 0x45
   406  0000C5                     	ds	2
   407  0000C7                     ??_task_3:
   408                           
   409                           ; 1 bytes @ 0x47
   410  0000C7                     	ds	1
   411                           
   412                           	psect	cstackCOMRAM
   413  000006                     __pcstackCOMRAM:
   414                           	callstack 0
   415  000006                     ?i2___wmul:
   416                           	callstack 0
   417  000006                     i2___wmul@multiplier:
   418                           	callstack 0
   419                           
   420                           ; 2 bytes @ 0x0
   421  000006                     	ds	2
   422  000008                     i2___wmul@multiplicand:
   423                           	callstack 0
   424                           
   425                           ; 2 bytes @ 0x2
   426  000008                     	ds	2
   427  00000A                     i2___wmul@product:
   428                           	callstack 0
   429                           
   430                           ; 2 bytes @ 0x4
   431  00000A                     	ds	2
   432  00000C                     ?i2_PRIOR_scheduler:
   433                           	callstack 0
   434                           
   435                           ; 2 bytes @ 0x6
   436  00000C                     	ds	2
   437  00000E                     
   438                           ; 1 bytes @ 0x8
   439  00000E                     	ds	2
   440  000010                     i2PRIOR_scheduler@menor_prioridade:
   441                           	callstack 0
   442                           
   443                           ; 2 bytes @ 0xA
   444  000010                     	ds	2
   445  000012                     i2PRIOR_scheduler@task_to_run:
   446                           	callstack 0
   447                           
   448                           ; 2 bytes @ 0xC
   449  000012                     	ds	2
   450  000014                     i2PRIOR_scheduler@y:
   451                           	callstack 0
   452                           
   453                           ; 2 bytes @ 0xE
   454  000014                     	ds	2
   455  000016                     ?i2_scheduler:
   456                           	callstack 0
   457                           
   458                           ; 2 bytes @ 0x10
   459  000016                     	ds	2
   460  000018                     i2scheduler@task_to_run:
   461                           	callstack 0
   462                           
   463                           ; 2 bytes @ 0x12
   464  000018                     	ds	2
   465  00001A                     ??_isr_INTERRUPTS:
   466                           
   467                           ; 1 bytes @ 0x14
   468  00001A                     	ds	7
   469  000021                     isr_INTERRUPTS@p_context:
   470                           	callstack 0
   471                           
   472                           ; 2 bytes @ 0x1B
   473  000021                     	ds	2
   474  000023                     isr_INTERRUPTS@p_context_430:
   475                           	callstack 0
   476                           
   477                           ; 2 bytes @ 0x1D
   478  000023                     	ds	2
   479  000025                     isr_INTERRUPTS@i:
   480                           	callstack 0
   481                           
   482                           ; 2 bytes @ 0x1F
   483  000025                     	ds	2
   484  000027                     isr_INTERRUPTS@task_pos:
   485                           	callstack 0
   486                           
   487                           ; 2 bytes @ 0x21
   488  000027                     	ds	2
   489  000029                     isr_INTERRUPTS@task_pos_429:
   490                           	callstack 0
   491                           
   492                           ; 2 bytes @ 0x23
   493  000029                     	ds	2
   494                           
   495 ;;
   496 ;;Main: autosize = 0, tempsize = 0, incstack = 0, save=0
   497 ;;
   498 ;; *************** function _main *****************
   499 ;; Defined at:
   500 ;;		line 3 in file "main.c"
   501 ;; Parameters:    Size  Location     Type
   502 ;;		None
   503 ;; Auto vars:     Size  Location     Type
   504 ;;		None
   505 ;; Return value:  Size  Location     Type
   506 ;;                  2   16[None  ] int 
   507 ;; Registers used:
   508 ;;		wreg, fsr1l, fsr1h, fsr2l, fsr2h, status,2, status,0, prodl, prodh, cstack
   509 ;; Tracked objects:
   510 ;;		On entry : 0/0
   511 ;;		On exit  : 0/0
   512 ;;		Unchanged: 0/0
   513 ;; Data sizes:     COMRAM   BANK0   BANK1   BANK2   BANK3   BANK4   BANK5
   514 ;;      Params:         0       0       0       0       0       0       0
   515 ;;      Locals:         0       0       0       0       0       0       0
   516 ;;      Temps:          0       0       0       0       0       0       0
   517 ;;      Totals:         0       0       0       0       0       0       0
   518 ;;Total ram usage:        0 bytes
   519 ;; Hardware stack levels required when called:   11
   520 ;; This function calls:
   521 ;;		_config_os
   522 ;;		_create_task
   523 ;;		_start_os
   524 ;; This function is called by:
   525 ;;		Startup code after reset
   526 ;; This function uses a non-reentrant model
   527 ;;
   528                           
   529                           	psect	text0
   530  000A86                     __ptext0:
   531                           	callstack 0
   532  000A86                     _main:
   533                           	callstack 20
   534                           
   535                           ;incstack = 0
   536  000A86                     
   537                           ;main.c: 6:    config_os();
   538  000A86  ECCF  F005         	call	_config_os	;wreg free
   539  000A8A                     __ccov1_end_blk0:
   540                           	callstack 20
   541  000A8A                     __ccov2_start_blk1:
   542                           	callstack 20
   543  000A8A                     
   544                           ;main.c: 9:    create_task(1, 3, task_1);
   545  000A8A  0E00               	movlw	0
   546  000A8C  0101               	movlb	1	; () banked
   547  000A8E  6F07               	movwf	(create_task@id+1)& (0+255),b
   548  000A90  0E01               	movlw	1
   549  000A92  6F06               	movwf	create_task@id& (0+255),b
   550  000A94  0E00               	movlw	0
   551  000A96  6F09               	movwf	(create_task@prior+1)& (0+255),b
   552  000A98  0E03               	movlw	3
   553  000A9A  6F08               	movwf	create_task@prior& (0+255),b
   554  000A9C  0E3E               	movlw	low _task_1
   555  000A9E  6F0A               	movwf	create_task@task& (0+255),b
   556  000AA0  0E0C               	movlw	high _task_1
   557  000AA2  6F0B               	movwf	(create_task@task+1)& (0+255),b
   558  000AA4  EC79  F005         	call	_create_task	;wreg free
   559  000AA8                     __ccov2_end_blk1:
   560                           	callstack 20
   561  000AA8                     __ccov3_start_blk2:
   562                           	callstack 20
   563  000AA8                     
   564                           ;main.c: 10:    create_task(2, 2, task_2);
   565  000AA8  0E00               	movlw	0
   566  000AAA  0101               	movlb	1	; () banked
   567  000AAC  6F07               	movwf	(create_task@id+1)& (0+255),b
   568  000AAE  0E02               	movlw	2
   569  000AB0  6F06               	movwf	create_task@id& (0+255),b
   570  000AB2  0E00               	movlw	0
   571  000AB4  6F09               	movwf	(create_task@prior+1)& (0+255),b
   572  000AB6  0E02               	movlw	2
   573  000AB8  6F08               	movwf	create_task@prior& (0+255),b
   574  000ABA  0E12               	movlw	low _task_2
   575  000ABC  6F0A               	movwf	create_task@task& (0+255),b
   576  000ABE  0E0C               	movlw	high _task_2
   577  000AC0  6F0B               	movwf	(create_task@task+1)& (0+255),b
   578  000AC2  EC79  F005         	call	_create_task	;wreg free
   579  000AC6                     __ccov3_end_blk2:
   580                           	callstack 20
   581  000AC6                     __ccov4_start_blk3:
   582                           	callstack 20
   583  000AC6                     
   584                           ;main.c: 11:    create_task(3, 1, task_3);
   585  000AC6  0E00               	movlw	0
   586  000AC8  0101               	movlb	1	; () banked
   587  000ACA  6F07               	movwf	(create_task@id+1)& (0+255),b
   588  000ACC  0E03               	movlw	3
   589  000ACE  6F06               	movwf	create_task@id& (0+255),b
   590  000AD0  0E00               	movlw	0
   591  000AD2  6F09               	movwf	(create_task@prior+1)& (0+255),b
   592  000AD4  0E01               	movlw	1
   593  000AD6  6F08               	movwf	create_task@prior& (0+255),b
   594  000AD8  0ED8               	movlw	low _task_3
   595  000ADA  6F0A               	movwf	create_task@task& (0+255),b
   596  000ADC  0E0B               	movlw	high _task_3
   597  000ADE  6F0B               	movwf	(create_task@task+1)& (0+255),b
   598  000AE0  EC79  F005         	call	_create_task	;wreg free
   599  000AE4                     __ccov4_end_blk3:
   600                           	callstack 20
   601  000AE4                     __ccov5_start_blk4:
   602                           	callstack 20
   603  000AE4                     
   604                           ;main.c: 14:    start_os();
   605  000AE4  EC87  F006         	call	_start_os	;wreg free
   606  000AE8                     __ccov5_end_blk4:
   607                           	callstack 20
   608  000AE8                     l17:
   609  000AE8                     __ccov7_start_blk6:
   610                           	callstack 20
   611  000AE8  8805               	bsf	(__ccovbit6_1/(0+8))^0,__ccovbit6_1& (0+7),c	;volatile
   612  000AEA  EF74  F005         	goto	l17
   613  000AEE                     __ccov7_end_blk6:
   614                           	callstack 20
   615  000AEE  EF07  F000         	goto	start
   616  000AF2                     __end_of_main:
   617                           	callstack 0
   618                           
   619 ;; *************** function _start_os *****************
   620 ;; Defined at:
   621 ;;		line 100 in file "kernel.c"
   622 ;; Parameters:    Size  Location     Type
   623 ;;		None
   624 ;; Auto vars:     Size  Location     Type
   625 ;;		None
   626 ;; Return value:  Size  Location     Type
   627 ;;                  1    wreg      void 
   628 ;; Registers used:
   629 ;;		wreg, status,2
   630 ;; Tracked objects:
   631 ;;		On entry : 0/0
   632 ;;		On exit  : 0/0
   633 ;;		Unchanged: 0/0
   634 ;; Data sizes:     COMRAM   BANK0   BANK1   BANK2   BANK3   BANK4   BANK5
   635 ;;      Params:         0       0       0       0       0       0       0
   636 ;;      Locals:         0       0       0       0       0       0       0
   637 ;;      Temps:          0       0       0       0       0       0       0
   638 ;;      Totals:         0       0       0       0       0       0       0
   639 ;;Total ram usage:        0 bytes
   640 ;; Hardware stack levels used:    1
   641 ;; Hardware stack levels required when called:    9
   642 ;; This function calls:
   643 ;;		Nothing
   644 ;; This function is called by:
   645 ;;		_main
   646 ;; This function uses a non-reentrant model
   647 ;;
   648                           
   649                           	psect	text1
   650  000D0E                     __ptext1:
   651                           	callstack 0
   652  000D0E                     _start_os:
   653                           	callstack 21
   654                           
   655                           ;incstack = 0
   656  000D0E                     
   657                           ;kernel.c: 103:    INTCONbits.GIE = 1;
   658  000D0E  8EF2               	bsf	242,7,c	;volatile
   659                           
   660                           ;kernel.c: 105:    T0CONbits.TMR0ON = 1;
   661  000D10  8ED5               	bsf	213,7,c	;volatile
   662  000D12                     __ccov81_end_blk0:
   663                           	callstack 21
   664  000D12                     __ccov82_start_blk1:
   665                           	callstack 21
   666  000D12                     
   667                           ;kernel.c: 106:    TMR0 = 64;
   668  000D12  0E00               	movlw	0
   669  000D14  6ED7               	movwf	215,c	;volatile
   670  000D16  0E40               	movlw	64
   671  000D18  6ED6               	movwf	214,c	;volatile
   672  000D1A                     __ccov82_end_blk1:
   673                           	callstack 21
   674  000D1A                     __ccov83_start_blk2:
   675                           	callstack 21
   676  000D1A  8003               	bsf	(__ccovbit2_21/(0+8))^0,__ccovbit2_21& (0+7),c	;volatile
   677  000D1C  0012               	return		;funcret
   678  000D1E                     __end_of_start_os:
   679                           	callstack 0
   680  0000                     
   681 ;; *************** function _create_task *****************
   682 ;; Defined at:
   683 ;;		line 71 in file "kernel.c"
   684 ;; Parameters:    Size  Location     Type
   685 ;;  id              2    6[BANK1 ] unsigned int 
   686 ;;  prior           2    8[BANK1 ] unsigned int 
   687 ;;  task            2   10[BANK1 ] PTR FTN()void 
   688 ;;		 -> task_3(1), task_2(1), task_1(1), 
   689 ;; Auto vars:     Size  Location     Type
   690 ;;  new_task      116   12[BANK1 ] struct TCB
   691 ;; Return value:  Size  Location     Type
   692 ;;                  1    wreg      void 
   693 ;; Registers used:
   694 ;;		wreg, fsr1l, fsr1h, fsr2l, fsr2h, status,2, status,0, prodl, prodh, cstack
   695 ;; Tracked objects:
   696 ;;		On entry : 0/0
   697 ;;		On exit  : 0/0
   698 ;;		Unchanged: 0/0
   699 ;; Data sizes:     COMRAM   BANK0   BANK1   BANK2   BANK3   BANK4   BANK5
   700 ;;      Params:         0       0       6       0       0       0       0
   701 ;;      Locals:         0       0     116       0       0       0       0
   702 ;;      Temps:          0       0       0       0       0       0       0
   703 ;;      Totals:         0       0     122       0       0       0       0
   704 ;;Total ram usage:      122 bytes
   705 ;; Hardware stack levels used:    1
   706 ;; Hardware stack levels required when called:   10
   707 ;; This function calls:
   708 ;;		___wmul
   709 ;; This function is called by:
   710 ;;		_main
   711 ;; This function uses a non-reentrant model
   712 ;;
   713                           
   714                           	psect	text2
   715  000AF2                     __ptext2:
   716                           	callstack 0
   717  000AF2                     _create_task:
   718                           	callstack 20
   719                           
   720                           ;incstack = 0
   721  000AF2                     
   722                           ;kernel.c: 71: void create_task(u_int id, u_int prior, f_task task);kernel.c: 72: {;kern
      +                          el.c: 73:    TCB_t new_task;;kernel.c: 76:    new_task.task_ID = id;
   723  000AF2  C106  F10C         	movff	create_task@id,create_task@new_task
   724  000AF6  C107  F10D         	movff	create_task@id+1,create_task@new_task+1
   725                           
   726                           ;kernel.c: 77:    new_task.task_PRIOR = prior;
   727  000AFA  C108  F10E         	movff	create_task@prior,create_task@new_task+2
   728  000AFE  C109  F10F         	movff	create_task@prior+1,create_task@new_task+3
   729  000B02                     __ccov57_end_blk0:
   730                           	callstack 20
   731  000B02                     __ccov58_start_blk1:
   732                           	callstack 20
   733  000B02                     
   734                           ;kernel.c: 78:    new_task.task_PTR = task;
   735  000B02  C10A  F110         	movff	create_task@task,create_task@new_task+4
   736  000B06  C10B  F111         	movff	create_task@task+1,create_task@new_task+5
   737  000B0A                     __ccov58_end_blk1:
   738                           	callstack 20
   739  000B0A                     __ccov59_start_blk2:
   740                           	callstack 20
   741  000B0A                     
   742                           ;kernel.c: 79:    new_task.task_STATE = READY;
   743  000B0A  0E00               	movlw	0
   744  000B0C  0101               	movlb	1	; () banked
   745  000B0E  6F7D               	movwf	(create_task@new_task+113)& (0+255),b
   746  000B10                     __ccov59_end_blk2:
   747                           	callstack 20
   748  000B10                     __ccov60_start_blk3:
   749                           	callstack 20
   750  000B10                     
   751                           ; BSR set to: 1
   752                           ;kernel.c: 80:    new_task.task_stack_real_size = 0;
   753  000B10  0E00               	movlw	0
   754  000B12  6F7C               	movwf	(create_task@new_task+112)& (0+255),b
   755  000B14  0E00               	movlw	0
   756  000B16  6F7B               	movwf	(create_task@new_task+111)& (0+255),b
   757  000B18                     __ccov60_end_blk3:
   758                           	callstack 20
   759  000B18                     __ccov61_start_blk4:
   760                           	callstack 20
   761  000B18                     
   762                           ; BSR set to: 1
   763                           ;kernel.c: 81:    new_task.delay_waiting = 0;
   764  000B18  0E00               	movlw	0
   765  000B1A  6F7F               	movwf	(create_task@new_task+115)& (0+255),b
   766  000B1C  0E00               	movlw	0
   767  000B1E  6F7E               	movwf	(create_task@new_task+114)& (0+255),b
   768  000B20                     __ccov61_end_blk4:
   769                           	callstack 20
   770  000B20                     __ccov62_start_blk5:
   771                           	callstack 20
   772  000B20                     
   773                           ; BSR set to: 1
   774                           ;kernel.c: 83:    ready_queue.tasks_list[ready_queue.tasks_installed] = new_task;
   775  000B20  EE21  F00C         	lfsr	2,create_task@new_task
   776  000B24  C350  F100         	movff	_ready_queue+464,___wmul@multiplier
   777  000B28  C351  F101         	movff	_ready_queue+465,___wmul@multiplier+1
   778  000B2C  0E00               	movlw	0
   779  000B2E  6F03               	movwf	(___wmul@multiplicand+1)& (0+255),b
   780  000B30  0E74               	movlw	116
   781  000B32  6F02               	movwf	___wmul@multiplicand& (0+255),b
   782  000B34  EC34  F006         	call	___wmul	;wreg free
   783  000B38  0E80               	movlw	low _ready_queue
   784  000B3A  0101               	movlb	1	; () banked
   785  000B3C  2500               	addwf	?___wmul& (0+255),w,b
   786  000B3E  6EE1               	movwf	fsr1l,c
   787  000B40  0E01               	movlw	high _ready_queue
   788  000B42  2101               	addwfc	(?___wmul+1)& (0+255),w,b
   789  000B44  6EE2               	movwf	fsr1h,c
   790  000B46  0E73               	movlw	115
   791  000B48                     u1031:
   792  000B48  CFDB FFE3          	movff	plusw2,plusw1
   793  000B4C  06E8               	decf	wreg,f,c
   794  000B4E  E2FC               	bc	u1031
   795  000B50                     __ccov62_end_blk5:
   796                           	callstack 20
   797  000B50                     __ccov63_start_blk6:
   798                           	callstack 20
   799  000B50                     
   800                           ; BSR set to: 1
   801                           ;kernel.c: 84:    ready_queue.tasks_installed += 1;
   802  000B50  EE23  F050         	lfsr	2,_ready_queue+464
   803  000B54  2ADE               	incf	postinc2,f,c
   804  000B56  0E00               	movlw	0
   805  000B58  22DD               	addwfc	postdec2,f,c
   806  000B5A                     __ccov63_end_blk6:
   807                           	callstack 20
   808  000B5A                     __ccov64_start_blk7:
   809                           	callstack 20
   810  000B5A                     
   811                           ; BSR set to: 1
   812  000B5A  8203               	bsf	(__ccovbit7_20/(0+8))^0,__ccovbit7_20& (0+7),c	;volatile
   813  000B5C  0012               	return		;funcret
   814  000B5E                     __end_of_create_task:
   815                           	callstack 0
   816  0000                     
   817 ;; *************** function ___wmul *****************
   818 ;; Defined at:
   819 ;;		line 15 in file "C:\Program Files\Microchip\xc8\v2.20\pic\sources\c99\common\Umul16.c"
   820 ;; Parameters:    Size  Location     Type
   821 ;;  multiplier      2    0[BANK1 ] unsigned int 
   822 ;;  multiplicand    2    2[BANK1 ] unsigned int 
   823 ;; Auto vars:     Size  Location     Type
   824 ;;  product         2    4[BANK1 ] unsigned int 
   825 ;; Return value:  Size  Location     Type
   826 ;;                  2    0[BANK1 ] unsigned int 
   827 ;; Registers used:
   828 ;;		wreg, status,2, status,0, prodl, prodh
   829 ;; Tracked objects:
   830 ;;		On entry : 0/0
   831 ;;		On exit  : 0/0
   832 ;;		Unchanged: 0/0
   833 ;; Data sizes:     COMRAM   BANK0   BANK1   BANK2   BANK3   BANK4   BANK5
   834 ;;      Params:         0       0       4       0       0       0       0
   835 ;;      Locals:         0       0       2       0       0       0       0
   836 ;;      Temps:          0       0       0       0       0       0       0
   837 ;;      Totals:         0       0       6       0       0       0       0
   838 ;;Total ram usage:        6 bytes
   839 ;; Hardware stack levels used:    1
   840 ;; Hardware stack levels required when called:    9
   841 ;; This function calls:
   842 ;;		Nothing
   843 ;; This function is called by:
   844 ;;		_create_task
   845 ;;		_exit_task
   846 ;;		_RR_scheduler
   847 ;; This function uses a non-reentrant model
   848 ;;
   849                           
   850                           	psect	text3
   851  000C68                     __ptext3:
   852                           	callstack 0
   853  000C68                     ___wmul:
   854                           	callstack 20
   855  000C68  0101               	movlb	1	; () banked
   856  000C6A  5100               	movf	___wmul@multiplier& (0+255),w,b
   857  000C6C  0302               	mulwf	___wmul@multiplicand& (0+255),b
   858  000C6E  CFF3 F104          	movff	prodl,___wmul@product
   859  000C72  CFF4 F105          	movff	prodh,___wmul@product+1
   860  000C76  5100               	movf	___wmul@multiplier& (0+255),w,b
   861  000C78  0303               	mulwf	(___wmul@multiplicand+1)& (0+255),b
   862  000C7A  50F3               	movf	243,w,c
   863  000C7C  2705               	addwf	(___wmul@product+1)& (0+255),f,b
   864  000C7E  5101               	movf	(___wmul@multiplier+1)& (0+255),w,b
   865  000C80  0302               	mulwf	___wmul@multiplicand& (0+255),b
   866  000C82  50F3               	movf	243,w,c
   867  000C84  2705               	addwf	(___wmul@product+1)& (0+255),f,b
   868  000C86                     
   869                           ; BSR set to: 1
   870  000C86  C104  F100         	movff	___wmul@product,?___wmul
   871  000C8A  C105  F101         	movff	___wmul@product+1,?___wmul+1
   872  000C8E                     
   873                           ; BSR set to: 1
   874  000C8E  0012               	return		;funcret
   875  000C90                     __end_of___wmul:
   876                           	callstack 0
   877                           
   878 ;; *************** function _config_os *****************
   879 ;; Defined at:
   880 ;;		line 45 in file "kernel.c"
   881 ;; Parameters:    Size  Location     Type
   882 ;;		None
   883 ;; Auto vars:     Size  Location     Type
   884 ;;		None
   885 ;; Return value:  Size  Location     Type
   886 ;;                  1    wreg      void 
   887 ;; Registers used:
   888 ;;		wreg, status,2, cstack
   889 ;; Tracked objects:
   890 ;;		On entry : 0/0
   891 ;;		On exit  : 0/0
   892 ;;		Unchanged: 0/0
   893 ;; Data sizes:     COMRAM   BANK0   BANK1   BANK2   BANK3   BANK4   BANK5
   894 ;;      Params:         0       0       0       0       0       0       0
   895 ;;      Locals:         0       0       0       0       0       0       0
   896 ;;      Temps:          0       0       0       0       0       0       0
   897 ;;      Totals:         0       0       0       0       0       0       0
   898 ;;Total ram usage:        0 bytes
   899 ;; Hardware stack levels used:    1
   900 ;; Hardware stack levels required when called:   10
   901 ;; This function calls:
   902 ;;		_config_tasks
   903 ;; This function is called by:
   904 ;;		_main
   905 ;; This function uses a non-reentrant model
   906 ;;
   907                           
   908                           	psect	text4
   909  000B9E                     __ptext4:
   910                           	callstack 0
   911  000B9E                     _config_os:
   912                           	callstack 20
   913                           
   914                           ; BSR set to: 1
   915                           ;incstack = 0
   916  000B9E                     
   917                           ;kernel.c: 48:    ready_queue.task_running = 0;
   918  000B9E  0E00               	movlw	0
   919  000BA0  CFE8 F352          	movff	wreg,_ready_queue+466
   920  000BA4  0E00               	movlw	0
   921  000BA6  CFE8 F353          	movff	wreg,_ready_queue+467
   922                           
   923                           ;kernel.c: 49:    ready_queue.tasks_installed = 0;
   924  000BAA  0E00               	movlw	0
   925  000BAC  CFE8 F350          	movff	wreg,_ready_queue+464
   926  000BB0  0E00               	movlw	0
   927  000BB2  CFE8 F351          	movff	wreg,_ready_queue+465
   928                           
   929                           ;kernel.c: 53:    TRISBbits.RB0 = 1;
   930  000BB6  8093               	bsf	147,0,c	;volatile
   931                           
   932                           ;kernel.c: 54:    INTCONbits.INT0IE = 1;
   933  000BB8  88F2               	bsf	242,4,c	;volatile
   934                           
   935                           ;kernel.c: 55:    INTCONbits.INT0IF = 0;
   936  000BBA  92F2               	bcf	242,1,c	;volatile
   937                           
   938                           ;kernel.c: 57:    INTCONbits.PEIE = 1;
   939  000BBC  8CF2               	bsf	242,6,c	;volatile
   940                           
   941                           ;kernel.c: 58:    INTCONbits.TMR0IE = 1;
   942  000BBE  8AF2               	bsf	242,5,c	;volatile
   943                           
   944                           ;kernel.c: 59:    INTCONbits.TMR0IF = 0;
   945  000BC0  94F2               	bcf	242,2,c	;volatile
   946                           
   947                           ;kernel.c: 60:    T0CONbits.TMR0ON = 0;
   948  000BC2  9ED5               	bcf	213,7,c	;volatile
   949                           
   950                           ;kernel.c: 61:    T0CONbits.T0CS = 0;
   951  000BC4  9AD5               	bcf	213,5,c	;volatile
   952                           
   953                           ;kernel.c: 62:    T0CONbits.PSA = 0;
   954  000BC6  96D5               	bcf	213,3,c	;volatile
   955  000BC8                     __ccov53_end_blk0:
   956                           	callstack 20
   957  000BC8                     __ccov54_start_blk1:
   958                           	callstack 20
   959  000BC8                     
   960                           ;kernel.c: 63:    T0CONbits.T0PS = 0b101;
   961  000BC8  50D5               	movf	213,w,c	;volatile
   962  000BCA  0BF8               	andlw	-8
   963  000BCC  0905               	iorlw	5
   964  000BCE  6ED5               	movwf	213,c	;volatile
   965  000BD0                     __ccov54_end_blk1:
   966                           	callstack 20
   967  000BD0                     __ccov55_start_blk2:
   968                           	callstack 20
   969  000BD0                     
   970                           ;kernel.c: 66:    config_tasks();
   971  000BD0  EC8F  F006         	call	_config_tasks	;wreg free
   972  000BD4                     __ccov55_end_blk2:
   973                           	callstack 20
   974  000BD4                     __ccov56_start_blk3:
   975                           	callstack 20
   976  000BD4  8403               	bsf	(__ccovbit3_19/(0+8))^0,__ccovbit3_19& (0+7),c	;volatile
   977  000BD6  0012               	return		;funcret
   978  000BD8                     __end_of_config_os:
   979                           	callstack 0
   980  0000                     
   981 ;; *************** function _config_tasks *****************
   982 ;; Defined at:
   983 ;;		line 4 in file "user_tasks.c"
   984 ;; Parameters:    Size  Location     Type
   985 ;;		None
   986 ;; Auto vars:     Size  Location     Type
   987 ;;		None
   988 ;; Return value:  Size  Location     Type
   989 ;;                  1    wreg      void 
   990 ;; Registers used:
   991 ;;		None
   992 ;; Tracked objects:
   993 ;;		On entry : 0/0
   994 ;;		On exit  : 0/0
   995 ;;		Unchanged: 0/0
   996 ;; Data sizes:     COMRAM   BANK0   BANK1   BANK2   BANK3   BANK4   BANK5
   997 ;;      Params:         0       0       0       0       0       0       0
   998 ;;      Locals:         0       0       0       0       0       0       0
   999 ;;      Temps:          0       0       0       0       0       0       0
  1000 ;;      Totals:         0       0       0       0       0       0       0
  1001 ;;Total ram usage:        0 bytes
  1002 ;; Hardware stack levels used:    1
  1003 ;; Hardware stack levels required when called:    9
  1004 ;; This function calls:
  1005 ;;		Nothing
  1006 ;; This function is called by:
  1007 ;;		_config_os
  1008 ;; This function uses a non-reentrant model
  1009 ;;
  1010                           
  1011                           	psect	text5
  1012  000D1E                     __ptext5:
  1013                           	callstack 0
  1014  000D1E                     _config_tasks:
  1015                           	callstack 20
  1016                           
  1017                           ;incstack = 0
  1018  000D1E                     
  1019                           ;user_tasks.c: 6:    TRISDbits.RD0 = 0;
  1020  000D1E  9095               	bcf	149,0,c	;volatile
  1021                           
  1022                           ;user_tasks.c: 7:    TRISDbits.RD1 = 0;
  1023  000D20  9295               	bcf	149,1,c	;volatile
  1024                           
  1025                           ;user_tasks.c: 8:    TRISDbits.RD2 = 0;
  1026  000D22  9495               	bcf	149,2,c	;# 
  1027  000D24                     __ccov8_end_blk0:
  1028                           	callstack 20
  1029  000D24                     __ccov9_start_blk1:
  1030                           	callstack 20
  1031  000D24  8605               	bsf	(__ccovbit1_2/(0+8))^0,__ccovbit1_2& (0+7),c	;volatile
  1032  000D26  0012               	return		;funcret
  1033  000D28                     __end_of_config_tasks:
  1034                           	callstack 0
  1035  0000                     
  1036 ;; *************** function _task_1 *****************
  1037 ;; Defined at:
  1038 ;;		line 14 in file "user_tasks.c"
  1039 ;; Parameters:    Size  Location     Type
  1040 ;;		None
  1041 ;; Auto vars:     Size  Location     Type
  1042 ;;		None
  1043 ;; Return value:  Size  Location     Type
  1044 ;;                  1    wreg      void 
  1045 ;; Registers used:
  1046 ;;		wreg, status,2, status,0
  1047 ;; Tracked objects:
  1048 ;;		On entry : 0/0
  1049 ;;		On exit  : 0/0
  1050 ;;		Unchanged: 0/0
  1051 ;; Data sizes:     COMRAM   BANK0   BANK1   BANK2   BANK3   BANK4   BANK5
  1052 ;;      Params:         0       0       0       0       0       0       0
  1053 ;;      Locals:         0       0       0       0       0       0       0
  1054 ;;      Temps:          0       1       0       0       0       0       0
  1055 ;;      Totals:         0       1       0       0       0       0       0
  1056 ;;Total ram usage:        1 bytes
  1057 ;; Hardware stack levels used:    1
  1058 ;; Hardware stack levels required when called:    4
  1059 ;; This function calls:
  1060 ;;		Nothing
  1061 ;; This function is called by:
  1062 ;;		_main
  1063 ;; This function uses a non-reentrant model
  1064 ;;
  1065                           
  1066                           	psect	text6
  1067  000C3E                     __ptext6:
  1068                           	callstack 0
  1069  000C3E                     _task_1:
  1070                           	callstack 24
  1071  000C3E                     l34:
  1072  000C3E  8405               	bsf	(__ccovbit1_3/(0+8))^0,__ccovbit1_3& (0+7),c	;volatile
  1073                           
  1074                           ;user_tasks.c: 17:       LATDbits.LATD0 = ~PORTDbits.RD0;
  1075  000C40  B083               	btfsc	131,0,c	;volatile
  1076  000C42  EF25  F006         	goto	u98_21
  1077  000C46  EF28  F006         	goto	u98_20
  1078  000C4A                     u98_21:
  1079  000C4A  0E01               	movlw	1
  1080  000C4C  EF29  F006         	goto	u98_26
  1081  000C50                     u98_20:
  1082  000C50  0E00               	movlw	0
  1083  000C52                     u98_26:
  1084  000C52  0AFF               	xorlw	255
  1085  000C54  0100               	movlb	0	; () banked
  1086  000C56  6FA4               	movwf	??_task_1& (0+255),b
  1087  000C58  508C               	movf	140,w,c	;volatile
  1088  000C5A  19A4               	xorwf	??_task_1& (0+255),w,b
  1089  000C5C  0BFE               	andlw	-2
  1090  000C5E  19A4               	xorwf	??_task_1& (0+255),w,b
  1091  000C60  6E8C               	movwf	140,c	;volatile
  1092  000C62  EF1F  F006         	goto	l34
  1093  000C66                     __ccov11_end_blk1:
  1094                           	callstack 24
  1095  000C66  0012               	return		;funcret
  1096  000C68                     __end_of_task_1:
  1097                           	callstack 0
  1098                           
  1099 ;; *************** function _task_2 *****************
  1100 ;; Defined at:
  1101 ;;		line 21 in file "user_tasks.c"
  1102 ;; Parameters:    Size  Location     Type
  1103 ;;		None
  1104 ;; Auto vars:     Size  Location     Type
  1105 ;;		None
  1106 ;; Return value:  Size  Location     Type
  1107 ;;                  1    wreg      void 
  1108 ;; Registers used:
  1109 ;;		wreg, status,2, status,0
  1110 ;; Tracked objects:
  1111 ;;		On entry : 0/0
  1112 ;;		On exit  : 0/0
  1113 ;;		Unchanged: 0/0
  1114 ;; Data sizes:     COMRAM   BANK0   BANK1   BANK2   BANK3   BANK4   BANK5
  1115 ;;      Params:         0       0       0       0       0       0       0
  1116 ;;      Locals:         0       0       0       0       0       0       0
  1117 ;;      Temps:          0       1       0       0       0       0       0
  1118 ;;      Totals:         0       1       0       0       0       0       0
  1119 ;;Total ram usage:        1 bytes
  1120 ;; Hardware stack levels used:    1
  1121 ;; Hardware stack levels required when called:    4
  1122 ;; This function calls:
  1123 ;;		Nothing
  1124 ;; This function is called by:
  1125 ;;		_main
  1126 ;; This function uses a non-reentrant model
  1127 ;;
  1128                           
  1129                           	psect	text7
  1130  000C12                     __ptext7:
  1131                           	callstack 0
  1132  000C12                     _task_2:
  1133                           	callstack 24
  1134  000C12                     l40:
  1135  000C12  8205               	bsf	(__ccovbit1_4/(0+8))^0,__ccovbit1_4& (0+7),c	;volatile
  1136                           
  1137                           ;user_tasks.c: 24:       LATDbits.LATD1 = ~PORTDbits.RD1;
  1138  000C14  B283               	btfsc	131,1,c	;volatile
  1139  000C16  EF0F  F006         	goto	u99_21
  1140  000C1A  EF12  F006         	goto	u99_20
  1141  000C1E                     u99_21:
  1142  000C1E  0E01               	movlw	1
  1143  000C20  EF13  F006         	goto	u99_26
  1144  000C24                     u99_20:
  1145  000C24  0E00               	movlw	0
  1146  000C26                     u99_26:
  1147  000C26  0AFF               	xorlw	255
  1148  000C28  0100               	movlb	0	; () banked
  1149  000C2A  6FA5               	movwf	??_task_2& (0+255),b
  1150  000C2C  47A5               	rlncf	??_task_2& (0+255),f,b
  1151  000C2E  508C               	movf	140,w,c	;volatile
  1152  000C30  19A5               	xorwf	??_task_2& (0+255),w,b
  1153  000C32  0BFD               	andlw	-3
  1154  000C34  19A5               	xorwf	??_task_2& (0+255),w,b
  1155  000C36  6E8C               	movwf	140,c	;volatile
  1156  000C38  EF09  F006         	goto	l40
  1157  000C3C                     __ccov13_end_blk1:
  1158                           	callstack 24
  1159  000C3C  0012               	return		;funcret
  1160  000C3E                     __end_of_task_2:
  1161                           	callstack 0
  1162                           
  1163 ;; *************** function _task_3 *****************
  1164 ;; Defined at:
  1165 ;;		line 29 in file "user_tasks.c"
  1166 ;; Parameters:    Size  Location     Type
  1167 ;;		None
  1168 ;; Auto vars:     Size  Location     Type
  1169 ;;		None
  1170 ;; Return value:  Size  Location     Type
  1171 ;;                  1    wreg      void 
  1172 ;; Registers used:
  1173 ;;		wreg, fsr2l, fsr2h, status,2, status,0, prodl, prodh, cstack
  1174 ;; Tracked objects:
  1175 ;;		On entry : 0/0
  1176 ;;		On exit  : 0/0
  1177 ;;		Unchanged: 0/0
  1178 ;; Data sizes:     COMRAM   BANK0   BANK1   BANK2   BANK3   BANK4   BANK5
  1179 ;;      Params:         0       0       0       0       0       0       0
  1180 ;;      Locals:         0       0       0       0       0       0       0
  1181 ;;      Temps:          0       1       0       0       0       0       0
  1182 ;;      Totals:         0       1       0       0       0       0       0
  1183 ;;Total ram usage:        1 bytes
  1184 ;; Hardware stack levels used:    1
  1185 ;; Hardware stack levels required when called:    8
  1186 ;; This function calls:
  1187 ;;		_delay_task
  1188 ;; This function is called by:
  1189 ;;		_main
  1190 ;; This function uses a non-reentrant model
  1191 ;;
  1192                           
  1193                           	psect	text8
  1194  000BD8                     __ptext8:
  1195                           	callstack 0
  1196  000BD8                     _task_3:
  1197                           	callstack 20
  1198  000BD8                     l46:
  1199  000BD8                     
  1200                           ;user_tasks.c: 32:       LATDbits.LATD2 = ~PORTDbits.RD2;
  1201  000BD8  B483               	btfsc	131,2,c	;volatile
  1202  000BDA  EFF1  F005         	goto	u100_21
  1203  000BDE  EFF4  F005         	goto	u100_20
  1204  000BE2                     u100_21:
  1205  000BE2  0E01               	movlw	1
  1206  000BE4  EFF5  F005         	goto	u100_26
  1207  000BE8                     u100_20:
  1208  000BE8  0E00               	movlw	0
  1209  000BEA                     u100_26:
  1210  000BEA  0AFF               	xorlw	255
  1211  000BEC  0100               	movlb	0	; () banked
  1212  000BEE  6FC7               	movwf	??_task_3& (0+255),b
  1213  000BF0  47C7               	rlncf	??_task_3& (0+255),f,b
  1214  000BF2  47C7               	rlncf	??_task_3& (0+255),f,b
  1215  000BF4  508C               	movf	140,w,c	;volatile
  1216  000BF6  19C7               	xorwf	??_task_3& (0+255),w,b
  1217  000BF8  0BFB               	andlw	-5
  1218  000BFA  19C7               	xorwf	??_task_3& (0+255),w,b
  1219  000BFC  6E8C               	movwf	140,c	;volatile
  1220  000BFE                     __ccov15_end_blk1:
  1221                           	callstack 20
  1222  000BFE                     __ccov16_start_blk2:
  1223                           	callstack 20
  1224  000BFE                     
  1225                           ; BSR set to: 0
  1226  000BFE  8005               	bsf	(__ccovbit2_5/(0+8))^0,__ccovbit2_5& (0+7),c	;volatile
  1227                           
  1228                           ;user_tasks.c: 33:       delay_task(30);
  1229  000C00  0E00               	movlw	0
  1230  000C02  6FBB               	movwf	(delay_task@time+1)& (0+255),b
  1231  000C04  0E1E               	movlw	30
  1232  000C06  6FBA               	movwf	delay_task@time& (0+255),b
  1233  000C08  EC62  F002         	call	_delay_task	;wreg free
  1234  000C0C  EFEC  F005         	goto	l46
  1235  000C10                     __ccov16_end_blk2:
  1236                           	callstack 20
  1237  000C10  0012               	return		;funcret
  1238  000C12                     __end_of_task_3:
  1239                           	callstack 0
  1240                           
  1241 ;; *************** function _delay_task *****************
  1242 ;; Defined at:
  1243 ;;		line 116 in file "kernel.c"
  1244 ;; Parameters:    Size  Location     Type
  1245 ;;  time            2   58[BANK0 ] unsigned int 
  1246 ;; Auto vars:     Size  Location     Type
  1247 ;;  task_pos        2   69[BANK0 ] unsigned int 
  1248 ;;  p_context       2   65[BANK0 ] unsigned int 
  1249 ;;  task_pos        2   67[BANK0 ] unsigned int 
  1250 ;;  p_context       2   63[BANK0 ] unsigned int 
  1251 ;; Return value:  Size  Location     Type
  1252 ;;                  1    wreg      void 
  1253 ;; Registers used:
  1254 ;;		wreg, fsr2l, fsr2h, status,2, status,0, prodl, prodh, cstack
  1255 ;; Tracked objects:
  1256 ;;		On entry : 0/0
  1257 ;;		On exit  : 0/0
  1258 ;;		Unchanged: 0/0
  1259 ;; Data sizes:     COMRAM   BANK0   BANK1   BANK2   BANK3   BANK4   BANK5
  1260 ;;      Params:         0       2       0       0       0       0       0
  1261 ;;      Locals:         0       8       0       0       0       0       0
  1262 ;;      Temps:          0       3       0       0       0       0       0
  1263 ;;      Totals:         0      13       0       0       0       0       0
  1264 ;;Total ram usage:       13 bytes
  1265 ;; Hardware stack levels used:    1
  1266 ;; Hardware stack levels required when called:    7
  1267 ;; This function calls:
  1268 ;;		_scheduler
  1269 ;;		i1___wmul
  1270 ;; This function is called by:
  1271 ;;		_task_3
  1272 ;; This function uses a non-reentrant model
  1273 ;;
  1274                           
  1275                           	psect	text9
  1276  0004C4                     __ptext9:
  1277                           	callstack 0
  1278  0004C4                     _delay_task:
  1279                           	callstack 20
  1280                           
  1281                           ;incstack = 0
  1282  0004C4                     
  1283                           ;kernel.c: 116: void delay_task(u_int time);kernel.c: 117: {;kernel.c: 118:    INTCONbit
      +                          s.GIE = 0;
  1284  0004C4  9EF2               	bcf	242,7,c	;volatile
  1285  0004C6                     __ccov85_end_blk0:
  1286                           	callstack 20
  1287  0004C6                     __ccov86_start_blk1:
  1288                           	callstack 20
  1289  0004C6                     
  1290                           ;kernel.c: 119:    ready_queue.tasks_list[ready_queue.task_running].delay_waiting = time
      +                          ;
  1291  0004C6  C352  F0A6         	movff	_ready_queue+466,i1___wmul@multiplier
  1292  0004CA  C353  F0A7         	movff	_ready_queue+467,i1___wmul@multiplier+1
  1293  0004CE  0E00               	movlw	0
  1294  0004D0  0100               	movlb	0	; () banked
  1295  0004D2  6FA9               	movwf	(i1___wmul@multiplicand+1)& (0+255),b
  1296  0004D4  0E74               	movlw	116
  1297  0004D6  6FA8               	movwf	i1___wmul@multiplicand& (0+255),b
  1298  0004D8  EC48  F006         	call	i1___wmul	;wreg free
  1299  0004DC  0EF2               	movlw	low (_ready_queue+114)
  1300  0004DE  0100               	movlb	0	; () banked
  1301  0004E0  25A6               	addwf	?i1___wmul& (0+255),w,b
  1302  0004E2  6ED9               	movwf	fsr2l,c
  1303  0004E4  0E01               	movlw	high (_ready_queue+114)
  1304  0004E6  21A7               	addwfc	(?i1___wmul+1)& (0+255),w,b
  1305  0004E8  6EDA               	movwf	fsr2h,c
  1306  0004EA  C0BA  FFDE         	movff	delay_task@time,postinc2
  1307  0004EE  C0BB  FFDD         	movff	delay_task@time+1,postdec2
  1308  0004F2                     __ccov86_end_blk1:
  1309                           	callstack 20
  1310  0004F2                     __ccov87_start_blk2:
  1311                           	callstack 20
  1312  0004F2                     
  1313                           ; BSR set to: 0
  1314                           ;kernel.c: 120:    { u_int p_context = 0, task_pos = ready_queue.task_running;do { INTCO
      +                          Nbits.GIE = 0; if (ready_queue.tasks_list[task_pos].task_STATE == RUNNING) { ready_queue
      +                          .tasks_list[task_pos].task_BSR_reg = BSR; ready_queue.tasks_list[task_pos].task_WORK_reg
      +                           = WREG; ready_queue.tasks_list[task_pos].task_STATUS_reg = STATUS; do { ready_queue.tas
      +                          ks_list[task_pos].task_CONTEXT[p_context] = TOS; __asm("POP"); p_context += 1; } while (
      +                          STKPTR); ready_queue.tasks_list[task_pos].task_stack_real_size = p_context; ready_queue.
      +                          tasks_list[task_pos].task_STATE = WAITING; } INTCONbits.GIE = 1; } while(0); };
  1315  0004F2  0E00               	movlw	0
  1316  0004F4  6FC0               	movwf	(delay_task@p_context+1)& (0+255),b
  1317  0004F6  0E00               	movlw	0
  1318  0004F8  6FBF               	movwf	delay_task@p_context& (0+255),b
  1319  0004FA                     __ccov87_end_blk2:
  1320                           	callstack 20
  1321  0004FA                     __ccov88_start_blk3:
  1322                           	callstack 20
  1323  0004FA                     
  1324                           ; BSR set to: 0
  1325  0004FA  C352  F0C3         	movff	_ready_queue+466,delay_task@task_pos
  1326  0004FE  C353  F0C4         	movff	_ready_queue+467,delay_task@task_pos+1
  1327  000502                     __ccov88_end_blk3:
  1328                           	callstack 20
  1329  000502                     __ccov89_start_blk5:
  1330                           	callstack 20
  1331  000502                     
  1332                           ; BSR set to: 0
  1333  000502  9EF2               	bcf	242,7,c	;volatile
  1334  000504                     __ccov89_end_blk5:
  1335                           	callstack 20
  1336  000504                     __ccov90_start_blk6:
  1337                           	callstack 20
  1338  000504                     
  1339                           ; BSR set to: 0
  1340  000504  C0C3  F0A6         	movff	delay_task@task_pos,i1___wmul@multiplier
  1341  000508  C0C4  F0A7         	movff	delay_task@task_pos+1,i1___wmul@multiplier+1
  1342  00050C  0E00               	movlw	0
  1343  00050E  6FA9               	movwf	(i1___wmul@multiplicand+1)& (0+255),b
  1344  000510  0E74               	movlw	116
  1345  000512  6FA8               	movwf	i1___wmul@multiplicand& (0+255),b
  1346  000514  EC48  F006         	call	i1___wmul	;wreg free
  1347  000518  0EF1               	movlw	low (_ready_queue+113)
  1348  00051A  0100               	movlb	0	; () banked
  1349  00051C  25A6               	addwf	?i1___wmul& (0+255),w,b
  1350  00051E  6ED9               	movwf	fsr2l,c
  1351  000520  0E01               	movlw	high (_ready_queue+113)
  1352  000522  21A7               	addwfc	(?i1___wmul+1)& (0+255),w,b
  1353  000524  6EDA               	movwf	fsr2h,c
  1354  000526  04DE               	decf	postinc2,w,c
  1355  000528  A4D8               	btfss	status,2,c
  1356  00052A  EF99  F002         	goto	i1u94_21
  1357  00052E  EF9B  F002         	goto	i1u94_20
  1358  000532                     i1u94_21:
  1359  000532  EF4F  F003         	goto	i1l1718
  1360  000536                     i1u94_20:
  1361  000536                     __ccov90_end_blk6:
  1362                           	callstack 20
  1363  000536                     __ccov91_start_blk7:
  1364                           	callstack 20
  1365  000536                     
  1366                           ; BSR set to: 0
  1367  000536  50E0               	movf	224,w,c	;volatile
  1368  000538  6FBC               	movwf	??_delay_task& (0+255),b
  1369  00053A  6BBD               	clrf	(??_delay_task+1)& (0+255),b
  1370  00053C  6BBE               	clrf	(??_delay_task+2)& (0+255),b
  1371  00053E  C0C3  F0A6         	movff	delay_task@task_pos,i1___wmul@multiplier
  1372  000542  C0C4  F0A7         	movff	delay_task@task_pos+1,i1___wmul@multiplier+1
  1373  000546  0E00               	movlw	0
  1374  000548  6FA9               	movwf	(i1___wmul@multiplicand+1)& (0+255),b
  1375  00054A  0E74               	movlw	116
  1376  00054C  6FA8               	movwf	i1___wmul@multiplicand& (0+255),b
  1377  00054E  EC48  F006         	call	i1___wmul	;wreg free
  1378  000552  0EE6               	movlw	low (_ready_queue+102)
  1379  000554  0100               	movlb	0	; () banked
  1380  000556  25A6               	addwf	?i1___wmul& (0+255),w,b
  1381  000558  6ED9               	movwf	fsr2l,c
  1382  00055A  0E01               	movlw	high (_ready_queue+102)
  1383  00055C  21A7               	addwfc	(?i1___wmul+1)& (0+255),w,b
  1384  00055E  6EDA               	movwf	fsr2h,c
  1385  000560  C0BC  FFDE         	movff	??_delay_task,postinc2
  1386  000564  C0BD  FFDE         	movff	??_delay_task+1,postinc2
  1387  000568  C0BE  FFDE         	movff	??_delay_task+2,postinc2
  1388  00056C  6FBC               	movwf	??_delay_task& (0+255),b
  1389  00056E  6BBD               	clrf	(??_delay_task+1)& (0+255),b
  1390  000570  6BBE               	clrf	(??_delay_task+2)& (0+255),b
  1391  000572  C0C3  F0A6         	movff	delay_task@task_pos,i1___wmul@multiplier
  1392  000576  C0C4  F0A7         	movff	delay_task@task_pos+1,i1___wmul@multiplier+1
  1393  00057A  0E00               	movlw	0
  1394  00057C  6FA9               	movwf	(i1___wmul@multiplicand+1)& (0+255),b
  1395  00057E  0E74               	movlw	116
  1396  000580  6FA8               	movwf	i1___wmul@multiplicand& (0+255),b
  1397  000582  EC48  F006         	call	i1___wmul	;wreg free
  1398  000586  0EE9               	movlw	low (_ready_queue+105)
  1399  000588  0100               	movlb	0	; () banked
  1400  00058A  25A6               	addwf	?i1___wmul& (0+255),w,b
  1401  00058C  6ED9               	movwf	fsr2l,c
  1402  00058E  0E01               	movlw	high (_ready_queue+105)
  1403  000590  21A7               	addwfc	(?i1___wmul+1)& (0+255),w,b
  1404  000592  6EDA               	movwf	fsr2h,c
  1405  000594  C0BC  FFDE         	movff	??_delay_task,postinc2
  1406  000598  C0BD  FFDE         	movff	??_delay_task+1,postinc2
  1407  00059C  C0BE  FFDE         	movff	??_delay_task+2,postinc2
  1408  0005A0  50D8               	movf	216,w,c	;volatile
  1409  0005A2  6FBC               	movwf	??_delay_task& (0+255),b
  1410  0005A4  6BBD               	clrf	(??_delay_task+1)& (0+255),b
  1411  0005A6  6BBE               	clrf	(??_delay_task+2)& (0+255),b
  1412  0005A8  C0C3  F0A6         	movff	delay_task@task_pos,i1___wmul@multiplier
  1413  0005AC  C0C4  F0A7         	movff	delay_task@task_pos+1,i1___wmul@multiplier+1
  1414  0005B0  0E00               	movlw	0
  1415  0005B2  6FA9               	movwf	(i1___wmul@multiplicand+1)& (0+255),b
  1416  0005B4  0E74               	movlw	116
  1417  0005B6  6FA8               	movwf	i1___wmul@multiplicand& (0+255),b
  1418  0005B8  EC48  F006         	call	i1___wmul	;wreg free
  1419  0005BC  0EEC               	movlw	low (_ready_queue+108)
  1420  0005BE  0100               	movlb	0	; () banked
  1421  0005C0  25A6               	addwf	?i1___wmul& (0+255),w,b
  1422  0005C2  6ED9               	movwf	fsr2l,c
  1423  0005C4  0E01               	movlw	high (_ready_queue+108)
  1424  0005C6  21A7               	addwfc	(?i1___wmul+1)& (0+255),w,b
  1425  0005C8  6EDA               	movwf	fsr2h,c
  1426  0005CA  C0BC  FFDE         	movff	??_delay_task,postinc2
  1427  0005CE  C0BD  FFDE         	movff	??_delay_task+1,postinc2
  1428  0005D2  C0BE  FFDE         	movff	??_delay_task+2,postinc2
  1429  0005D6                     __ccov91_end_blk7:
  1430                           	callstack 20
  1431  0005D6                     __ccov92_start_blk8:
  1432                           	callstack 20
  1433  0005D6                     i1l136:
  1434                           
  1435                           ; BSR set to: 0
  1436  0005D6  C0C3  F0A6         	movff	delay_task@task_pos,i1___wmul@multiplier
  1437  0005DA  C0C4  F0A7         	movff	delay_task@task_pos+1,i1___wmul@multiplier+1
  1438  0005DE  0E00               	movlw	0
  1439  0005E0  6FA9               	movwf	(i1___wmul@multiplicand+1)& (0+255),b
  1440  0005E2  0E74               	movlw	116
  1441  0005E4  6FA8               	movwf	i1___wmul@multiplicand& (0+255),b
  1442  0005E6  EC48  F006         	call	i1___wmul	;wreg free
  1443  0005EA  0E80               	movlw	low _ready_queue
  1444  0005EC  0100               	movlb	0	; () banked
  1445  0005EE  6FBC               	movwf	??_delay_task& (0+255),b
  1446  0005F0  0E01               	movlw	high _ready_queue
  1447  0005F2  6FBD               	movwf	(??_delay_task+1)& (0+255),b
  1448  0005F4  0E06               	movlw	6
  1449  0005F6  27BC               	addwf	??_delay_task& (0+255),f,b
  1450  0005F8  0E00               	movlw	0
  1451  0005FA  23BD               	addwfc	(??_delay_task+1)& (0+255),f,b
  1452  0005FC  51A6               	movf	?i1___wmul& (0+255),w,b
  1453  0005FE  27BC               	addwf	??_delay_task& (0+255),f,b
  1454  000600  51A7               	movf	(?i1___wmul+1)& (0+255),w,b
  1455  000602  23BD               	addwfc	(??_delay_task+1)& (0+255),f,b
  1456  000604  C0BF  F0A6         	movff	delay_task@p_context,i1___wmul@multiplier
  1457  000608  C0C0  F0A7         	movff	delay_task@p_context+1,i1___wmul@multiplier+1
  1458  00060C  0E00               	movlw	0
  1459  00060E  6FA9               	movwf	(i1___wmul@multiplicand+1)& (0+255),b
  1460  000610  0E03               	movlw	3
  1461  000612  6FA8               	movwf	i1___wmul@multiplicand& (0+255),b
  1462  000614  EC48  F006         	call	i1___wmul	;wreg free
  1463  000618  0100               	movlb	0	; () banked
  1464  00061A  51A6               	movf	?i1___wmul& (0+255),w,b
  1465  00061C  25BC               	addwf	??_delay_task& (0+255),w,b
  1466  00061E  6ED9               	movwf	fsr2l,c
  1467  000620  51A7               	movf	(?i1___wmul+1)& (0+255),w,b
  1468  000622  21BD               	addwfc	(??_delay_task+1)& (0+255),w,b
  1469  000624  6EDA               	movwf	fsr2h,c
  1470  000626  CFFD FFDE          	movff	tosl,postinc2	;volatile
  1471  00062A  CFFE FFDE          	movff	tosh,postinc2	;volatile
  1472  00062E  CFFF FFDE          	movff	tosu,postinc2	;volatile
  1473  000632  0006               	pop		;# 
  1474  000634                     __ccov92_end_blk8:
  1475                           	callstack 20
  1476  000634                     __ccov93_start_blk9:
  1477                           	callstack 20
  1478  000634  0100               	movlb	0	; () banked
  1479  000636  4BBF               	infsnz	delay_task@p_context& (0+255),f,b
  1480  000638  2BC0               	incf	(delay_task@p_context+1)& (0+255),f,b
  1481  00063A                     __ccov93_end_blk9:
  1482                           	callstack 20
  1483  00063A                     __ccov94_start_blk10:
  1484                           	callstack 20
  1485  00063A                     
  1486                           ; BSR set to: 0
  1487  00063A  8E02               	bsf	(__ccovbit10_22/(0+8))^0,__ccovbit10_22& (0+7),c	;volatile
  1488  00063C  50FC               	movf	252,w,c	;volatile
  1489  00063E  A4D8               	btfss	status,2,c
  1490  000640  EF24  F003         	goto	i1u95_21
  1491  000644  EF26  F003         	goto	i1u95_20
  1492  000648                     i1u95_21:
  1493  000648  EFEB  F002         	goto	i1l136
  1494  00064C                     i1u95_20:
  1495  00064C                     __ccov94_end_blk10:
  1496                           	callstack 20
  1497  00064C                     __ccov95_start_blk12:
  1498                           	callstack 20
  1499  00064C                     
  1500                           ; BSR set to: 0
  1501  00064C  8C02               	bsf	(__ccovbit12_23/(0+8))^0,__ccovbit12_23& (0+7),c	;volatile
  1502  00064E  C0C3  F0A6         	movff	delay_task@task_pos,i1___wmul@multiplier
  1503  000652  C0C4  F0A7         	movff	delay_task@task_pos+1,i1___wmul@multiplier+1
  1504  000656  0E00               	movlw	0
  1505  000658  6FA9               	movwf	(i1___wmul@multiplicand+1)& (0+255),b
  1506  00065A  0E74               	movlw	116
  1507  00065C  6FA8               	movwf	i1___wmul@multiplicand& (0+255),b
  1508  00065E  EC48  F006         	call	i1___wmul	;wreg free
  1509  000662  0EEF               	movlw	low (_ready_queue+111)
  1510  000664  0100               	movlb	0	; () banked
  1511  000666  25A6               	addwf	?i1___wmul& (0+255),w,b
  1512  000668  6ED9               	movwf	fsr2l,c
  1513  00066A  0E01               	movlw	high (_ready_queue+111)
  1514  00066C  21A7               	addwfc	(?i1___wmul+1)& (0+255),w,b
  1515  00066E  6EDA               	movwf	fsr2h,c
  1516  000670  C0BF  FFDE         	movff	delay_task@p_context,postinc2
  1517  000674  C0C0  FFDD         	movff	delay_task@p_context+1,postdec2
  1518  000678  C0C3  F0A6         	movff	delay_task@task_pos,i1___wmul@multiplier
  1519  00067C  C0C4  F0A7         	movff	delay_task@task_pos+1,i1___wmul@multiplier+1
  1520  000680  0E00               	movlw	0
  1521  000682  6FA9               	movwf	(i1___wmul@multiplicand+1)& (0+255),b
  1522  000684  0E74               	movlw	116
  1523  000686  6FA8               	movwf	i1___wmul@multiplicand& (0+255),b
  1524  000688  EC48  F006         	call	i1___wmul	;wreg free
  1525  00068C  0EF1               	movlw	low (_ready_queue+113)
  1526  00068E  0100               	movlb	0	; () banked
  1527  000690  25A6               	addwf	?i1___wmul& (0+255),w,b
  1528  000692  6ED9               	movwf	fsr2l,c
  1529  000694  0E01               	movlw	high (_ready_queue+113)
  1530  000696  21A7               	addwfc	(?i1___wmul+1)& (0+255),w,b
  1531  000698  6EDA               	movwf	fsr2h,c
  1532  00069A  0E02               	movlw	2
  1533  00069C  6EDF               	movwf	indf2,c
  1534  00069E                     __ccov95_end_blk12:
  1535                           	callstack 20
  1536  00069E                     __ccov96_start_blk14:
  1537                           	callstack 20
  1538  00069E                     i1l1718:
  1539                           
  1540                           ; BSR set to: 0
  1541  00069E  8EF2               	bsf	242,7,c	;volatile
  1542  0006A0                     __ccov96_end_blk14:
  1543                           	callstack 20
  1544  0006A0                     __ccov97_start_blk15:
  1545                           	callstack 20
  1546  0006A0                     
  1547                           ; BSR set to: 0
  1548                           ;kernel.c: 121:    ready_queue.task_running = scheduler();
  1549  0006A0  EC6F  F006         	call	_scheduler	;wreg free
  1550  0006A4  0100               	movlb	0	; () banked
  1551  0006A6  C0B6  F352         	movff	?_scheduler,_ready_queue+466
  1552  0006AA  C0B7  F353         	movff	?_scheduler+1,_ready_queue+467
  1553  0006AE                     __ccov97_end_blk15:
  1554                           	callstack 20
  1555  0006AE                     __ccov98_start_blk16:
  1556                           	callstack 20
  1557  0006AE                     
  1558                           ; BSR set to: 0
  1559                           ;kernel.c: 122:    { u_int task_pos = ready_queue.task_running;u_int p_context = ready_q
      +                          ueue.tasks_list[task_pos].task_stack_real_size;do { INTCONbits.GIE = 0; STKPTR = 0; if (
      +                          ready_queue.tasks_list[task_pos].task_stack_real_size > 0) { BSR = ready_queue.tasks_lis
      +                          t[task_pos].task_BSR_reg; WREG = ready_queue.tasks_list[task_pos].task_WORK_reg; STATUS 
      +                          = ready_queue.tasks_list[task_pos].task_STATUS_reg; while (p_context) { p_context -= 1; 
      +                          __asm("PUSH"); TOS = ready_queue.tasks_list[task_pos].task_CONTEXT[p_context]; } } else 
      +                          { __asm("PUSH"); TOS = ready_queue.tasks_list[task_pos].task_PTR; } ready_queue.tasks_li
      +                          st[task_pos].task_STATE = RUNNING; INTCONbits.GIE = 1; } while(0); };
  1560  0006AE  C352  F0C5         	movff	_ready_queue+466,delay_task@task_pos_473
  1561  0006B2  C353  F0C6         	movff	_ready_queue+467,delay_task@task_pos_473+1
  1562  0006B6  C0C5  F0A6         	movff	delay_task@task_pos_473,i1___wmul@multiplier
  1563  0006BA  C0C6  F0A7         	movff	delay_task@task_pos_473+1,i1___wmul@multiplier+1
  1564  0006BE  0E00               	movlw	0
  1565  0006C0  6FA9               	movwf	(i1___wmul@multiplicand+1)& (0+255),b
  1566  0006C2  0E74               	movlw	116
  1567  0006C4  6FA8               	movwf	i1___wmul@multiplicand& (0+255),b
  1568  0006C6  EC48  F006         	call	i1___wmul	;wreg free
  1569  0006CA  0EEF               	movlw	low (_ready_queue+111)
  1570  0006CC  0100               	movlb	0	; () banked
  1571  0006CE  25A6               	addwf	?i1___wmul& (0+255),w,b
  1572  0006D0  6ED9               	movwf	fsr2l,c
  1573  0006D2  0E01               	movlw	high (_ready_queue+111)
  1574  0006D4  21A7               	addwfc	(?i1___wmul+1)& (0+255),w,b
  1575  0006D6  6EDA               	movwf	fsr2h,c
  1576  0006D8  CFDE F0C1          	movff	postinc2,delay_task@p_context_474
  1577  0006DC  CFDD F0C2          	movff	postdec2,delay_task@p_context_474+1
  1578  0006E0                     __ccov98_end_blk16:
  1579                           	callstack 20
  1580  0006E0                     __ccov99_start_blk18:
  1581                           	callstack 20
  1582  0006E0                     
  1583                           ; BSR set to: 0
  1584  0006E0  9EF2               	bcf	242,7,c	;volatile
  1585  0006E2                     __ccov99_end_blk18:
  1586                           	callstack 20
  1587  0006E2                     __ccov100_start_blk19:
  1588                           	callstack 20
  1589  0006E2                     
  1590                           ; BSR set to: 0
  1591  0006E2  0E00               	movlw	0
  1592  0006E4  6EFC               	movwf	252,c	;volatile
  1593  0006E6                     __ccov100_end_blk19:
  1594                           	callstack 20
  1595  0006E6                     __ccov101_start_blk20:
  1596                           	callstack 20
  1597  0006E6                     
  1598                           ; BSR set to: 0
  1599  0006E6  C0C5  F0A6         	movff	delay_task@task_pos_473,i1___wmul@multiplier
  1600  0006EA  C0C6  F0A7         	movff	delay_task@task_pos_473+1,i1___wmul@multiplier+1
  1601  0006EE  0E00               	movlw	0
  1602  0006F0  6FA9               	movwf	(i1___wmul@multiplicand+1)& (0+255),b
  1603  0006F2  0E74               	movlw	116
  1604  0006F4  6FA8               	movwf	i1___wmul@multiplicand& (0+255),b
  1605  0006F6  EC48  F006         	call	i1___wmul	;wreg free
  1606  0006FA  0EEF               	movlw	low (_ready_queue+111)
  1607  0006FC  0100               	movlb	0	; () banked
  1608  0006FE  25A6               	addwf	?i1___wmul& (0+255),w,b
  1609  000700  6ED9               	movwf	fsr2l,c
  1610  000702  0E01               	movlw	high (_ready_queue+111)
  1611  000704  21A7               	addwfc	(?i1___wmul+1)& (0+255),w,b
  1612  000706  6EDA               	movwf	fsr2h,c
  1613  000708  50DE               	movf	postinc2,w,c
  1614  00070A  10DE               	iorwf	postinc2,w,c
  1615  00070C  B4D8               	btfsc	status,2,c
  1616  00070E  EF8B  F003         	goto	i1u96_21
  1617  000712  EF8D  F003         	goto	i1u96_20
  1618  000716                     i1u96_21:
  1619  000716  EF09  F004         	goto	i1l140
  1620  00071A                     i1u96_20:
  1621  00071A                     __ccov101_end_blk20:
  1622                           	callstack 20
  1623  00071A                     __ccov102_start_blk21:
  1624                           	callstack 20
  1625  00071A                     
  1626                           ; BSR set to: 0
  1627  00071A  C0C5  F0A6         	movff	delay_task@task_pos_473,i1___wmul@multiplier
  1628  00071E  C0C6  F0A7         	movff	delay_task@task_pos_473+1,i1___wmul@multiplier+1
  1629  000722  0E00               	movlw	0
  1630  000724  6FA9               	movwf	(i1___wmul@multiplicand+1)& (0+255),b
  1631  000726  0E74               	movlw	116
  1632  000728  6FA8               	movwf	i1___wmul@multiplicand& (0+255),b
  1633  00072A  EC48  F006         	call	i1___wmul	;wreg free
  1634  00072E  0EE6               	movlw	low (_ready_queue+102)
  1635  000730  0100               	movlb	0	; () banked
  1636  000732  25A6               	addwf	?i1___wmul& (0+255),w,b
  1637  000734  6ED9               	movwf	fsr2l,c
  1638  000736  0E01               	movlw	high (_ready_queue+102)
  1639  000738  21A7               	addwfc	(?i1___wmul+1)& (0+255),w,b
  1640  00073A  6EDA               	movwf	fsr2h,c
  1641  00073C  50DF               	movf	indf2,w,c
  1642  00073E  6EE0               	movwf	224,c	;volatile
  1643  000740  C0C5  F0A6         	movff	delay_task@task_pos_473,i1___wmul@multiplier
  1644  000744  C0C6  F0A7         	movff	delay_task@task_pos_473+1,i1___wmul@multiplier+1
  1645  000748  0E00               	movlw	0
  1646  00074A  6FA9               	movwf	(i1___wmul@multiplicand+1)& (0+255),b
  1647  00074C  0E74               	movlw	116
  1648  00074E  6FA8               	movwf	i1___wmul@multiplicand& (0+255),b
  1649  000750  EC48  F006         	call	i1___wmul	;wreg free
  1650  000754  0EE9               	movlw	low (_ready_queue+105)
  1651  000756  0100               	movlb	0	; () banked
  1652  000758  25A6               	addwf	?i1___wmul& (0+255),w,b
  1653  00075A  6ED9               	movwf	fsr2l,c
  1654  00075C  0E01               	movlw	high (_ready_queue+105)
  1655  00075E  21A7               	addwfc	(?i1___wmul+1)& (0+255),w,b
  1656  000760  6EDA               	movwf	fsr2h,c
  1657  000762  50DF               	movf	indf2,w,c
  1658  000764  6FBC               	movwf	??_delay_task& (0+255),b
  1659  000766  51BC               	movf	??_delay_task& (0+255),w,b
  1660  000768  C0C5  F0A6         	movff	delay_task@task_pos_473,i1___wmul@multiplier
  1661  00076C  C0C6  F0A7         	movff	delay_task@task_pos_473+1,i1___wmul@multiplier+1
  1662  000770  0E00               	movlw	0
  1663  000772  6FA9               	movwf	(i1___wmul@multiplicand+1)& (0+255),b
  1664  000774  0E74               	movlw	116
  1665  000776  6FA8               	movwf	i1___wmul@multiplicand& (0+255),b
  1666  000778  EC48  F006         	call	i1___wmul	;wreg free
  1667  00077C  0EEC               	movlw	low (_ready_queue+108)
  1668  00077E  0100               	movlb	0	; () banked
  1669  000780  25A6               	addwf	?i1___wmul& (0+255),w,b
  1670  000782  6ED9               	movwf	fsr2l,c
  1671  000784  0E01               	movlw	high (_ready_queue+108)
  1672  000786  21A7               	addwfc	(?i1___wmul+1)& (0+255),w,b
  1673  000788  6EDA               	movwf	fsr2h,c
  1674  00078A  50DF               	movf	indf2,w,c
  1675  00078C  6ED8               	movwf	216,c	;volatile
  1676  00078E  EFFD  F003         	goto	i1l1734
  1677  000792                     __ccov102_end_blk21:
  1678                           	callstack 20
  1679  000792                     __ccov103_start_blk23:
  1680                           	callstack 20
  1681  000792                     i1l1730:
  1682                           
  1683                           ; BSR set to: 0
  1684  000792  07C1               	decf	delay_task@p_context_474& (0+255),f,b
  1685  000794  A0D8               	btfss	status,0,c
  1686  000796  07C2               	decf	(delay_task@p_context_474+1)& (0+255),f,b
  1687  000798  0005               	push		;# 
  1688  00079A                     __ccov103_end_blk23:
  1689                           	callstack 20
  1690  00079A                     __ccov104_start_blk24:
  1691                           	callstack 20
  1692  00079A  8A02               	bsf	(__ccovbit24_24/(0+8))^0,__ccovbit24_24& (0+7),c	;volatile
  1693  00079C  C0C5  F0A6         	movff	delay_task@task_pos_473,i1___wmul@multiplier
  1694  0007A0  C0C6  F0A7         	movff	delay_task@task_pos_473+1,i1___wmul@multiplier+1
  1695  0007A4  0E00               	movlw	0
  1696  0007A6  0100               	movlb	0	; () banked
  1697  0007A8  6FA9               	movwf	(i1___wmul@multiplicand+1)& (0+255),b
  1698  0007AA  0E74               	movlw	116
  1699  0007AC  6FA8               	movwf	i1___wmul@multiplicand& (0+255),b
  1700  0007AE  EC48  F006         	call	i1___wmul	;wreg free
  1701  0007B2  0E80               	movlw	low _ready_queue
  1702  0007B4  0100               	movlb	0	; () banked
  1703  0007B6  6FBC               	movwf	??_delay_task& (0+255),b
  1704  0007B8  0E01               	movlw	high _ready_queue
  1705  0007BA  6FBD               	movwf	(??_delay_task+1)& (0+255),b
  1706  0007BC  0E06               	movlw	6
  1707  0007BE  27BC               	addwf	??_delay_task& (0+255),f,b
  1708  0007C0  0E00               	movlw	0
  1709  0007C2  23BD               	addwfc	(??_delay_task+1)& (0+255),f,b
  1710  0007C4  51A6               	movf	?i1___wmul& (0+255),w,b
  1711  0007C6  27BC               	addwf	??_delay_task& (0+255),f,b
  1712  0007C8  51A7               	movf	(?i1___wmul+1)& (0+255),w,b
  1713  0007CA  23BD               	addwfc	(??_delay_task+1)& (0+255),f,b
  1714  0007CC  C0C1  F0A6         	movff	delay_task@p_context_474,i1___wmul@multiplier
  1715  0007D0  C0C2  F0A7         	movff	delay_task@p_context_474+1,i1___wmul@multiplier+1
  1716  0007D4  0E00               	movlw	0
  1717  0007D6  6FA9               	movwf	(i1___wmul@multiplicand+1)& (0+255),b
  1718  0007D8  0E03               	movlw	3
  1719  0007DA  6FA8               	movwf	i1___wmul@multiplicand& (0+255),b
  1720  0007DC  EC48  F006         	call	i1___wmul	;wreg free
  1721  0007E0  0100               	movlb	0	; () banked
  1722  0007E2  51A6               	movf	?i1___wmul& (0+255),w,b
  1723  0007E4  25BC               	addwf	??_delay_task& (0+255),w,b
  1724  0007E6  6ED9               	movwf	fsr2l,c
  1725  0007E8  51A7               	movf	(?i1___wmul+1)& (0+255),w,b
  1726  0007EA  21BD               	addwfc	(??_delay_task+1)& (0+255),w,b
  1727  0007EC  6EDA               	movwf	fsr2h,c
  1728  0007EE  CFDE FFFD          	movff	postinc2,tosl	;volatile
  1729  0007F2  CFDE FFFE          	movff	postinc2,tosh	;volatile
  1730  0007F6  CFDD FFFF          	movff	postdec2,tosu	;volatile
  1731  0007FA                     __ccov104_end_blk24:
  1732                           	callstack 20
  1733  0007FA                     __ccov105_start_blk26:
  1734                           	callstack 20
  1735  0007FA                     i1l1734:
  1736                           
  1737                           ; BSR set to: 0
  1738  0007FA  8802               	bsf	(__ccovbit26_25/(0+8))^0,__ccovbit26_25& (0+7),c	;volatile
  1739  0007FC  51C1               	movf	delay_task@p_context_474& (0+255),w,b
  1740  0007FE  11C2               	iorwf	(delay_task@p_context_474+1)& (0+255),w,b
  1741  000800  A4D8               	btfss	status,2,c
  1742  000802  EF05  F004         	goto	i1u97_21
  1743  000806  EF07  F004         	goto	i1u97_20
  1744  00080A                     i1u97_21:
  1745  00080A  EFC9  F003         	goto	i1l1730
  1746  00080E                     i1u97_20:
  1747  00080E  EF26  F004         	goto	i1l144
  1748  000812                     __ccov105_end_blk26:
  1749                           	callstack 20
  1750  000812                     __ccov106_start_blk28:
  1751                           	callstack 20
  1752  000812                     i1l140:
  1753                           
  1754                           ; BSR set to: 0
  1755  000812  0005               	push		;# 
  1756  000814                     __ccov106_end_blk28:
  1757                           	callstack 20
  1758  000814                     __ccov107_start_blk29:
  1759                           	callstack 20
  1760  000814  8602               	bsf	(__ccovbit29_26/(0+8))^0,__ccovbit29_26& (0+7),c	;volatile
  1761  000816  C0C5  F0A6         	movff	delay_task@task_pos_473,i1___wmul@multiplier
  1762  00081A  C0C6  F0A7         	movff	delay_task@task_pos_473+1,i1___wmul@multiplier+1
  1763  00081E  0E00               	movlw	0
  1764  000820  0100               	movlb	0	; () banked
  1765  000822  6FA9               	movwf	(i1___wmul@multiplicand+1)& (0+255),b
  1766  000824  0E74               	movlw	116
  1767  000826  6FA8               	movwf	i1___wmul@multiplicand& (0+255),b
  1768  000828  EC48  F006         	call	i1___wmul	;wreg free
  1769  00082C  0E84               	movlw	low (_ready_queue+4)
  1770  00082E  0100               	movlb	0	; () banked
  1771  000830  25A6               	addwf	?i1___wmul& (0+255),w,b
  1772  000832  6ED9               	movwf	fsr2l,c
  1773  000834  0E01               	movlw	high (_ready_queue+4)
  1774  000836  21A7               	addwfc	(?i1___wmul+1)& (0+255),w,b
  1775  000838  6EDA               	movwf	fsr2h,c
  1776  00083A  CFDE F0BC          	movff	postinc2,??_delay_task
  1777  00083E  CFDD F0BD          	movff	postdec2,??_delay_task+1
  1778  000842  C0BC  FFFD         	movff	??_delay_task,tosl	;volatile
  1779  000846  C0BD  FFFE         	movff	??_delay_task+1,tosh	;volatile
  1780  00084A  6AFF               	clrf	255,c	;volatile
  1781  00084C                     __ccov107_end_blk29:
  1782                           	callstack 20
  1783  00084C                     __ccov108_start_blk30:
  1784                           	callstack 20
  1785  00084C                     i1l144:
  1786                           
  1787                           ; BSR set to: 0
  1788  00084C  C0C5  F0A6         	movff	delay_task@task_pos_473,i1___wmul@multiplier
  1789  000850  C0C6  F0A7         	movff	delay_task@task_pos_473+1,i1___wmul@multiplier+1
  1790  000854  0E00               	movlw	0
  1791  000856  6FA9               	movwf	(i1___wmul@multiplicand+1)& (0+255),b
  1792  000858  0E74               	movlw	116
  1793  00085A  6FA8               	movwf	i1___wmul@multiplicand& (0+255),b
  1794  00085C  EC48  F006         	call	i1___wmul	;wreg free
  1795  000860  0EF1               	movlw	low (_ready_queue+113)
  1796  000862  0100               	movlb	0	; () banked
  1797  000864  25A6               	addwf	?i1___wmul& (0+255),w,b
  1798  000866  6ED9               	movwf	fsr2l,c
  1799  000868  0E01               	movlw	high (_ready_queue+113)
  1800  00086A  21A7               	addwfc	(?i1___wmul+1)& (0+255),w,b
  1801  00086C  6EDA               	movwf	fsr2h,c
  1802  00086E  0E01               	movlw	1
  1803  000870  6EDF               	movwf	indf2,c
  1804  000872                     __ccov108_end_blk30:
  1805                           	callstack 20
  1806  000872                     __ccov109_start_blk31:
  1807                           	callstack 20
  1808  000872                     
  1809                           ; BSR set to: 0
  1810  000872  8EF2               	bsf	242,7,c	;volatile
  1811  000874                     __ccov109_end_blk31:
  1812                           	callstack 20
  1813  000874                     __ccov110_start_blk33:
  1814                           	callstack 20
  1815  000874                     
  1816                           ; BSR set to: 0
  1817  000874  8402               	bsf	(__ccovbit33_27/(0+8))^0,__ccovbit33_27& (0+7),c	;volatile
  1818  000876  0012               	return		;funcret
  1819  000878                     __end_of_delay_task:
  1820                           	callstack 0
  1821  0000                     
  1822 ;; *************** function _scheduler *****************
  1823 ;; Defined at:
  1824 ;;		line 49 in file "scheduler.c"
  1825 ;; Parameters:    Size  Location     Type
  1826 ;;		None
  1827 ;; Auto vars:     Size  Location     Type
  1828 ;;  task_to_run     2   56[BANK0 ] unsigned int 
  1829 ;; Return value:  Size  Location     Type
  1830 ;;                  2   54[BANK0 ] unsigned int 
  1831 ;; Registers used:
  1832 ;;		wreg, fsr2l, fsr2h, status,2, status,0, prodl, prodh, cstack
  1833 ;; Tracked objects:
  1834 ;;		On entry : 0/0
  1835 ;;		On exit  : 0/0
  1836 ;;		Unchanged: 0/0
  1837 ;; Data sizes:     COMRAM   BANK0   BANK1   BANK2   BANK3   BANK4   BANK5
  1838 ;;      Params:         0       2       0       0       0       0       0
  1839 ;;      Locals:         0       2       0       0       0       0       0
  1840 ;;      Temps:          0       0       0       0       0       0       0
  1841 ;;      Totals:         0       4       0       0       0       0       0
  1842 ;;Total ram usage:        4 bytes
  1843 ;; Hardware stack levels used:    1
  1844 ;; Hardware stack levels required when called:    6
  1845 ;; This function calls:
  1846 ;;		_PRIOR_scheduler
  1847 ;; This function is called by:
  1848 ;;		_delay_task
  1849 ;;		_exit_task
  1850 ;; This function uses a non-reentrant model
  1851 ;;
  1852                           
  1853                           	psect	text10
  1854  000CDE                     __ptext10:
  1855                           	callstack 0
  1856  000CDE                     _scheduler:
  1857                           	callstack 20
  1858                           
  1859                           ; BSR set to: 0
  1860                           ;incstack = 0
  1861  000CDE                     
  1862                           ;scheduler.c: 51:    u_int task_to_run;;scheduler.c: 56:    task_to_run = PRIOR_schedule
      +                          r();
  1863  000CDE  EC3C  F004         	call	_PRIOR_scheduler	;wreg free
  1864  000CE2  C0AC  F0B8         	movff	?_PRIOR_scheduler,scheduler@task_to_run
  1865  000CE6  C0AD  F0B9         	movff	?_PRIOR_scheduler+1,scheduler@task_to_run+1
  1866  000CEA                     __ccov128_end_blk0:
  1867                           	callstack 20
  1868  000CEA                     __ccov129_start_blk1:
  1869                           	callstack 20
  1870  000CEA                     
  1871                           ;scheduler.c: 61:    return task_to_run;
  1872  000CEA  C0B8  F0B6         	movff	scheduler@task_to_run,?_scheduler
  1873  000CEE  C0B9  F0B7         	movff	scheduler@task_to_run+1,?_scheduler+1
  1874  000CF2                     __ccov129_end_blk1:
  1875                           	callstack 20
  1876  000CF2                     __ccov130_start_blk3:
  1877                           	callstack 20
  1878  000CF2  8A01               	bsf	(__ccovbit3_32/(0+8))^0,__ccovbit3_32& (0+7),c	;volatile
  1879  000CF4  0012               	return		;funcret
  1880  000CF6                     __end_of_scheduler:
  1881                           	callstack 0
  1882  0000                     
  1883 ;; *************** function _PRIOR_scheduler *****************
  1884 ;; Defined at:
  1885 ;;		line 19 in file "scheduler.c"
  1886 ;; Parameters:    Size  Location     Type
  1887 ;;		None
  1888 ;; Auto vars:     Size  Location     Type
  1889 ;;  y               2   52[BANK0 ] unsigned int 
  1890 ;;  task_to_run     2   50[BANK0 ] unsigned int 
  1891 ;;  menor_priori    2   48[BANK0 ] unsigned int 
  1892 ;;  x               2    0        unsigned int 
  1893 ;; Return value:  Size  Location     Type
  1894 ;;                  2   44[BANK0 ] unsigned int 
  1895 ;; Registers used:
  1896 ;;		wreg, fsr2l, fsr2h, status,2, status,0, prodl, prodh, cstack
  1897 ;; Tracked objects:
  1898 ;;		On entry : 0/0
  1899 ;;		On exit  : 0/0
  1900 ;;		Unchanged: 0/0
  1901 ;; Data sizes:     COMRAM   BANK0   BANK1   BANK2   BANK3   BANK4   BANK5
  1902 ;;      Params:         0       2       0       0       0       0       0
  1903 ;;      Locals:         0       6       0       0       0       0       0
  1904 ;;      Temps:          0       2       0       0       0       0       0
  1905 ;;      Totals:         0      10       0       0       0       0       0
  1906 ;;Total ram usage:       10 bytes
  1907 ;; Hardware stack levels used:    1
  1908 ;; Hardware stack levels required when called:    5
  1909 ;; This function calls:
  1910 ;;		i1___wmul
  1911 ;; This function is called by:
  1912 ;;		_scheduler
  1913 ;; This function uses a non-reentrant model
  1914 ;;
  1915                           
  1916                           	psect	text11
  1917  000878                     __ptext11:
  1918                           	callstack 0
  1919  000878                     _PRIOR_scheduler:
  1920                           	callstack 20
  1921                           
  1922                           ;incstack = 0
  1923  000878                     
  1924                           ;scheduler.c: 21:    u_int task_to_run, menor_prioridade;;scheduler.c: 25:    u_int x, y
      +                          ;;scheduler.c: 26:    task_to_run = 0;
  1925  000878  0E00               	movlw	0
  1926  00087A  0100               	movlb	0	; () banked
  1927  00087C  6FB3               	movwf	(PRIOR_scheduler@task_to_run+1)& (0+255),b
  1928  00087E  0E00               	movlw	0
  1929  000880  6FB2               	movwf	PRIOR_scheduler@task_to_run& (0+255),b
  1930  000882                     __ccov115_end_blk0:
  1931                           	callstack 20
  1932  000882                     __ccov116_start_blk1:
  1933                           	callstack 20
  1934  000882                     
  1935                           ; BSR set to: 0
  1936                           ;scheduler.c: 27:    menor_prioridade = ready_queue.tasks_list[task_to_run].task_PRIOR;
  1937  000882  0E00               	movlw	0
  1938  000884  6FA7               	movwf	(i1___wmul@multiplier+1)& (0+255),b
  1939  000886  0E00               	movlw	0
  1940  000888  6FA6               	movwf	i1___wmul@multiplier& (0+255),b
  1941  00088A  0E00               	movlw	0
  1942  00088C  6FA9               	movwf	(i1___wmul@multiplicand+1)& (0+255),b
  1943  00088E  0E74               	movlw	116
  1944  000890  6FA8               	movwf	i1___wmul@multiplicand& (0+255),b
  1945  000892  EC48  F006         	call	i1___wmul	;wreg free
  1946  000896  0E82               	movlw	low (_ready_queue+2)
  1947  000898  0100               	movlb	0	; () banked
  1948  00089A  25A6               	addwf	?i1___wmul& (0+255),w,b
  1949  00089C  6ED9               	movwf	fsr2l,c
  1950  00089E  0E01               	movlw	high (_ready_queue+2)
  1951  0008A0  21A7               	addwfc	(?i1___wmul+1)& (0+255),w,b
  1952  0008A2  6EDA               	movwf	fsr2h,c
  1953  0008A4  CFDE F0B0          	movff	postinc2,PRIOR_scheduler@menor_prioridade
  1954  0008A8  CFDD F0B1          	movff	postdec2,PRIOR_scheduler@menor_prioridade+1
  1955  0008AC                     __ccov116_end_blk1:
  1956                           	callstack 20
  1957  0008AC                     __ccov117_start_blk2:
  1958                           	callstack 20
  1959  0008AC                     
  1960                           ; BSR set to: 0
  1961                           ;scheduler.c: 28:    for (y = 1; y < ready_queue.tasks_installed; y++) {
  1962  0008AC  0E00               	movlw	0
  1963  0008AE  6FB5               	movwf	(PRIOR_scheduler@y+1)& (0+255),b
  1964  0008B0  0E01               	movlw	1
  1965  0008B2  6FB4               	movwf	PRIOR_scheduler@y& (0+255),b
  1966  0008B4  EFAF  F004         	goto	i1l1690
  1967  0008B8                     __ccov117_end_blk2:
  1968                           	callstack 20
  1969  0008B8                     __ccov118_start_blk4:
  1970                           	callstack 20
  1971  0008B8                     i1l1680:
  1972                           
  1973                           ; BSR set to: 0
  1974                           ;scheduler.c: 29:        if ((ready_queue.tasks_list[y].task_PRIOR < menor_prioridade) &
      +                          &
  1975  0008B8  C0B4  F0A6         	movff	PRIOR_scheduler@y,i1___wmul@multiplier
  1976  0008BC  C0B5  F0A7         	movff	PRIOR_scheduler@y+1,i1___wmul@multiplier+1
  1977  0008C0  0E00               	movlw	0
  1978  0008C2  6FA9               	movwf	(i1___wmul@multiplicand+1)& (0+255),b
  1979  0008C4  0E74               	movlw	116
  1980  0008C6  6FA8               	movwf	i1___wmul@multiplicand& (0+255),b
  1981  0008C8  EC48  F006         	call	i1___wmul	;wreg free
  1982  0008CC  0E82               	movlw	low (_ready_queue+2)
  1983  0008CE  0100               	movlb	0	; () banked
  1984  0008D0  25A6               	addwf	?i1___wmul& (0+255),w,b
  1985  0008D2  6ED9               	movwf	fsr2l,c
  1986  0008D4  0E01               	movlw	high (_ready_queue+2)
  1987  0008D6  21A7               	addwfc	(?i1___wmul+1)& (0+255),w,b
  1988  0008D8  6EDA               	movwf	fsr2h,c
  1989  0008DA  51B0               	movf	PRIOR_scheduler@menor_prioridade& (0+255),w,b
  1990  0008DC  5CDE               	subwf	postinc2,w,c
  1991  0008DE  51B1               	movf	(PRIOR_scheduler@menor_prioridade+1)& (0+255),w,b
  1992  0008E0  58DE               	subwfb	postinc2,w,c
  1993  0008E2  B0D8               	btfsc	status,0,c
  1994  0008E4  EF76  F004         	goto	i1u91_21
  1995  0008E8  EF78  F004         	goto	i1u91_20
  1996  0008EC                     i1u91_21:
  1997  0008EC  EFAC  F004         	goto	i1l1688
  1998  0008F0                     i1u91_20:
  1999  0008F0                     __ccov118_end_blk4:
  2000                           	callstack 20
  2001  0008F0                     __ccov119_start_blk5:
  2002                           	callstack 20
  2003  0008F0                     
  2004                           ; BSR set to: 0
  2005  0008F0  8202               	bsf	(__ccovbit5_28/(0+8))^0,__ccovbit5_28& (0+7),c	;volatile
  2006  0008F2  C0B4  F0A6         	movff	PRIOR_scheduler@y,i1___wmul@multiplier
  2007  0008F6  C0B5  F0A7         	movff	PRIOR_scheduler@y+1,i1___wmul@multiplier+1
  2008  0008FA  0E00               	movlw	0
  2009  0008FC  6FA9               	movwf	(i1___wmul@multiplicand+1)& (0+255),b
  2010  0008FE  0E74               	movlw	116
  2011  000900  6FA8               	movwf	i1___wmul@multiplicand& (0+255),b
  2012  000902  EC48  F006         	call	i1___wmul	;wreg free
  2013  000906  0EF1               	movlw	low (_ready_queue+113)
  2014  000908  0100               	movlb	0	; () banked
  2015  00090A  25A6               	addwf	?i1___wmul& (0+255),w,b
  2016  00090C  6ED9               	movwf	fsr2l,c
  2017  00090E  0E01               	movlw	high (_ready_queue+113)
  2018  000910  21A7               	addwfc	(?i1___wmul+1)& (0+255),w,b
  2019  000912  6EDA               	movwf	fsr2h,c
  2020  000914  50DF               	movf	indf2,w,c
  2021  000916  A4D8               	btfss	status,2,c
  2022  000918  EF90  F004         	goto	i1u92_21
  2023  00091C  EF92  F004         	goto	i1u92_20
  2024  000920                     i1u92_21:
  2025  000920  EFAC  F004         	goto	i1l1688
  2026  000924                     i1u92_20:
  2027  000924                     __ccov119_end_blk5:
  2028                           	callstack 20
  2029  000924                     __ccov120_start_blk6:
  2030                           	callstack 20
  2031  000924                     
  2032                           ; BSR set to: 0
  2033                           ;scheduler.c: 30:           (ready_queue.tasks_list[y].task_STATE == READY)) {;scheduler
      +                          .c: 31:             menor_prioridade = ready_queue.tasks_list[y].task_PRIOR;
  2034  000924  C0B4  F0A6         	movff	PRIOR_scheduler@y,i1___wmul@multiplier
  2035  000928  C0B5  F0A7         	movff	PRIOR_scheduler@y+1,i1___wmul@multiplier+1
  2036  00092C  0E00               	movlw	0
  2037  00092E  6FA9               	movwf	(i1___wmul@multiplicand+1)& (0+255),b
  2038  000930  0E74               	movlw	116
  2039  000932  6FA8               	movwf	i1___wmul@multiplicand& (0+255),b
  2040  000934  EC48  F006         	call	i1___wmul	;wreg free
  2041  000938  0E82               	movlw	low (_ready_queue+2)
  2042  00093A  0100               	movlb	0	; () banked
  2043  00093C  25A6               	addwf	?i1___wmul& (0+255),w,b
  2044  00093E  6ED9               	movwf	fsr2l,c
  2045  000940  0E01               	movlw	high (_ready_queue+2)
  2046  000942  21A7               	addwfc	(?i1___wmul+1)& (0+255),w,b
  2047  000944  6EDA               	movwf	fsr2h,c
  2048  000946  CFDE F0B0          	movff	postinc2,PRIOR_scheduler@menor_prioridade
  2049  00094A  CFDD F0B1          	movff	postdec2,PRIOR_scheduler@menor_prioridade+1
  2050  00094E                     __ccov120_end_blk6:
  2051                           	callstack 20
  2052  00094E                     __ccov121_start_blk7:
  2053                           	callstack 20
  2054  00094E                     
  2055                           ; BSR set to: 0
  2056  00094E  8002               	bsf	(__ccovbit7_29/(0+8))^0,__ccovbit7_29& (0+7),c	;volatile
  2057                           
  2058                           ;scheduler.c: 32:             task_to_run = y;
  2059  000950  C0B4  F0B2         	movff	PRIOR_scheduler@y,PRIOR_scheduler@task_to_run
  2060  000954  C0B5  F0B3         	movff	PRIOR_scheduler@y+1,PRIOR_scheduler@task_to_run+1
  2061  000958                     __ccov121_end_blk7:
  2062                           	callstack 20
  2063  000958                     __ccov122_start_blk9:
  2064                           	callstack 20
  2065  000958                     i1l1688:
  2066                           
  2067                           ; BSR set to: 0
  2068  000958  8E01               	bsf	(__ccovbit9_30/(0+8))^0,__ccovbit9_30& (0+7),c	;volatile
  2069                           
  2070                           ;scheduler.c: 34:    }
  2071  00095A  4BB4               	infsnz	PRIOR_scheduler@y& (0+255),f,b
  2072  00095C  2BB5               	incf	(PRIOR_scheduler@y+1)& (0+255),f,b
  2073  00095E                     __ccov122_end_blk9:
  2074                           	callstack 20
  2075  00095E                     __ccov123_start_blk11:
  2076                           	callstack 20
  2077  00095E                     i1l1690:
  2078                           
  2079                           ; BSR set to: 0
  2080  00095E  EE23  F050         	lfsr	2,_ready_queue+464
  2081  000962  50DE               	movf	postinc2,w,c
  2082  000964  5DB4               	subwf	PRIOR_scheduler@y& (0+255),w,b
  2083  000966  50DE               	movf	postinc2,w,c
  2084  000968  59B5               	subwfb	(PRIOR_scheduler@y+1)& (0+255),w,b
  2085  00096A  A0D8               	btfss	status,0,c
  2086  00096C  EFBA  F004         	goto	i1u93_21
  2087  000970  EFBC  F004         	goto	i1u93_20
  2088  000974                     i1u93_21:
  2089  000974  EF5C  F004         	goto	i1l1680
  2090  000978                     i1u93_20:
  2091  000978                     __ccov123_end_blk11:
  2092                           	callstack 20
  2093  000978                     __ccov124_start_blk12:
  2094                           	callstack 20
  2095  000978                     
  2096                           ; BSR set to: 0
  2097                           ;scheduler.c: 36:    return task_to_run;
  2098  000978  C0B2  F0AC         	movff	PRIOR_scheduler@task_to_run,?_PRIOR_scheduler
  2099  00097C  C0B3  F0AD         	movff	PRIOR_scheduler@task_to_run+1,?_PRIOR_scheduler+1
  2100  000980                     __ccov124_end_blk12:
  2101                           	callstack 20
  2102  000980                     __ccov125_start_blk13:
  2103                           	callstack 20
  2104  000980                     
  2105                           ; BSR set to: 0
  2106  000980  8C01               	bsf	(__ccovbit13_31/(0+8))^0,__ccovbit13_31& (0+7),c	;volatile
  2107  000982  0012               	return		;funcret
  2108  000984                     __end_of_PRIOR_scheduler:
  2109                           	callstack 0
  2110  0000                     
  2111 ;; *************** function i1___wmul *****************
  2112 ;; Defined at:
  2113 ;;		line 15 in file "C:\Program Files\Microchip\xc8\v2.20\pic\sources\c99\common\Umul16.c"
  2114 ;; Parameters:    Size  Location     Type
  2115 ;;  multiplier      2   38[BANK0 ] unsigned int 
  2116 ;;  multiplicand    2   40[BANK0 ] unsigned int 
  2117 ;; Auto vars:     Size  Location     Type
  2118 ;;  product         2   42[BANK0 ] unsigned int 
  2119 ;; Return value:  Size  Location     Type
  2120 ;;                  2   38[BANK0 ] unsigned int 
  2121 ;; Registers used:
  2122 ;;		wreg, status,2, status,0, prodl, prodh
  2123 ;; Tracked objects:
  2124 ;;		On entry : 0/0
  2125 ;;		On exit  : 0/0
  2126 ;;		Unchanged: 0/0
  2127 ;; Data sizes:     COMRAM   BANK0   BANK1   BANK2   BANK3   BANK4   BANK5
  2128 ;;      Params:         0       4       0       0       0       0       0
  2129 ;;      Locals:         0       2       0       0       0       0       0
  2130 ;;      Temps:          0       0       0       0       0       0       0
  2131 ;;      Totals:         0       6       0       0       0       0       0
  2132 ;;Total ram usage:        6 bytes
  2133 ;; Hardware stack levels used:    1
  2134 ;; Hardware stack levels required when called:    4
  2135 ;; This function calls:
  2136 ;;		Nothing
  2137 ;; This function is called by:
  2138 ;;		_delay_task
  2139 ;;		_PRIOR_scheduler
  2140 ;; This function uses a non-reentrant model
  2141 ;;
  2142                           
  2143                           	psect	text12
  2144  000C90                     __ptext12:
  2145                           	callstack 0
  2146  000C90                     i1___wmul:
  2147                           	callstack 22
  2148  000C90  0100               	movlb	0	; () banked
  2149  000C92  51A6               	movf	i1___wmul@multiplier& (0+255),w,b
  2150  000C94  03A8               	mulwf	i1___wmul@multiplicand& (0+255),b
  2151  000C96  CFF3 F0AA          	movff	prodl,i1___wmul@product
  2152  000C9A  CFF4 F0AB          	movff	prodh,i1___wmul@product+1
  2153  000C9E  51A6               	movf	i1___wmul@multiplier& (0+255),w,b
  2154  000CA0  03A9               	mulwf	(i1___wmul@multiplicand+1)& (0+255),b
  2155  000CA2  50F3               	movf	243,w,c
  2156  000CA4  27AB               	addwf	(i1___wmul@product+1)& (0+255),f,b
  2157  000CA6  51A7               	movf	(i1___wmul@multiplier+1)& (0+255),w,b
  2158  000CA8  03A8               	mulwf	i1___wmul@multiplicand& (0+255),b
  2159  000CAA  50F3               	movf	243,w,c
  2160  000CAC  27AB               	addwf	(i1___wmul@product+1)& (0+255),f,b
  2161  000CAE                     
  2162                           ; BSR set to: 0
  2163  000CAE  C0AA  F0A6         	movff	i1___wmul@product,?i1___wmul
  2164  000CB2  C0AB  F0A7         	movff	i1___wmul@product+1,?i1___wmul+1
  2165  000CB6                     
  2166                           ; BSR set to: 0
  2167  000CB6  0012               	return		;funcret
  2168  000CB8                     __end_ofi1___wmul:
  2169                           	callstack 0
  2170                           
  2171 ;; *************** function _isr_INTERRUPTS *****************
  2172 ;; Defined at:
  2173 ;;		line 10 in file "kernel.c"
  2174 ;; Parameters:    Size  Location     Type
  2175 ;;		None
  2176 ;; Auto vars:     Size  Location     Type
  2177 ;;  task_pos        2   35[COMRAM] unsigned int 
  2178 ;;  p_context       2   29[COMRAM] unsigned int 
  2179 ;;  task_pos        2   33[COMRAM] unsigned int 
  2180 ;;  p_context       2   27[COMRAM] unsigned int 
  2181 ;;  i               2   31[COMRAM] int 
  2182 ;; Return value:  Size  Location     Type
  2183 ;;                  1    wreg      void 
  2184 ;; Registers used:
  2185 ;;		wreg, fsr2l, fsr2h, status,2, status,0, prodl, prodh, cstack
  2186 ;; Tracked objects:
  2187 ;;		On entry : 0/0
  2188 ;;		On exit  : 0/0
  2189 ;;		Unchanged: 0/0
  2190 ;; Data sizes:     COMRAM   BANK0   BANK1   BANK2   BANK3   BANK4   BANK5
  2191 ;;      Params:         0       0       0       0       0       0       0
  2192 ;;      Locals:        10       0       0       0       0       0       0
  2193 ;;      Temps:          7       0       0       0       0       0       0
  2194 ;;      Totals:        17       0       0       0       0       0       0
  2195 ;;Total ram usage:       17 bytes
  2196 ;; Hardware stack levels used:    1
  2197 ;; Hardware stack levels required when called:    3
  2198 ;; This function calls:
  2199 ;;		i2___wmul
  2200 ;;		i2_scheduler
  2201 ;; This function is called by:
  2202 ;;		Interrupt level 2
  2203 ;; This function uses a non-reentrant model
  2204 ;;
  2205                           
  2206                           	psect	intcode
  2207  000008                     __pintcode:
  2208                           	callstack 0
  2209  000008                     _isr_INTERRUPTS:
  2210                           	callstack 20
  2211                           
  2212                           ; BSR set to: 0
  2213                           ;incstack = 0
  2214  000008  822D               	bsf	int$flags,1,c	;set compiler interrupt flag (level 2)
  2215  00000A  ED09  F000         	call	int_func,f	;refresh shadow registers
  2216                           
  2217                           	psect	intcode_body
  2218  000012                     __pintcode_body:
  2219                           	callstack 20
  2220  000012                     int_func:
  2221                           	callstack 20
  2222  000012  0006               	pop		; remove dummy address from shadow register refresh
  2223  000014  CFD9 F01D          	movff	fsr2l,??_isr_INTERRUPTS+3
  2224  000018  CFDA F01E          	movff	fsr2h,??_isr_INTERRUPTS+4
  2225  00001C  CFF3 F01F          	movff	prodl,??_isr_INTERRUPTS+5
  2226  000020  CFF4 F020          	movff	prodh,??_isr_INTERRUPTS+6
  2227  000024                     
  2228                           ;kernel.c: 13:    if (INTCONbits.INT0IF) {
  2229  000024  A2F2               	btfss	242,1,c	;volatile
  2230  000026  EF17  F000         	goto	i2u42_41
  2231  00002A  EF19  F000         	goto	i2u42_40
  2232  00002E                     i2u42_41:
  2233  00002E  EF1D  F000         	goto	i2l82
  2234  000032                     i2u42_40:
  2235  000032                     __ccov17_end_blk0:
  2236                           	callstack 20
  2237  000032                     __ccov18_start_blk1:
  2238                           	callstack 20
  2239  000032  8E04               	bsf	(__ccovbit1_6/(0+8))^0,__ccovbit1_6& (0+7),c	;volatile
  2240                           
  2241                           ;kernel.c: 14:       INTCONbits.INT0IF = 0;
  2242  000034  92F2               	bcf	242,1,c	;volatile
  2243                           
  2244                           ;kernel.c: 15:    }
  2245  000036  EF57  F002         	goto	i2l103
  2246  00003A                     __ccov18_end_blk1:
  2247                           	callstack 20
  2248  00003A                     __ccov19_start_blk2:
  2249                           	callstack 20
  2250  00003A                     i2l82:
  2251  00003A  8C04               	bsf	(__ccovbit2_7/(0+8))^0,__ccovbit2_7& (0+7),c	;volatile
  2252  00003C  A4F2               	btfss	242,2,c	;volatile
  2253  00003E  EF23  F000         	goto	i2u43_41
  2254  000042  EF25  F000         	goto	i2u43_40
  2255  000046                     i2u43_41:
  2256  000046  EF57  F002         	goto	i2l103
  2257  00004A                     i2u43_40:
  2258  00004A                     __ccov19_end_blk2:
  2259                           	callstack 20
  2260  00004A                     __ccov20_start_blk3:
  2261                           	callstack 20
  2262  00004A                     
  2263                           ;kernel.c: 17:       INTCONbits.TMR0IF = 0;
  2264  00004A  94F2               	bcf	242,2,c	;volatile
  2265  00004C                     __ccov20_end_blk3:
  2266                           	callstack 20
  2267  00004C                     __ccov21_start_blk4:
  2268                           	callstack 20
  2269  00004C                     
  2270                           ;kernel.c: 18:       TMR0 = 64;
  2271  00004C  0E00               	movlw	0
  2272  00004E  6ED7               	movwf	215,c	;volatile
  2273  000050  0E40               	movlw	64
  2274  000052  6ED6               	movwf	214,c	;volatile
  2275                           
  2276                           ;kernel.c: 21:       int i;;kernel.c: 22:       for (i = 0; i < ready_queue.tasks_instal
      +                          led; i++) {
  2277  000054  0E00               	movlw	0
  2278  000056  6E26               	movwf	(isr_INTERRUPTS@i+1)^0,c
  2279  000058  0E00               	movlw	0
  2280  00005A  6E25               	movwf	isr_INTERRUPTS@i^0,c
  2281  00005C  EF8C  F000         	goto	i2l1254
  2282  000060                     __ccov21_end_blk4:
  2283                           	callstack 20
  2284  000060                     __ccov22_start_blk6:
  2285                           	callstack 20
  2286  000060                     i2l1246:
  2287                           
  2288                           ;kernel.c: 23:          if (ready_queue.tasks_list[i].delay_waiting > 0) {
  2289  000060  C025  F006         	movff	isr_INTERRUPTS@i,i2___wmul@multiplier
  2290  000064  C026  F007         	movff	isr_INTERRUPTS@i+1,i2___wmul@multiplier+1
  2291  000068  0E00               	movlw	0
  2292  00006A  6E09               	movwf	(i2___wmul@multiplicand+1)^0,c
  2293  00006C  0E74               	movlw	116
  2294  00006E  6E08               	movwf	i2___wmul@multiplicand^0,c
  2295  000070  EC5C  F006         	call	i2___wmul	;wreg free
  2296  000074  0EF2               	movlw	low (_ready_queue+114)
  2297  000076  2406               	addwf	?i2___wmul^0,w,c
  2298  000078  6ED9               	movwf	fsr2l,c
  2299  00007A  0E01               	movlw	high (_ready_queue+114)
  2300  00007C  2007               	addwfc	(?i2___wmul+1)^0,w,c
  2301  00007E  6EDA               	movwf	fsr2h,c
  2302  000080  50DE               	movf	postinc2,w,c
  2303  000082  10DE               	iorwf	postinc2,w,c
  2304  000084  B4D8               	btfsc	status,2,c
  2305  000086  EF47  F000         	goto	i2u44_41
  2306  00008A  EF49  F000         	goto	i2u44_40
  2307  00008E                     i2u44_41:
  2308  00008E  EF89  F000         	goto	i2l1252
  2309  000092                     i2u44_40:
  2310  000092                     __ccov22_end_blk6:
  2311                           	callstack 20
  2312  000092                     __ccov23_start_blk7:
  2313                           	callstack 20
  2314  000092  8A04               	bsf	(__ccovbit7_8/(0+8))^0,__ccovbit7_8& (0+7),c	;volatile
  2315                           
  2316                           ;kernel.c: 24:             ready_queue.tasks_list[i].delay_waiting -= 1;
  2317  000094  C025  F006         	movff	isr_INTERRUPTS@i,i2___wmul@multiplier
  2318  000098  C026  F007         	movff	isr_INTERRUPTS@i+1,i2___wmul@multiplier+1
  2319  00009C  0E00               	movlw	0
  2320  00009E  6E09               	movwf	(i2___wmul@multiplicand+1)^0,c
  2321  0000A0  0E74               	movlw	116
  2322  0000A2  6E08               	movwf	i2___wmul@multiplicand^0,c
  2323  0000A4  EC5C  F006         	call	i2___wmul	;wreg free
  2324  0000A8  0EF2               	movlw	low (_ready_queue+114)
  2325  0000AA  2406               	addwf	?i2___wmul^0,w,c
  2326  0000AC  6ED9               	movwf	fsr2l,c
  2327  0000AE  0E01               	movlw	high (_ready_queue+114)
  2328  0000B0  2007               	addwfc	(?i2___wmul+1)^0,w,c
  2329  0000B2  6EDA               	movwf	fsr2h,c
  2330  0000B4  06DE               	decf	postinc2,f,c
  2331  0000B6  0E00               	movlw	0
  2332  0000B8  5ADD               	subwfb	postdec2,f,c
  2333                           
  2334                           ;kernel.c: 25:             if (ready_queue.tasks_list[i].delay_waiting == 0) {
  2335  0000BA  C025  F006         	movff	isr_INTERRUPTS@i,i2___wmul@multiplier
  2336  0000BE  C026  F007         	movff	isr_INTERRUPTS@i+1,i2___wmul@multiplier+1
  2337  0000C2  0E00               	movlw	0
  2338  0000C4  6E09               	movwf	(i2___wmul@multiplicand+1)^0,c
  2339  0000C6  0E74               	movlw	116
  2340  0000C8  6E08               	movwf	i2___wmul@multiplicand^0,c
  2341  0000CA  EC5C  F006         	call	i2___wmul	;wreg free
  2342  0000CE  0EF2               	movlw	low (_ready_queue+114)
  2343  0000D0  2406               	addwf	?i2___wmul^0,w,c
  2344  0000D2  6ED9               	movwf	fsr2l,c
  2345  0000D4  0E01               	movlw	high (_ready_queue+114)
  2346  0000D6  2007               	addwfc	(?i2___wmul+1)^0,w,c
  2347  0000D8  6EDA               	movwf	fsr2h,c
  2348  0000DA  50DE               	movf	postinc2,w,c
  2349  0000DC  10DE               	iorwf	postinc2,w,c
  2350  0000DE  A4D8               	btfss	status,2,c
  2351  0000E0  EF74  F000         	goto	i2u45_41
  2352  0000E4  EF76  F000         	goto	i2u45_40
  2353  0000E8                     i2u45_41:
  2354  0000E8  EF89  F000         	goto	i2l1252
  2355  0000EC                     i2u45_40:
  2356  0000EC                     __ccov23_end_blk7:
  2357                           	callstack 20
  2358  0000EC                     __ccov24_start_blk8:
  2359                           	callstack 20
  2360  0000EC  8804               	bsf	(__ccovbit8_9/(0+8))^0,__ccovbit8_9& (0+7),c	;volatile
  2361                           
  2362                           ;kernel.c: 26:                ready_queue.tasks_list[i].task_STATE = READY;
  2363  0000EE  C025  F006         	movff	isr_INTERRUPTS@i,i2___wmul@multiplier
  2364  0000F2  C026  F007         	movff	isr_INTERRUPTS@i+1,i2___wmul@multiplier+1
  2365  0000F6  0E00               	movlw	0
  2366  0000F8  6E09               	movwf	(i2___wmul@multiplicand+1)^0,c
  2367  0000FA  0E74               	movlw	116
  2368  0000FC  6E08               	movwf	i2___wmul@multiplicand^0,c
  2369  0000FE  EC5C  F006         	call	i2___wmul	;wreg free
  2370  000102  0EF1               	movlw	low (_ready_queue+113)
  2371  000104  2406               	addwf	?i2___wmul^0,w,c
  2372  000106  6ED9               	movwf	fsr2l,c
  2373  000108  0E01               	movlw	high (_ready_queue+113)
  2374  00010A  2007               	addwfc	(?i2___wmul+1)^0,w,c
  2375  00010C  6EDA               	movwf	fsr2h,c
  2376  00010E  0E00               	movlw	0
  2377  000110  6EDF               	movwf	indf2,c
  2378  000112                     __ccov24_end_blk8:
  2379                           	callstack 20
  2380  000112                     __ccov25_start_blk11:
  2381                           	callstack 20
  2382  000112                     i2l1252:
  2383  000112  8604               	bsf	(__ccovbit11_10/(0+8))^0,__ccovbit11_10& (0+7),c	;volatile
  2384                           
  2385                           ;kernel.c: 29:       }
  2386  000114  4A25               	infsnz	isr_INTERRUPTS@i^0,f,c
  2387  000116  2A26               	incf	(isr_INTERRUPTS@i+1)^0,f,c
  2388  000118                     __ccov25_end_blk11:
  2389                           	callstack 20
  2390  000118                     __ccov26_start_blk13:
  2391                           	callstack 20
  2392  000118                     i2l1254:
  2393  000118  EE23  F050         	lfsr	2,_ready_queue+464
  2394  00011C  50DE               	movf	postinc2,w,c
  2395  00011E  5C25               	subwf	isr_INTERRUPTS@i^0,w,c
  2396  000120  50DE               	movf	postinc2,w,c
  2397  000122  5826               	subwfb	(isr_INTERRUPTS@i+1)^0,w,c
  2398  000124  A0D8               	btfss	status,0,c
  2399  000126  EF97  F000         	goto	i2u46_41
  2400  00012A  EF99  F000         	goto	i2u46_40
  2401  00012E                     i2u46_41:
  2402  00012E  EF30  F000         	goto	i2l1246
  2403  000132                     i2u46_40:
  2404  000132                     __ccov26_end_blk13:
  2405                           	callstack 20
  2406  000132                     __ccov27_start_blk15:
  2407                           	callstack 20
  2408  000132                     
  2409                           ;kernel.c: 31:       rr_quantum_control -= 1;
  2410  000132  062B               	decf	_rr_quantum_control^0,f,c
  2411  000134  A0D8               	btfss	status,0,c
  2412  000136  062C               	decf	(_rr_quantum_control+1)^0,f,c
  2413  000138                     __ccov27_end_blk15:
  2414                           	callstack 20
  2415  000138                     __ccov28_start_blk16:
  2416                           	callstack 20
  2417  000138  8404               	bsf	(__ccovbit16_11/(0+8))^0,__ccovbit16_11& (0+7),c	;volatile
  2418                           
  2419                           ;kernel.c: 32:       if (rr_quantum_control == 0) {
  2420  00013A  502B               	movf	_rr_quantum_control^0,w,c
  2421  00013C  102C               	iorwf	(_rr_quantum_control+1)^0,w,c
  2422  00013E  A4D8               	btfss	status,2,c
  2423  000140  EFA4  F000         	goto	i2u47_41
  2424  000144  EFA6  F000         	goto	i2u47_40
  2425  000148                     i2u47_41:
  2426  000148  EF57  F002         	goto	i2l103
  2427  00014C                     i2u47_40:
  2428  00014C                     __ccov28_end_blk16:
  2429                           	callstack 20
  2430  00014C                     __ccov29_start_blk17:
  2431                           	callstack 20
  2432  00014C                     
  2433                           ;kernel.c: 33:          rr_quantum_control = 8;
  2434  00014C  0E00               	movlw	0
  2435  00014E  6E2C               	movwf	(_rr_quantum_control+1)^0,c
  2436  000150  0E08               	movlw	8
  2437  000152  6E2B               	movwf	_rr_quantum_control^0,c
  2438                           
  2439                           ;kernel.c: 35:          { u_int p_context = 0, task_pos = ready_queue.task_running;do { 
      +                          INTCONbits.GIE = 0; if (ready_queue.tasks_list[task_pos].task_STATE == RUNNING) { ready_
      +                          queue.tasks_list[task_pos].task_BSR_reg = BSR; ready_queue.tasks_list[task_pos].task_WOR
      +                          K_reg = WREG; ready_queue.tasks_list[task_pos].task_STATUS_reg = STATUS; do { ready_queu
      +                          e.tasks_list[task_pos].task_CONTEXT[p_context] = TOS; __asm("POP"); p_context += 1; } wh
      +                          ile (STKPTR); ready_queue.tasks_list[task_pos].task_stack_real_size = p_context; ready_q
      +                          ueue.tasks_list[task_pos].task_STATE = READY; } INTCONbits.GIE = 1; } while(0); };
  2440  000154  0E00               	movlw	0
  2441  000156  6E22               	movwf	(isr_INTERRUPTS@p_context+1)^0,c
  2442  000158  0E00               	movlw	0
  2443  00015A  6E21               	movwf	isr_INTERRUPTS@p_context^0,c
  2444  00015C                     __ccov29_end_blk17:
  2445                           	callstack 20
  2446  00015C                     __ccov30_start_blk18:
  2447                           	callstack 20
  2448  00015C  C352  F027         	movff	_ready_queue+466,isr_INTERRUPTS@task_pos
  2449  000160  C353  F028         	movff	_ready_queue+467,isr_INTERRUPTS@task_pos+1
  2450  000164                     __ccov30_end_blk18:
  2451                           	callstack 20
  2452  000164                     __ccov31_start_blk20:
  2453                           	callstack 20
  2454  000164  9EF2               	bcf	242,7,c	;volatile
  2455  000166                     __ccov31_end_blk20:
  2456                           	callstack 20
  2457  000166                     __ccov32_start_blk21:
  2458                           	callstack 20
  2459  000166  C027  F006         	movff	isr_INTERRUPTS@task_pos,i2___wmul@multiplier
  2460  00016A  C028  F007         	movff	isr_INTERRUPTS@task_pos+1,i2___wmul@multiplier+1
  2461  00016E  0E00               	movlw	0
  2462  000170  6E09               	movwf	(i2___wmul@multiplicand+1)^0,c
  2463  000172  0E74               	movlw	116
  2464  000174  6E08               	movwf	i2___wmul@multiplicand^0,c
  2465  000176  EC5C  F006         	call	i2___wmul	;wreg free
  2466  00017A  0EF1               	movlw	low (_ready_queue+113)
  2467  00017C  2406               	addwf	?i2___wmul^0,w,c
  2468  00017E  6ED9               	movwf	fsr2l,c
  2469  000180  0E01               	movlw	high (_ready_queue+113)
  2470  000182  2007               	addwfc	(?i2___wmul+1)^0,w,c
  2471  000184  6EDA               	movwf	fsr2h,c
  2472  000186  04DE               	decf	postinc2,w,c
  2473  000188  A4D8               	btfss	status,2,c
  2474  00018A  EFC9  F000         	goto	i2u48_41
  2475  00018E  EFCB  F000         	goto	i2u48_40
  2476  000192                     i2u48_41:
  2477  000192  EF77  F001         	goto	i2l1276
  2478  000196                     i2u48_40:
  2479  000196                     __ccov32_end_blk21:
  2480                           	callstack 20
  2481  000196                     __ccov33_start_blk22:
  2482                           	callstack 20
  2483  000196  50E0               	movf	224,w,c	;volatile
  2484  000198  6E1A               	movwf	??_isr_INTERRUPTS^0,c
  2485  00019A  6A1B               	clrf	(??_isr_INTERRUPTS+1)^0,c
  2486  00019C  6A1C               	clrf	(??_isr_INTERRUPTS+2)^0,c
  2487  00019E  C027  F006         	movff	isr_INTERRUPTS@task_pos,i2___wmul@multiplier
  2488  0001A2  C028  F007         	movff	isr_INTERRUPTS@task_pos+1,i2___wmul@multiplier+1
  2489  0001A6  0E00               	movlw	0
  2490  0001A8  6E09               	movwf	(i2___wmul@multiplicand+1)^0,c
  2491  0001AA  0E74               	movlw	116
  2492  0001AC  6E08               	movwf	i2___wmul@multiplicand^0,c
  2493  0001AE  EC5C  F006         	call	i2___wmul	;wreg free
  2494  0001B2  0EE6               	movlw	low (_ready_queue+102)
  2495  0001B4  2406               	addwf	?i2___wmul^0,w,c
  2496  0001B6  6ED9               	movwf	fsr2l,c
  2497  0001B8  0E01               	movlw	high (_ready_queue+102)
  2498  0001BA  2007               	addwfc	(?i2___wmul+1)^0,w,c
  2499  0001BC  6EDA               	movwf	fsr2h,c
  2500  0001BE  C01A  FFDE         	movff	??_isr_INTERRUPTS,postinc2
  2501  0001C2  C01B  FFDE         	movff	??_isr_INTERRUPTS+1,postinc2
  2502  0001C6  C01C  FFDE         	movff	??_isr_INTERRUPTS+2,postinc2
  2503  0001CA  6E1A               	movwf	??_isr_INTERRUPTS^0,c
  2504  0001CC  6A1B               	clrf	(??_isr_INTERRUPTS+1)^0,c
  2505  0001CE  6A1C               	clrf	(??_isr_INTERRUPTS+2)^0,c
  2506  0001D0  C027  F006         	movff	isr_INTERRUPTS@task_pos,i2___wmul@multiplier
  2507  0001D4  C028  F007         	movff	isr_INTERRUPTS@task_pos+1,i2___wmul@multiplier+1
  2508  0001D8  0E00               	movlw	0
  2509  0001DA  6E09               	movwf	(i2___wmul@multiplicand+1)^0,c
  2510  0001DC  0E74               	movlw	116
  2511  0001DE  6E08               	movwf	i2___wmul@multiplicand^0,c
  2512  0001E0  EC5C  F006         	call	i2___wmul	;wreg free
  2513  0001E4  0EE9               	movlw	low (_ready_queue+105)
  2514  0001E6  2406               	addwf	?i2___wmul^0,w,c
  2515  0001E8  6ED9               	movwf	fsr2l,c
  2516  0001EA  0E01               	movlw	high (_ready_queue+105)
  2517  0001EC  2007               	addwfc	(?i2___wmul+1)^0,w,c
  2518  0001EE  6EDA               	movwf	fsr2h,c
  2519  0001F0  C01A  FFDE         	movff	??_isr_INTERRUPTS,postinc2
  2520  0001F4  C01B  FFDE         	movff	??_isr_INTERRUPTS+1,postinc2
  2521  0001F8  C01C  FFDE         	movff	??_isr_INTERRUPTS+2,postinc2
  2522  0001FC  50D8               	movf	216,w,c	;volatile
  2523  0001FE  6E1A               	movwf	??_isr_INTERRUPTS^0,c
  2524  000200  6A1B               	clrf	(??_isr_INTERRUPTS+1)^0,c
  2525  000202  6A1C               	clrf	(??_isr_INTERRUPTS+2)^0,c
  2526  000204  C027  F006         	movff	isr_INTERRUPTS@task_pos,i2___wmul@multiplier
  2527  000208  C028  F007         	movff	isr_INTERRUPTS@task_pos+1,i2___wmul@multiplier+1
  2528  00020C  0E00               	movlw	0
  2529  00020E  6E09               	movwf	(i2___wmul@multiplicand+1)^0,c
  2530  000210  0E74               	movlw	116
  2531  000212  6E08               	movwf	i2___wmul@multiplicand^0,c
  2532  000214  EC5C  F006         	call	i2___wmul	;wreg free
  2533  000218  0EEC               	movlw	low (_ready_queue+108)
  2534  00021A  2406               	addwf	?i2___wmul^0,w,c
  2535  00021C  6ED9               	movwf	fsr2l,c
  2536  00021E  0E01               	movlw	high (_ready_queue+108)
  2537  000220  2007               	addwfc	(?i2___wmul+1)^0,w,c
  2538  000222  6EDA               	movwf	fsr2h,c
  2539  000224  C01A  FFDE         	movff	??_isr_INTERRUPTS,postinc2
  2540  000228  C01B  FFDE         	movff	??_isr_INTERRUPTS+1,postinc2
  2541  00022C  C01C  FFDE         	movff	??_isr_INTERRUPTS+2,postinc2
  2542  000230                     __ccov33_end_blk22:
  2543                           	callstack 20
  2544  000230                     __ccov34_start_blk23:
  2545                           	callstack 20
  2546  000230                     i2l93:
  2547  000230  C027  F006         	movff	isr_INTERRUPTS@task_pos,i2___wmul@multiplier
  2548  000234  C028  F007         	movff	isr_INTERRUPTS@task_pos+1,i2___wmul@multiplier+1
  2549  000238  0E00               	movlw	0
  2550  00023A  6E09               	movwf	(i2___wmul@multiplicand+1)^0,c
  2551  00023C  0E74               	movlw	116
  2552  00023E  6E08               	movwf	i2___wmul@multiplicand^0,c
  2553  000240  EC5C  F006         	call	i2___wmul	;wreg free
  2554  000244  0E80               	movlw	low _ready_queue
  2555  000246  6E1A               	movwf	??_isr_INTERRUPTS^0,c
  2556  000248  0E01               	movlw	high _ready_queue
  2557  00024A  6E1B               	movwf	(??_isr_INTERRUPTS+1)^0,c
  2558  00024C  0E06               	movlw	6
  2559  00024E  261A               	addwf	??_isr_INTERRUPTS^0,f,c
  2560  000250  0E00               	movlw	0
  2561  000252  221B               	addwfc	(??_isr_INTERRUPTS+1)^0,f,c
  2562  000254  5006               	movf	?i2___wmul^0,w,c
  2563  000256  261A               	addwf	??_isr_INTERRUPTS^0,f,c
  2564  000258  5007               	movf	(?i2___wmul+1)^0,w,c
  2565  00025A  221B               	addwfc	(??_isr_INTERRUPTS+1)^0,f,c
  2566  00025C  C021  F006         	movff	isr_INTERRUPTS@p_context,i2___wmul@multiplier
  2567  000260  C022  F007         	movff	isr_INTERRUPTS@p_context+1,i2___wmul@multiplier+1
  2568  000264  0E00               	movlw	0
  2569  000266  6E09               	movwf	(i2___wmul@multiplicand+1)^0,c
  2570  000268  0E03               	movlw	3
  2571  00026A  6E08               	movwf	i2___wmul@multiplicand^0,c
  2572  00026C  EC5C  F006         	call	i2___wmul	;wreg free
  2573  000270  5006               	movf	?i2___wmul^0,w,c
  2574  000272  241A               	addwf	??_isr_INTERRUPTS^0,w,c
  2575  000274  6ED9               	movwf	fsr2l,c
  2576  000276  5007               	movf	(?i2___wmul+1)^0,w,c
  2577  000278  201B               	addwfc	(??_isr_INTERRUPTS+1)^0,w,c
  2578  00027A  6EDA               	movwf	fsr2h,c
  2579  00027C  CFFD FFDE          	movff	tosl,postinc2	;volatile
  2580  000280  CFFE FFDE          	movff	tosh,postinc2	;volatile
  2581  000284  CFFF FFDE          	movff	tosu,postinc2	;volatile
  2582  000288  0006               	pop		;# 
  2583  00028A                     __ccov34_end_blk23:
  2584                           	callstack 20
  2585  00028A                     __ccov35_start_blk24:
  2586                           	callstack 20
  2587  00028A  4A21               	infsnz	isr_INTERRUPTS@p_context^0,f,c
  2588  00028C  2A22               	incf	(isr_INTERRUPTS@p_context+1)^0,f,c
  2589  00028E                     __ccov35_end_blk24:
  2590                           	callstack 20
  2591  00028E                     __ccov36_start_blk25:
  2592                           	callstack 20
  2593  00028E  8204               	bsf	(__ccovbit25_12/(0+8))^0,__ccovbit25_12& (0+7),c	;volatile
  2594  000290  50FC               	movf	252,w,c	;volatile
  2595  000292  A4D8               	btfss	status,2,c
  2596  000294  EF4E  F001         	goto	i2u49_41
  2597  000298  EF50  F001         	goto	i2u49_40
  2598  00029C                     i2u49_41:
  2599  00029C  EF18  F001         	goto	i2l93
  2600  0002A0                     i2u49_40:
  2601  0002A0                     __ccov36_end_blk25:
  2602                           	callstack 20
  2603  0002A0                     __ccov37_start_blk27:
  2604                           	callstack 20
  2605  0002A0  8004               	bsf	(__ccovbit27_13/(0+8))^0,__ccovbit27_13& (0+7),c	;volatile
  2606  0002A2  C027  F006         	movff	isr_INTERRUPTS@task_pos,i2___wmul@multiplier
  2607  0002A6  C028  F007         	movff	isr_INTERRUPTS@task_pos+1,i2___wmul@multiplier+1
  2608  0002AA  0E00               	movlw	0
  2609  0002AC  6E09               	movwf	(i2___wmul@multiplicand+1)^0,c
  2610  0002AE  0E74               	movlw	116
  2611  0002B0  6E08               	movwf	i2___wmul@multiplicand^0,c
  2612  0002B2  EC5C  F006         	call	i2___wmul	;wreg free
  2613  0002B6  0EEF               	movlw	low (_ready_queue+111)
  2614  0002B8  2406               	addwf	?i2___wmul^0,w,c
  2615  0002BA  6ED9               	movwf	fsr2l,c
  2616  0002BC  0E01               	movlw	high (_ready_queue+111)
  2617  0002BE  2007               	addwfc	(?i2___wmul+1)^0,w,c
  2618  0002C0  6EDA               	movwf	fsr2h,c
  2619  0002C2  C021  FFDE         	movff	isr_INTERRUPTS@p_context,postinc2
  2620  0002C6  C022  FFDD         	movff	isr_INTERRUPTS@p_context+1,postdec2
  2621  0002CA  C027  F006         	movff	isr_INTERRUPTS@task_pos,i2___wmul@multiplier
  2622  0002CE  C028  F007         	movff	isr_INTERRUPTS@task_pos+1,i2___wmul@multiplier+1
  2623  0002D2  0E00               	movlw	0
  2624  0002D4  6E09               	movwf	(i2___wmul@multiplicand+1)^0,c
  2625  0002D6  0E74               	movlw	116
  2626  0002D8  6E08               	movwf	i2___wmul@multiplicand^0,c
  2627  0002DA  EC5C  F006         	call	i2___wmul	;wreg free
  2628  0002DE  0EF1               	movlw	low (_ready_queue+113)
  2629  0002E0  2406               	addwf	?i2___wmul^0,w,c
  2630  0002E2  6ED9               	movwf	fsr2l,c
  2631  0002E4  0E01               	movlw	high (_ready_queue+113)
  2632  0002E6  2007               	addwfc	(?i2___wmul+1)^0,w,c
  2633  0002E8  6EDA               	movwf	fsr2h,c
  2634  0002EA  0E00               	movlw	0
  2635  0002EC  6EDF               	movwf	indf2,c
  2636  0002EE                     __ccov37_end_blk27:
  2637                           	callstack 20
  2638  0002EE                     __ccov38_start_blk29:
  2639                           	callstack 20
  2640  0002EE                     i2l1276:
  2641  0002EE  8EF2               	bsf	242,7,c	;volatile
  2642  0002F0                     __ccov38_end_blk29:
  2643                           	callstack 20
  2644  0002F0                     __ccov39_start_blk30:
  2645                           	callstack 20
  2646  0002F0                     
  2647                           ;kernel.c: 37:          ready_queue.task_running = scheduler();
  2648  0002F0  EC7B  F006         	call	i2_scheduler	;wreg free
  2649  0002F4  C016  F352         	movff	?i2_scheduler,_ready_queue+466
  2650  0002F8  C017  F353         	movff	?i2_scheduler+1,_ready_queue+467
  2651  0002FC                     __ccov39_end_blk30:
  2652                           	callstack 20
  2653  0002FC                     __ccov40_start_blk31:
  2654                           	callstack 20
  2655  0002FC                     
  2656                           ;kernel.c: 39:          { u_int task_pos = ready_queue.task_running;u_int p_context = re
      +                          ady_queue.tasks_list[task_pos].task_stack_real_size;do { INTCONbits.GIE = 0; STKPTR = 0;
      +                           if (ready_queue.tasks_list[task_pos].task_stack_real_size > 0) { BSR = ready_queue.task
      +                          s_list[task_pos].task_BSR_reg; WREG = ready_queue.tasks_list[task_pos].task_WORK_reg; ST
      +                          ATUS = ready_queue.tasks_list[task_pos].task_STATUS_reg; while (p_context) { p_context -
      +                          = 1; __asm("PUSH"); TOS = ready_queue.tasks_list[task_pos].task_CONTEXT[p_context]; } } 
      +                          else { __asm("PUSH"); TOS = ready_queue.tasks_list[task_pos].task_PTR; } ready_queue.tas
      +                          ks_list[task_pos].task_STATE = RUNNING; INTCONbits.GIE = 1; } while(0); };
  2657  0002FC  C352  F029         	movff	_ready_queue+466,isr_INTERRUPTS@task_pos_429
  2658  000300  C353  F02A         	movff	_ready_queue+467,isr_INTERRUPTS@task_pos_429+1
  2659  000304  C029  F006         	movff	isr_INTERRUPTS@task_pos_429,i2___wmul@multiplier
  2660  000308  C02A  F007         	movff	isr_INTERRUPTS@task_pos_429+1,i2___wmul@multiplier+1
  2661  00030C  0E00               	movlw	0
  2662  00030E  6E09               	movwf	(i2___wmul@multiplicand+1)^0,c
  2663  000310  0E74               	movlw	116
  2664  000312  6E08               	movwf	i2___wmul@multiplicand^0,c
  2665  000314  EC5C  F006         	call	i2___wmul	;wreg free
  2666  000318  0EEF               	movlw	low (_ready_queue+111)
  2667  00031A  2406               	addwf	?i2___wmul^0,w,c
  2668  00031C  6ED9               	movwf	fsr2l,c
  2669  00031E  0E01               	movlw	high (_ready_queue+111)
  2670  000320  2007               	addwfc	(?i2___wmul+1)^0,w,c
  2671  000322  6EDA               	movwf	fsr2h,c
  2672  000324  CFDE F023          	movff	postinc2,isr_INTERRUPTS@p_context_430
  2673  000328  CFDD F024          	movff	postdec2,isr_INTERRUPTS@p_context_430+1
  2674  00032C                     __ccov40_end_blk31:
  2675                           	callstack 20
  2676  00032C                     __ccov41_start_blk33:
  2677                           	callstack 20
  2678  00032C  9EF2               	bcf	242,7,c	;volatile
  2679  00032E                     __ccov41_end_blk33:
  2680                           	callstack 20
  2681  00032E                     __ccov42_start_blk34:
  2682                           	callstack 20
  2683  00032E  0E00               	movlw	0
  2684  000330  6EFC               	movwf	252,c	;volatile
  2685  000332                     __ccov42_end_blk34:
  2686                           	callstack 20
  2687  000332                     __ccov43_start_blk35:
  2688                           	callstack 20
  2689  000332  C029  F006         	movff	isr_INTERRUPTS@task_pos_429,i2___wmul@multiplier
  2690  000336  C02A  F007         	movff	isr_INTERRUPTS@task_pos_429+1,i2___wmul@multiplier+1
  2691  00033A  0E00               	movlw	0
  2692  00033C  6E09               	movwf	(i2___wmul@multiplicand+1)^0,c
  2693  00033E  0E74               	movlw	116
  2694  000340  6E08               	movwf	i2___wmul@multiplicand^0,c
  2695  000342  EC5C  F006         	call	i2___wmul	;wreg free
  2696  000346  0EEF               	movlw	low (_ready_queue+111)
  2697  000348  2406               	addwf	?i2___wmul^0,w,c
  2698  00034A  6ED9               	movwf	fsr2l,c
  2699  00034C  0E01               	movlw	high (_ready_queue+111)
  2700  00034E  2007               	addwfc	(?i2___wmul+1)^0,w,c
  2701  000350  6EDA               	movwf	fsr2h,c
  2702  000352  50DE               	movf	postinc2,w,c
  2703  000354  10DE               	iorwf	postinc2,w,c
  2704  000356  B4D8               	btfsc	status,2,c
  2705  000358  EFB0  F001         	goto	i2u50_41
  2706  00035C  EFB2  F001         	goto	i2u50_40
  2707  000360                     i2u50_41:
  2708  000360  EF28  F002         	goto	i2l97
  2709  000364                     i2u50_40:
  2710  000364                     __ccov43_end_blk35:
  2711                           	callstack 20
  2712  000364                     __ccov44_start_blk36:
  2713                           	callstack 20
  2714  000364  C029  F006         	movff	isr_INTERRUPTS@task_pos_429,i2___wmul@multiplier
  2715  000368  C02A  F007         	movff	isr_INTERRUPTS@task_pos_429+1,i2___wmul@multiplier+1
  2716  00036C  0E00               	movlw	0
  2717  00036E  6E09               	movwf	(i2___wmul@multiplicand+1)^0,c
  2718  000370  0E74               	movlw	116
  2719  000372  6E08               	movwf	i2___wmul@multiplicand^0,c
  2720  000374  EC5C  F006         	call	i2___wmul	;wreg free
  2721  000378  0EE6               	movlw	low (_ready_queue+102)
  2722  00037A  2406               	addwf	?i2___wmul^0,w,c
  2723  00037C  6ED9               	movwf	fsr2l,c
  2724  00037E  0E01               	movlw	high (_ready_queue+102)
  2725  000380  2007               	addwfc	(?i2___wmul+1)^0,w,c
  2726  000382  6EDA               	movwf	fsr2h,c
  2727  000384  50DF               	movf	indf2,w,c
  2728  000386  6EE0               	movwf	224,c	;volatile
  2729  000388  C029  F006         	movff	isr_INTERRUPTS@task_pos_429,i2___wmul@multiplier
  2730  00038C  C02A  F007         	movff	isr_INTERRUPTS@task_pos_429+1,i2___wmul@multiplier+1
  2731  000390  0E00               	movlw	0
  2732  000392  6E09               	movwf	(i2___wmul@multiplicand+1)^0,c
  2733  000394  0E74               	movlw	116
  2734  000396  6E08               	movwf	i2___wmul@multiplicand^0,c
  2735  000398  EC5C  F006         	call	i2___wmul	;wreg free
  2736  00039C  0EE9               	movlw	low (_ready_queue+105)
  2737  00039E  2406               	addwf	?i2___wmul^0,w,c
  2738  0003A0  6ED9               	movwf	fsr2l,c
  2739  0003A2  0E01               	movlw	high (_ready_queue+105)
  2740  0003A4  2007               	addwfc	(?i2___wmul+1)^0,w,c
  2741  0003A6  6EDA               	movwf	fsr2h,c
  2742  0003A8  50DF               	movf	indf2,w,c
  2743  0003AA  6E1A               	movwf	??_isr_INTERRUPTS^0,c
  2744  0003AC  501A               	movf	??_isr_INTERRUPTS^0,w,c
  2745  0003AE  C029  F006         	movff	isr_INTERRUPTS@task_pos_429,i2___wmul@multiplier
  2746  0003B2  C02A  F007         	movff	isr_INTERRUPTS@task_pos_429+1,i2___wmul@multiplier+1
  2747  0003B6  0E00               	movlw	0
  2748  0003B8  6E09               	movwf	(i2___wmul@multiplicand+1)^0,c
  2749  0003BA  0E74               	movlw	116
  2750  0003BC  6E08               	movwf	i2___wmul@multiplicand^0,c
  2751  0003BE  EC5C  F006         	call	i2___wmul	;wreg free
  2752  0003C2  0EEC               	movlw	low (_ready_queue+108)
  2753  0003C4  2406               	addwf	?i2___wmul^0,w,c
  2754  0003C6  6ED9               	movwf	fsr2l,c
  2755  0003C8  0E01               	movlw	high (_ready_queue+108)
  2756  0003CA  2007               	addwfc	(?i2___wmul+1)^0,w,c
  2757  0003CC  6EDA               	movwf	fsr2h,c
  2758  0003CE  50DF               	movf	indf2,w,c
  2759  0003D0  6ED8               	movwf	216,c	;volatile
  2760  0003D2  EF1C  F002         	goto	i2l1292
  2761  0003D6                     __ccov44_end_blk36:
  2762                           	callstack 20
  2763  0003D6                     __ccov45_start_blk38:
  2764                           	callstack 20
  2765  0003D6                     i2l1288:
  2766  0003D6  0623               	decf	isr_INTERRUPTS@p_context_430^0,f,c
  2767  0003D8  A0D8               	btfss	status,0,c
  2768  0003DA  0624               	decf	(isr_INTERRUPTS@p_context_430+1)^0,f,c
  2769  0003DC  0005               	push		;# 
  2770  0003DE                     __ccov45_end_blk38:
  2771                           	callstack 20
  2772  0003DE                     __ccov46_start_blk39:
  2773                           	callstack 20
  2774  0003DE  8E03               	bsf	(__ccovbit39_14/(0+8))^0,__ccovbit39_14& (0+7),c	;volatile
  2775  0003E0  C029  F006         	movff	isr_INTERRUPTS@task_pos_429,i2___wmul@multiplier
  2776  0003E4  C02A  F007         	movff	isr_INTERRUPTS@task_pos_429+1,i2___wmul@multiplier+1
  2777  0003E8  0E00               	movlw	0
  2778  0003EA  6E09               	movwf	(i2___wmul@multiplicand+1)^0,c
  2779  0003EC  0E74               	movlw	116
  2780  0003EE  6E08               	movwf	i2___wmul@multiplicand^0,c
  2781  0003F0  EC5C  F006         	call	i2___wmul	;wreg free
  2782  0003F4  0E80               	movlw	low _ready_queue
  2783  0003F6  6E1A               	movwf	??_isr_INTERRUPTS^0,c
  2784  0003F8  0E01               	movlw	high _ready_queue
  2785  0003FA  6E1B               	movwf	(??_isr_INTERRUPTS+1)^0,c
  2786  0003FC  0E06               	movlw	6
  2787  0003FE  261A               	addwf	??_isr_INTERRUPTS^0,f,c
  2788  000400  0E00               	movlw	0
  2789  000402  221B               	addwfc	(??_isr_INTERRUPTS+1)^0,f,c
  2790  000404  5006               	movf	?i2___wmul^0,w,c
  2791  000406  261A               	addwf	??_isr_INTERRUPTS^0,f,c
  2792  000408  5007               	movf	(?i2___wmul+1)^0,w,c
  2793  00040A  221B               	addwfc	(??_isr_INTERRUPTS+1)^0,f,c
  2794  00040C  C023  F006         	movff	isr_INTERRUPTS@p_context_430,i2___wmul@multiplier
  2795  000410  C024  F007         	movff	isr_INTERRUPTS@p_context_430+1,i2___wmul@multiplier+1
  2796  000414  0E00               	movlw	0
  2797  000416  6E09               	movwf	(i2___wmul@multiplicand+1)^0,c
  2798  000418  0E03               	movlw	3
  2799  00041A  6E08               	movwf	i2___wmul@multiplicand^0,c
  2800  00041C  EC5C  F006         	call	i2___wmul	;wreg free
  2801  000420  5006               	movf	?i2___wmul^0,w,c
  2802  000422  241A               	addwf	??_isr_INTERRUPTS^0,w,c
  2803  000424  6ED9               	movwf	fsr2l,c
  2804  000426  5007               	movf	(?i2___wmul+1)^0,w,c
  2805  000428  201B               	addwfc	(??_isr_INTERRUPTS+1)^0,w,c
  2806  00042A  6EDA               	movwf	fsr2h,c
  2807  00042C  CFDE FFFD          	movff	postinc2,tosl	;volatile
  2808  000430  CFDE FFFE          	movff	postinc2,tosh	;volatile
  2809  000434  CFDD FFFF          	movff	postdec2,tosu	;volatile
  2810  000438                     __ccov46_end_blk39:
  2811                           	callstack 20
  2812  000438                     __ccov47_start_blk41:
  2813                           	callstack 20
  2814  000438                     i2l1292:
  2815  000438  8C03               	bsf	(__ccovbit41_15/(0+8))^0,__ccovbit41_15& (0+7),c	;volatile
  2816  00043A  5023               	movf	isr_INTERRUPTS@p_context_430^0,w,c
  2817  00043C  1024               	iorwf	(isr_INTERRUPTS@p_context_430+1)^0,w,c
  2818  00043E  A4D8               	btfss	status,2,c
  2819  000440  EF24  F002         	goto	i2u51_41
  2820  000444  EF26  F002         	goto	i2u51_40
  2821  000448                     i2u51_41:
  2822  000448  EFEB  F001         	goto	i2l1288
  2823  00044C                     i2u51_40:
  2824  00044C  EF43  F002         	goto	i2l101
  2825  000450                     __ccov47_end_blk41:
  2826                           	callstack 20
  2827  000450                     __ccov48_start_blk43:
  2828                           	callstack 20
  2829  000450                     i2l97:
  2830  000450  0005               	push		;# 
  2831  000452                     __ccov48_end_blk43:
  2832                           	callstack 20
  2833  000452                     __ccov49_start_blk44:
  2834                           	callstack 20
  2835  000452  8A03               	bsf	(__ccovbit44_16/(0+8))^0,__ccovbit44_16& (0+7),c	;volatile
  2836  000454  C029  F006         	movff	isr_INTERRUPTS@task_pos_429,i2___wmul@multiplier
  2837  000458  C02A  F007         	movff	isr_INTERRUPTS@task_pos_429+1,i2___wmul@multiplier+1
  2838  00045C  0E00               	movlw	0
  2839  00045E  6E09               	movwf	(i2___wmul@multiplicand+1)^0,c
  2840  000460  0E74               	movlw	116
  2841  000462  6E08               	movwf	i2___wmul@multiplicand^0,c
  2842  000464  EC5C  F006         	call	i2___wmul	;wreg free
  2843  000468  0E84               	movlw	low (_ready_queue+4)
  2844  00046A  2406               	addwf	?i2___wmul^0,w,c
  2845  00046C  6ED9               	movwf	fsr2l,c
  2846  00046E  0E01               	movlw	high (_ready_queue+4)
  2847  000470  2007               	addwfc	(?i2___wmul+1)^0,w,c
  2848  000472  6EDA               	movwf	fsr2h,c
  2849  000474  CFDE F01A          	movff	postinc2,??_isr_INTERRUPTS
  2850  000478  CFDD F01B          	movff	postdec2,??_isr_INTERRUPTS+1
  2851  00047C  C01A  FFFD         	movff	??_isr_INTERRUPTS,tosl	;volatile
  2852  000480  C01B  FFFE         	movff	??_isr_INTERRUPTS+1,tosh	;volatile
  2853  000484  6AFF               	clrf	255,c	;volatile
  2854  000486                     __ccov49_end_blk44:
  2855                           	callstack 20
  2856  000486                     __ccov50_start_blk45:
  2857                           	callstack 20
  2858  000486                     i2l101:
  2859  000486  C029  F006         	movff	isr_INTERRUPTS@task_pos_429,i2___wmul@multiplier
  2860  00048A  C02A  F007         	movff	isr_INTERRUPTS@task_pos_429+1,i2___wmul@multiplier+1
  2861  00048E  0E00               	movlw	0
  2862  000490  6E09               	movwf	(i2___wmul@multiplicand+1)^0,c
  2863  000492  0E74               	movlw	116
  2864  000494  6E08               	movwf	i2___wmul@multiplicand^0,c
  2865  000496  EC5C  F006         	call	i2___wmul	;wreg free
  2866  00049A  0EF1               	movlw	low (_ready_queue+113)
  2867  00049C  2406               	addwf	?i2___wmul^0,w,c
  2868  00049E  6ED9               	movwf	fsr2l,c
  2869  0004A0  0E01               	movlw	high (_ready_queue+113)
  2870  0004A2  2007               	addwfc	(?i2___wmul+1)^0,w,c
  2871  0004A4  6EDA               	movwf	fsr2h,c
  2872  0004A6  0E01               	movlw	1
  2873  0004A8  6EDF               	movwf	indf2,c
  2874  0004AA                     __ccov50_end_blk45:
  2875                           	callstack 20
  2876  0004AA                     __ccov51_start_blk46:
  2877                           	callstack 20
  2878  0004AA  8803               	bsf	(__ccovbit46_17/(0+8))^0,__ccovbit46_17& (0+7),c	;volatile
  2879  0004AC  8EF2               	bsf	242,7,c	;volatile
  2880  0004AE                     __ccov51_end_blk46:
  2881                           	callstack 20
  2882  0004AE                     __ccov52_start_blk51:
  2883                           	callstack 20
  2884  0004AE                     i2l103:
  2885  0004AE  8603               	bsf	(__ccovbit51_18/(0+8))^0,__ccovbit51_18& (0+7),c	;volatile
  2886  0004B0  C020  FFF4         	movff	??_isr_INTERRUPTS+6,prodh
  2887  0004B4  C01F  FFF3         	movff	??_isr_INTERRUPTS+5,prodl
  2888  0004B8  C01E  FFDA         	movff	??_isr_INTERRUPTS+4,fsr2h
  2889  0004BC  C01D  FFD9         	movff	??_isr_INTERRUPTS+3,fsr2l
  2890  0004C0  922D               	bcf	int$flags,1,c	;clear compiler interrupt flag (level 2)
  2891  0004C2  0011               	retfie		f
  2892  0004C4                     __end_of_isr_INTERRUPTS:
  2893                           	callstack 0
  2894  0000                     
  2895 ;; *************** function i2_scheduler *****************
  2896 ;; Defined at:
  2897 ;;		line 49 in file "scheduler.c"
  2898 ;; Parameters:    Size  Location     Type
  2899 ;;		None
  2900 ;; Auto vars:     Size  Location     Type
  2901 ;;  task_to_run     2   18[COMRAM] unsigned int 
  2902 ;; Return value:  Size  Location     Type
  2903 ;;                  2   16[COMRAM] unsigned int 
  2904 ;; Registers used:
  2905 ;;		wreg, fsr2l, fsr2h, status,2, status,0, prodl, prodh, cstack
  2906 ;; Tracked objects:
  2907 ;;		On entry : 0/0
  2908 ;;		On exit  : 0/0
  2909 ;;		Unchanged: 0/0
  2910 ;; Data sizes:     COMRAM   BANK0   BANK1   BANK2   BANK3   BANK4   BANK5
  2911 ;;      Params:         2       0       0       0       0       0       0
  2912 ;;      Locals:         2       0       0       0       0       0       0
  2913 ;;      Temps:          0       0       0       0       0       0       0
  2914 ;;      Totals:         4       0       0       0       0       0       0
  2915 ;;Total ram usage:        4 bytes
  2916 ;; Hardware stack levels used:    1
  2917 ;; Hardware stack levels required when called:    2
  2918 ;; This function calls:
  2919 ;;		i2_PRIOR_scheduler
  2920 ;; This function is called by:
  2921 ;;		_isr_INTERRUPTS
  2922 ;; This function uses a non-reentrant model
  2923 ;;
  2924                           
  2925                           	psect	text14
  2926  000CF6                     __ptext14:
  2927                           	callstack 0
  2928  000CF6                     i2_scheduler:
  2929                           	callstack 20
  2930                           
  2931                           ;incstack = 0
  2932  000CF6                     
  2933                           ;scheduler.c: 51:    u_int task_to_run;;scheduler.c: 56:    task_to_run = PRIOR_schedule
      +                          r();
  2934  000CF6  ECC2  F004         	call	i2_PRIOR_scheduler	;wreg free
  2935  000CFA  C00C  F018         	movff	?i2_PRIOR_scheduler,i2scheduler@task_to_run
  2936  000CFE  C00D  F019         	movff	?i2_PRIOR_scheduler+1,i2scheduler@task_to_run+1
  2937  000D02                     __ccov142_end_blk0:
  2938                           	callstack 20
  2939  000D02                     __ccov143_start_blk1:
  2940                           	callstack 20
  2941  000D02                     
  2942                           ;scheduler.c: 61:    return task_to_run;
  2943  000D02  C018  F016         	movff	i2scheduler@task_to_run,?i2_scheduler
  2944  000D06  C019  F017         	movff	i2scheduler@task_to_run+1,?i2_scheduler+1
  2945  000D0A                     __ccov143_end_blk1:
  2946                           	callstack 20
  2947  000D0A                     __ccov144_start_blk3:
  2948                           	callstack 20
  2949  000D0A  8001               	bsf	(__ccovbit3_37/(0+8))^0,__ccovbit3_37& (0+7),c	;volatile
  2950  000D0C  0012               	return		;funcret
  2951  000D0E                     __end_ofi2_scheduler:
  2952                           	callstack 0
  2953  0000                     
  2954 ;; *************** function i2_PRIOR_scheduler *****************
  2955 ;; Defined at:
  2956 ;;		line 19 in file "scheduler.c"
  2957 ;; Parameters:    Size  Location     Type
  2958 ;;		None
  2959 ;; Auto vars:     Size  Location     Type
  2960 ;;  y               2   14[COMRAM] unsigned int 
  2961 ;;  task_to_run     2   12[COMRAM] unsigned int 
  2962 ;;  menor_priori    2   10[COMRAM] unsigned int 
  2963 ;;  x               2    0        unsigned int 
  2964 ;; Return value:  Size  Location     Type
  2965 ;;                  2    6[COMRAM] unsigned int 
  2966 ;; Registers used:
  2967 ;;		wreg, fsr2l, fsr2h, status,2, status,0, prodl, prodh, cstack
  2968 ;; Tracked objects:
  2969 ;;		On entry : 0/0
  2970 ;;		On exit  : 0/0
  2971 ;;		Unchanged: 0/0
  2972 ;; Data sizes:     COMRAM   BANK0   BANK1   BANK2   BANK3   BANK4   BANK5
  2973 ;;      Params:         2       0       0       0       0       0       0
  2974 ;;      Locals:         6       0       0       0       0       0       0
  2975 ;;      Temps:          2       0       0       0       0       0       0
  2976 ;;      Totals:        10       0       0       0       0       0       0
  2977 ;;Total ram usage:       10 bytes
  2978 ;; Hardware stack levels used:    1
  2979 ;; Hardware stack levels required when called:    1
  2980 ;; This function calls:
  2981 ;;		i2___wmul
  2982 ;; This function is called by:
  2983 ;;		i2_scheduler
  2984 ;; This function uses a non-reentrant model
  2985 ;;
  2986                           
  2987                           	psect	text15
  2988  000984                     __ptext15:
  2989                           	callstack 0
  2990  000984                     i2_PRIOR_scheduler:
  2991                           	callstack 20
  2992                           
  2993                           ;incstack = 0
  2994  000984                     
  2995                           ;scheduler.c: 21:    u_int task_to_run, menor_prioridade;;scheduler.c: 25:    u_int x, y
      +                          ;;scheduler.c: 26:    task_to_run = 0;
  2996  000984  0E00               	movlw	0
  2997  000986  6E13               	movwf	(i2PRIOR_scheduler@task_to_run+1)^0,c
  2998  000988  0E00               	movlw	0
  2999  00098A  6E12               	movwf	i2PRIOR_scheduler@task_to_run^0,c
  3000  00098C                     __ccov131_end_blk0:
  3001                           	callstack 20
  3002  00098C                     __ccov132_start_blk1:
  3003                           	callstack 20
  3004  00098C                     
  3005                           ;scheduler.c: 27:    menor_prioridade = ready_queue.tasks_list[task_to_run].task_PRIOR;
  3006  00098C  0E00               	movlw	0
  3007  00098E  6E07               	movwf	(i2___wmul@multiplier+1)^0,c
  3008  000990  0E00               	movlw	0
  3009  000992  6E06               	movwf	i2___wmul@multiplier^0,c
  3010  000994  0E00               	movlw	0
  3011  000996  6E09               	movwf	(i2___wmul@multiplicand+1)^0,c
  3012  000998  0E74               	movlw	116
  3013  00099A  6E08               	movwf	i2___wmul@multiplicand^0,c
  3014  00099C  EC5C  F006         	call	i2___wmul	;wreg free
  3015  0009A0  0E82               	movlw	low (_ready_queue+2)
  3016  0009A2  2406               	addwf	?i2___wmul^0,w,c
  3017  0009A4  6ED9               	movwf	fsr2l,c
  3018  0009A6  0E01               	movlw	high (_ready_queue+2)
  3019  0009A8  2007               	addwfc	(?i2___wmul+1)^0,w,c
  3020  0009AA  6EDA               	movwf	fsr2h,c
  3021  0009AC  CFDE F010          	movff	postinc2,i2PRIOR_scheduler@menor_prioridade
  3022  0009B0  CFDD F011          	movff	postdec2,i2PRIOR_scheduler@menor_prioridade+1
  3023  0009B4                     __ccov132_end_blk1:
  3024                           	callstack 20
  3025  0009B4                     __ccov133_start_blk2:
  3026                           	callstack 20
  3027  0009B4                     
  3028                           ;scheduler.c: 28:    for (y = 1; y < ready_queue.tasks_installed; y++) {
  3029  0009B4  0E00               	movlw	0
  3030  0009B6  6E15               	movwf	(i2PRIOR_scheduler@y+1)^0,c
  3031  0009B8  0E01               	movlw	1
  3032  0009BA  6E14               	movwf	i2PRIOR_scheduler@y^0,c
  3033  0009BC  EF30  F005         	goto	i2l1146
  3034  0009C0                     __ccov133_end_blk2:
  3035                           	callstack 20
  3036  0009C0                     __ccov134_start_blk4:
  3037                           	callstack 20
  3038  0009C0                     i2l1136:
  3039                           
  3040                           ;scheduler.c: 29:        if ((ready_queue.tasks_list[y].task_PRIOR < menor_prioridade) &
      +                          &
  3041  0009C0  C014  F006         	movff	i2PRIOR_scheduler@y,i2___wmul@multiplier
  3042  0009C4  C015  F007         	movff	i2PRIOR_scheduler@y+1,i2___wmul@multiplier+1
  3043  0009C8  0E00               	movlw	0
  3044  0009CA  6E09               	movwf	(i2___wmul@multiplicand+1)^0,c
  3045  0009CC  0E74               	movlw	116
  3046  0009CE  6E08               	movwf	i2___wmul@multiplicand^0,c
  3047  0009D0  EC5C  F006         	call	i2___wmul	;wreg free
  3048  0009D4  0E82               	movlw	low (_ready_queue+2)
  3049  0009D6  2406               	addwf	?i2___wmul^0,w,c
  3050  0009D8  6ED9               	movwf	fsr2l,c
  3051  0009DA  0E01               	movlw	high (_ready_queue+2)
  3052  0009DC  2007               	addwfc	(?i2___wmul+1)^0,w,c
  3053  0009DE  6EDA               	movwf	fsr2h,c
  3054  0009E0  5010               	movf	i2PRIOR_scheduler@menor_prioridade^0,w,c
  3055  0009E2  5CDE               	subwf	postinc2,w,c
  3056  0009E4  5011               	movf	(i2PRIOR_scheduler@menor_prioridade+1)^0,w,c
  3057  0009E6  58DE               	subwfb	postinc2,w,c
  3058  0009E8  B0D8               	btfsc	status,0,c
  3059  0009EA  EFF9  F004         	goto	i2u31_41
  3060  0009EE  EFFB  F004         	goto	i2u31_40
  3061  0009F2                     i2u31_41:
  3062  0009F2  EF2D  F005         	goto	i2l1144
  3063  0009F6                     i2u31_40:
  3064  0009F6                     __ccov134_end_blk4:
  3065                           	callstack 20
  3066  0009F6                     __ccov135_start_blk5:
  3067                           	callstack 20
  3068  0009F6  8801               	bsf	(__ccovbit5_33/(0+8))^0,__ccovbit5_33& (0+7),c	;volatile
  3069  0009F8  C014  F006         	movff	i2PRIOR_scheduler@y,i2___wmul@multiplier
  3070  0009FC  C015  F007         	movff	i2PRIOR_scheduler@y+1,i2___wmul@multiplier+1
  3071  000A00  0E00               	movlw	0
  3072  000A02  6E09               	movwf	(i2___wmul@multiplicand+1)^0,c
  3073  000A04  0E74               	movlw	116
  3074  000A06  6E08               	movwf	i2___wmul@multiplicand^0,c
  3075  000A08  EC5C  F006         	call	i2___wmul	;wreg free
  3076  000A0C  0EF1               	movlw	low (_ready_queue+113)
  3077  000A0E  2406               	addwf	?i2___wmul^0,w,c
  3078  000A10  6ED9               	movwf	fsr2l,c
  3079  000A12  0E01               	movlw	high (_ready_queue+113)
  3080  000A14  2007               	addwfc	(?i2___wmul+1)^0,w,c
  3081  000A16  6EDA               	movwf	fsr2h,c
  3082  000A18  50DF               	movf	indf2,w,c
  3083  000A1A  A4D8               	btfss	status,2,c
  3084  000A1C  EF12  F005         	goto	i2u32_41
  3085  000A20  EF14  F005         	goto	i2u32_40
  3086  000A24                     i2u32_41:
  3087  000A24  EF2D  F005         	goto	i2l1144
  3088  000A28                     i2u32_40:
  3089  000A28                     __ccov135_end_blk5:
  3090                           	callstack 20
  3091  000A28                     __ccov136_start_blk6:
  3092                           	callstack 20
  3093  000A28                     
  3094                           ;scheduler.c: 30:           (ready_queue.tasks_list[y].task_STATE == READY)) {;scheduler
      +                          .c: 31:             menor_prioridade = ready_queue.tasks_list[y].task_PRIOR;
  3095  000A28  C014  F006         	movff	i2PRIOR_scheduler@y,i2___wmul@multiplier
  3096  000A2C  C015  F007         	movff	i2PRIOR_scheduler@y+1,i2___wmul@multiplier+1
  3097  000A30  0E00               	movlw	0
  3098  000A32  6E09               	movwf	(i2___wmul@multiplicand+1)^0,c
  3099  000A34  0E74               	movlw	116
  3100  000A36  6E08               	movwf	i2___wmul@multiplicand^0,c
  3101  000A38  EC5C  F006         	call	i2___wmul	;wreg free
  3102  000A3C  0E82               	movlw	low (_ready_queue+2)
  3103  000A3E  2406               	addwf	?i2___wmul^0,w,c
  3104  000A40  6ED9               	movwf	fsr2l,c
  3105  000A42  0E01               	movlw	high (_ready_queue+2)
  3106  000A44  2007               	addwfc	(?i2___wmul+1)^0,w,c
  3107  000A46  6EDA               	movwf	fsr2h,c
  3108  000A48  CFDE F010          	movff	postinc2,i2PRIOR_scheduler@menor_prioridade
  3109  000A4C  CFDD F011          	movff	postdec2,i2PRIOR_scheduler@menor_prioridade+1
  3110  000A50                     __ccov136_end_blk6:
  3111                           	callstack 20
  3112  000A50                     __ccov137_start_blk7:
  3113                           	callstack 20
  3114  000A50  8601               	bsf	(__ccovbit7_34/(0+8))^0,__ccovbit7_34& (0+7),c	;volatile
  3115                           
  3116                           ;scheduler.c: 32:             task_to_run = y;
  3117  000A52  C014  F012         	movff	i2PRIOR_scheduler@y,i2PRIOR_scheduler@task_to_run
  3118  000A56  C015  F013         	movff	i2PRIOR_scheduler@y+1,i2PRIOR_scheduler@task_to_run+1
  3119  000A5A                     __ccov137_end_blk7:
  3120                           	callstack 20
  3121  000A5A                     __ccov138_start_blk9:
  3122                           	callstack 20
  3123  000A5A                     i2l1144:
  3124  000A5A  8401               	bsf	(__ccovbit9_35/(0+8))^0,__ccovbit9_35& (0+7),c	;volatile
  3125                           
  3126                           ;scheduler.c: 34:    }
  3127  000A5C  4A14               	infsnz	i2PRIOR_scheduler@y^0,f,c
  3128  000A5E  2A15               	incf	(i2PRIOR_scheduler@y+1)^0,f,c
  3129  000A60                     __ccov138_end_blk9:
  3130                           	callstack 20
  3131  000A60                     __ccov139_start_blk11:
  3132                           	callstack 20
  3133  000A60                     i2l1146:
  3134  000A60  EE23  F050         	lfsr	2,_ready_queue+464
  3135  000A64  50DE               	movf	postinc2,w,c
  3136  000A66  5C14               	subwf	i2PRIOR_scheduler@y^0,w,c
  3137  000A68  50DE               	movf	postinc2,w,c
  3138  000A6A  5815               	subwfb	(i2PRIOR_scheduler@y+1)^0,w,c
  3139  000A6C  A0D8               	btfss	status,0,c
  3140  000A6E  EF3B  F005         	goto	i2u33_41
  3141  000A72  EF3D  F005         	goto	i2u33_40
  3142  000A76                     i2u33_41:
  3143  000A76  EFE0  F004         	goto	i2l1136
  3144  000A7A                     i2u33_40:
  3145  000A7A                     __ccov139_end_blk11:
  3146                           	callstack 20
  3147  000A7A                     __ccov140_start_blk12:
  3148                           	callstack 20
  3149  000A7A                     
  3150                           ;scheduler.c: 36:    return task_to_run;
  3151  000A7A  C012  F00C         	movff	i2PRIOR_scheduler@task_to_run,?i2_PRIOR_scheduler
  3152  000A7E  C013  F00D         	movff	i2PRIOR_scheduler@task_to_run+1,?i2_PRIOR_scheduler+1
  3153  000A82                     __ccov140_end_blk12:
  3154                           	callstack 20
  3155  000A82                     __ccov141_start_blk13:
  3156                           	callstack 20
  3157  000A82  8201               	bsf	(__ccovbit13_36/(0+8))^0,__ccovbit13_36& (0+7),c	;volatile
  3158  000A84  0012               	return		;funcret
  3159  000A86                     __end_ofi2_PRIOR_scheduler:
  3160                           	callstack 0
  3161  0000                     
  3162 ;; *************** function i2___wmul *****************
  3163 ;; Defined at:
  3164 ;;		line 15 in file "C:\Program Files\Microchip\xc8\v2.20\pic\sources\c99\common\Umul16.c"
  3165 ;; Parameters:    Size  Location     Type
  3166 ;;  multiplier      2    0[COMRAM] unsigned int 
  3167 ;;  multiplicand    2    2[COMRAM] unsigned int 
  3168 ;; Auto vars:     Size  Location     Type
  3169 ;;  product         2    4[COMRAM] unsigned int 
  3170 ;; Return value:  Size  Location     Type
  3171 ;;                  2    0[COMRAM] unsigned int 
  3172 ;; Registers used:
  3173 ;;		wreg, status,2, status,0, prodl, prodh
  3174 ;; Tracked objects:
  3175 ;;		On entry : 0/0
  3176 ;;		On exit  : 0/0
  3177 ;;		Unchanged: 0/0
  3178 ;; Data sizes:     COMRAM   BANK0   BANK1   BANK2   BANK3   BANK4   BANK5
  3179 ;;      Params:         4       0       0       0       0       0       0
  3180 ;;      Locals:         2       0       0       0       0       0       0
  3181 ;;      Temps:          0       0       0       0       0       0       0
  3182 ;;      Totals:         6       0       0       0       0       0       0
  3183 ;;Total ram usage:        6 bytes
  3184 ;; Hardware stack levels used:    1
  3185 ;; This function calls:
  3186 ;;		Nothing
  3187 ;; This function is called by:
  3188 ;;		_isr_INTERRUPTS
  3189 ;;		i2_PRIOR_scheduler
  3190 ;; This function uses a non-reentrant model
  3191 ;;
  3192                           
  3193                           	psect	text16
  3194  000CB8                     __ptext16:
  3195                           	callstack 0
  3196  000CB8                     i2___wmul:
  3197                           	callstack 20
  3198  000CB8  5006               	movf	i2___wmul@multiplier^0,w,c
  3199  000CBA  0208               	mulwf	i2___wmul@multiplicand^0,c
  3200  000CBC  CFF3 F00A          	movff	prodl,i2___wmul@product
  3201  000CC0  CFF4 F00B          	movff	prodh,i2___wmul@product+1
  3202  000CC4  5006               	movf	i2___wmul@multiplier^0,w,c
  3203  000CC6  0209               	mulwf	(i2___wmul@multiplicand+1)^0,c
  3204  000CC8  50F3               	movf	243,w,c
  3205  000CCA  260B               	addwf	(i2___wmul@product+1)^0,f,c
  3206  000CCC  5007               	movf	(i2___wmul@multiplier+1)^0,w,c
  3207  000CCE  0208               	mulwf	i2___wmul@multiplicand^0,c
  3208  000CD0  50F3               	movf	243,w,c
  3209  000CD2  260B               	addwf	(i2___wmul@product+1)^0,f,c
  3210  000CD4  C00A  F006         	movff	i2___wmul@product,?i2___wmul
  3211  000CD8  C00B  F007         	movff	i2___wmul@product+1,?i2___wmul+1
  3212  000CDC  0012               	return		;funcret
  3213  000CDE                     __end_ofi2___wmul:
  3214                           	callstack 0
  3215                           
  3216                           ;
  3217                           ; Code-coverage Info Header
  3218                           ;
  3219                           
  3220                           	psect	codecov_info_hdr
  3221  000000                     __pcodecov_info_hdr:
  3222                           	callstack 0
  3223  000000  10                 	db	16	; SIZE
  3224  000001  00000001           	ddw	1	; VERSION
  3225  000005  01                 	db	1	; POINTSIZE
  3226  000006  08                 	db	8	; UNITSIZE
  3227  000007  01                 	db	1	; FLAGS=SET
  3228  000008  00000000           	ddw	0	; Reserved
  3229  00000C  00000000           	ddw	0	; Reserved
  3230                           
  3231                           ;
  3232                           ; Code-coverage Info
  3233                           ;
  3234                           
  3235                           	psect	codecov_info
  3236  000000                     __pcodecov_info:
  3237                           	callstack 0
  3238                           
  3239                           ; Function: main, coverage: 6,5,4,3,2,1,0
  3240  000000  00000000           	ddw	0	; CC_ADDR_SPACE=Data
  3241  000004  00000005           	ddw	__ccovbit6_1/(0+8)	; CC_ADDR
  3242  000008  00000001           	ddw	1	; NUM_POINTS
  3243  00000C  00000004           	ddw	__ccovbit6_1& (0+7)	; OFFSET
  3244  000010  00000000           	ddw	0	; Reserved
  3245  000014  FFFFFFFF           	ddw	4294967295	; RANGE_SPACE=restricted
  3246  000018  00000006           	ddw	6	; NUM_RANGES
  3247  00001C  00000AE8           	ddw	__ccov7_start_blk6	; block 6 START_ADDR
  3248  000020  00000AEE           	ddw	__ccov7_end_blk6	; block 6 END_ADDR
  3249  000024  00000AE4           	ddw	__ccov5_start_blk4	; block 4 START_ADDR
  3250  000028  00000AE8           	ddw	__ccov5_end_blk4	; block 4 END_ADDR
  3251  00002C  00000AC6           	ddw	__ccov4_start_blk3	; block 3 START_ADDR
  3252  000030  00000AE4           	ddw	__ccov4_end_blk3	; block 3 END_ADDR
  3253  000034  00000AA8           	ddw	__ccov3_start_blk2	; block 2 START_ADDR
  3254  000038  00000AC6           	ddw	__ccov3_end_blk2	; block 2 END_ADDR
  3255  00003C  00000A8A           	ddw	__ccov2_start_blk1	; block 1 START_ADDR
  3256  000040  00000AA8           	ddw	__ccov2_end_blk1	; block 1 END_ADDR
  3257  000044  00000A86           	ddw	_main	; block 0 START_ADDR
  3258  000048  00000A8A           	ddw	__ccov1_end_blk0	; block 0 END_ADDR
  3259                           
  3260                           ; Function: config_tasks, coverage: 1,0
  3261  00004C  00000000           	ddw	0	; CC_ADDR_SPACE=Data
  3262  000050  00000005           	ddw	__ccovbit1_2/(0+8)	; CC_ADDR
  3263  000054  00000001           	ddw	1	; NUM_POINTS
  3264  000058  00000003           	ddw	__ccovbit1_2& (0+7)	; OFFSET
  3265  00005C  00000000           	ddw	0	; Reserved
  3266  000060  FFFFFFFF           	ddw	4294967295	; RANGE_SPACE=restricted
  3267  000064  00000002           	ddw	2	; NUM_RANGES
  3268  000068  00000D24           	ddw	__ccov9_start_blk1	; block 1 START_ADDR
  3269  00006C  00000D28           	ddw	__end_of_config_tasks	; block 1 END_ADDR
  3270  000070  00000D1E           	ddw	_config_tasks	; block 0 START_ADDR
  3271  000074  00000D24           	ddw	__ccov8_end_blk0	; block 0 END_ADDR
  3272                           
  3273                           ; Function: task_1, coverage: 1,0
  3274  000078  00000000           	ddw	0	; CC_ADDR_SPACE=Data
  3275  00007C  00000005           	ddw	__ccovbit1_3/(0+8)	; CC_ADDR
  3276  000080  00000001           	ddw	1	; NUM_POINTS
  3277  000084  00000002           	ddw	__ccovbit1_3& (0+7)	; OFFSET
  3278  000088  00000000           	ddw	0	; Reserved
  3279  00008C  FFFFFFFF           	ddw	4294967295	; RANGE_SPACE=restricted
  3280  000090  00000001           	ddw	1	; NUM_RANGES
  3281  000094  00000C3E           	ddw	_task_1	; block 1 START_ADDR
  3282  000098  00000C66           	ddw	__ccov11_end_blk1	; block 1 END_ADDR
  3283                           
  3284                           ; Function: task_2, coverage: 1,0
  3285  00009C  00000000           	ddw	0	; CC_ADDR_SPACE=Data
  3286  0000A0  00000005           	ddw	__ccovbit1_4/(0+8)	; CC_ADDR
  3287  0000A4  00000001           	ddw	1	; NUM_POINTS
  3288  0000A8  00000001           	ddw	__ccovbit1_4& (0+7)	; OFFSET
  3289  0000AC  00000000           	ddw	0	; Reserved
  3290  0000B0  FFFFFFFF           	ddw	4294967295	; RANGE_SPACE=restricted
  3291  0000B4  00000001           	ddw	1	; NUM_RANGES
  3292  0000B8  00000C12           	ddw	_task_2	; block 1 START_ADDR
  3293  0000BC  00000C3C           	ddw	__ccov13_end_blk1	; block 1 END_ADDR
  3294                           
  3295                           ; Function: task_3, coverage: 2,1,0
  3296  0000C0  00000000           	ddw	0	; CC_ADDR_SPACE=Data
  3297  0000C4  00000005           	ddw	__ccovbit2_5/(0+8)	; CC_ADDR
  3298  0000C8  00000001           	ddw	1	; NUM_POINTS
  3299  0000CC  00000000           	ddw	__ccovbit2_5& (0+7)	; OFFSET
  3300  0000D0  00000000           	ddw	0	; Reserved
  3301  0000D4  FFFFFFFF           	ddw	4294967295	; RANGE_SPACE=restricted
  3302  0000D8  00000002           	ddw	2	; NUM_RANGES
  3303  0000DC  00000BFE           	ddw	__ccov16_start_blk2	; block 2 START_ADDR
  3304  0000E0  00000C10           	ddw	__ccov16_end_blk2	; block 2 END_ADDR
  3305  0000E4  00000BD8           	ddw	_task_3	; block 1 START_ADDR
  3306  0000E8  00000BFE           	ddw	__ccov15_end_blk1	; block 1 END_ADDR
  3307                           
  3308                           ; Function: isr_INTERRUPTS, coverage: 1,0
  3309  0000EC  00000000           	ddw	0	; CC_ADDR_SPACE=Data
  3310  0000F0  00000004           	ddw	__ccovbit1_6/(0+8)	; CC_ADDR
  3311  0000F4  00000001           	ddw	1	; NUM_POINTS
  3312  0000F8  00000007           	ddw	__ccovbit1_6& (0+7)	; OFFSET
  3313  0000FC  00000000           	ddw	0	; Reserved
  3314  000100  FFFFFFFF           	ddw	4294967295	; RANGE_SPACE=restricted
  3315  000104  00000002           	ddw	2	; NUM_RANGES
  3316  000108  00000032           	ddw	__ccov18_start_blk1	; block 1 START_ADDR
  3317  00010C  0000003A           	ddw	__ccov18_end_blk1	; block 1 END_ADDR
  3318  000110  00000012           	ddw	int_func	; block 0 START_ADDR
  3319  000114  00000032           	ddw	__ccov17_end_blk0	; block 0 END_ADDR
  3320                           
  3321                           ; Function: isr_INTERRUPTS, coverage: 2,0
  3322  000118  00000000           	ddw	0	; CC_ADDR_SPACE=Data
  3323  00011C  00000004           	ddw	__ccovbit2_7/(0+8)	; CC_ADDR
  3324  000120  00000001           	ddw	1	; NUM_POINTS
  3325  000124  00000006           	ddw	__ccovbit2_7& (0+7)	; OFFSET
  3326  000128  00000000           	ddw	0	; Reserved
  3327  00012C  FFFFFFFF           	ddw	4294967295	; RANGE_SPACE=restricted
  3328  000130  00000002           	ddw	2	; NUM_RANGES
  3329  000134  0000003A           	ddw	__ccov19_start_blk2	; block 2 START_ADDR
  3330  000138  0000004A           	ddw	__ccov19_end_blk2	; block 2 END_ADDR
  3331  00013C  00000012           	ddw	int_func	; block 0 START_ADDR
  3332  000140  00000032           	ddw	__ccov17_end_blk0	; block 0 END_ADDR
  3333                           
  3334                           ; Function: isr_INTERRUPTS, coverage: 7,6,13,4,3,2,0
  3335  000144  00000000           	ddw	0	; CC_ADDR_SPACE=Data
  3336  000148  00000004           	ddw	__ccovbit7_8/(0+8)	; CC_ADDR
  3337  00014C  00000001           	ddw	1	; NUM_POINTS
  3338  000150  00000005           	ddw	__ccovbit7_8& (0+7)	; OFFSET
  3339  000154  00000000           	ddw	0	; Reserved
  3340  000158  FFFFFFFF           	ddw	4294967295	; RANGE_SPACE=restricted
  3341  00015C  00000007           	ddw	7	; NUM_RANGES
  3342  000160  00000092           	ddw	__ccov23_start_blk7	; block 7 START_ADDR
  3343  000164  000000EC           	ddw	__ccov23_end_blk7	; block 7 END_ADDR
  3344  000168  00000060           	ddw	__ccov22_start_blk6	; block 6 START_ADDR
  3345  00016C  00000092           	ddw	__ccov22_end_blk6	; block 6 END_ADDR
  3346  000170  00000118           	ddw	__ccov26_start_blk13	; block 13 START_ADDR
  3347  000174  00000132           	ddw	__ccov26_end_blk13	; block 13 END_ADDR
  3348  000178  0000004C           	ddw	__ccov21_start_blk4	; block 4 START_ADDR
  3349  00017C  00000060           	ddw	__ccov21_end_blk4	; block 4 END_ADDR
  3350  000180  0000004A           	ddw	__ccov20_start_blk3	; block 3 START_ADDR
  3351  000184  0000004C           	ddw	__ccov20_end_blk3	; block 3 END_ADDR
  3352  000188  0000003A           	ddw	__ccov19_start_blk2	; block 2 START_ADDR
  3353  00018C  0000004A           	ddw	__ccov19_end_blk2	; block 2 END_ADDR
  3354  000190  00000012           	ddw	int_func	; block 0 START_ADDR
  3355  000194  00000032           	ddw	__ccov17_end_blk0	; block 0 END_ADDR
  3356                           
  3357                           ; Function: isr_INTERRUPTS, coverage: 8,7,6,13,4,3,2,0
  3358  000198  00000000           	ddw	0	; CC_ADDR_SPACE=Data
  3359  00019C  00000004           	ddw	__ccovbit8_9/(0+8)	; CC_ADDR
  3360  0001A0  00000001           	ddw	1	; NUM_POINTS
  3361  0001A4  00000004           	ddw	__ccovbit8_9& (0+7)	; OFFSET
  3362  0001A8  00000000           	ddw	0	; Reserved
  3363  0001AC  FFFFFFFF           	ddw	4294967295	; RANGE_SPACE=restricted
  3364  0001B0  00000008           	ddw	8	; NUM_RANGES
  3365  0001B4  000000EC           	ddw	__ccov24_start_blk8	; block 8 START_ADDR
  3366  0001B8  00000112           	ddw	__ccov24_end_blk8	; block 8 END_ADDR
  3367  0001BC  00000092           	ddw	__ccov23_start_blk7	; block 7 START_ADDR
  3368  0001C0  000000EC           	ddw	__ccov23_end_blk7	; block 7 END_ADDR
  3369  0001C4  00000060           	ddw	__ccov22_start_blk6	; block 6 START_ADDR
  3370  0001C8  00000092           	ddw	__ccov22_end_blk6	; block 6 END_ADDR
  3371  0001CC  00000118           	ddw	__ccov26_start_blk13	; block 13 START_ADDR
  3372  0001D0  00000132           	ddw	__ccov26_end_blk13	; block 13 END_ADDR
  3373  0001D4  0000004C           	ddw	__ccov21_start_blk4	; block 4 START_ADDR
  3374  0001D8  00000060           	ddw	__ccov21_end_blk4	; block 4 END_ADDR
  3375  0001DC  0000004A           	ddw	__ccov20_start_blk3	; block 3 START_ADDR
  3376  0001E0  0000004C           	ddw	__ccov20_end_blk3	; block 3 END_ADDR
  3377  0001E4  0000003A           	ddw	__ccov19_start_blk2	; block 2 START_ADDR
  3378  0001E8  0000004A           	ddw	__ccov19_end_blk2	; block 2 END_ADDR
  3379  0001EC  00000012           	ddw	int_func	; block 0 START_ADDR
  3380  0001F0  00000032           	ddw	__ccov17_end_blk0	; block 0 END_ADDR
  3381                           
  3382                           ; Function: isr_INTERRUPTS, coverage: 11,6,13,4,3,2,0
  3383  0001F4  00000000           	ddw	0	; CC_ADDR_SPACE=Data
  3384  0001F8  00000004           	ddw	__ccovbit11_10/(0+8)	; CC_ADDR
  3385  0001FC  00000001           	ddw	1	; NUM_POINTS
  3386  000200  00000003           	ddw	__ccovbit11_10& (0+7)	; OFFSET
  3387  000204  00000000           	ddw	0	; Reserved
  3388  000208  FFFFFFFF           	ddw	4294967295	; RANGE_SPACE=restricted
  3389  00020C  00000007           	ddw	7	; NUM_RANGES
  3390  000210  00000112           	ddw	__ccov25_start_blk11	; block 11 START_ADDR
  3391  000214  00000118           	ddw	__ccov25_end_blk11	; block 11 END_ADDR
  3392  000218  00000060           	ddw	__ccov22_start_blk6	; block 6 START_ADDR
  3393  00021C  00000092           	ddw	__ccov22_end_blk6	; block 6 END_ADDR
  3394  000220  00000118           	ddw	__ccov26_start_blk13	; block 13 START_ADDR
  3395  000224  00000132           	ddw	__ccov26_end_blk13	; block 13 END_ADDR
  3396  000228  0000004C           	ddw	__ccov21_start_blk4	; block 4 START_ADDR
  3397  00022C  00000060           	ddw	__ccov21_end_blk4	; block 4 END_ADDR
  3398  000230  0000004A           	ddw	__ccov20_start_blk3	; block 3 START_ADDR
  3399  000234  0000004C           	ddw	__ccov20_end_blk3	; block 3 END_ADDR
  3400  000238  0000003A           	ddw	__ccov19_start_blk2	; block 2 START_ADDR
  3401  00023C  0000004A           	ddw	__ccov19_end_blk2	; block 2 END_ADDR
  3402  000240  00000012           	ddw	int_func	; block 0 START_ADDR
  3403  000244  00000032           	ddw	__ccov17_end_blk0	; block 0 END_ADDR
  3404                           
  3405                           ; Function: isr_INTERRUPTS, coverage: 16,15,13,4,3,2,0
  3406  000248  00000000           	ddw	0	; CC_ADDR_SPACE=Data
  3407  00024C  00000004           	ddw	__ccovbit16_11/(0+8)	; CC_ADDR
  3408  000250  00000001           	ddw	1	; NUM_POINTS
  3409  000254  00000002           	ddw	__ccovbit16_11& (0+7)	; OFFSET
  3410  000258  00000000           	ddw	0	; Reserved
  3411  00025C  FFFFFFFF           	ddw	4294967295	; RANGE_SPACE=restricted
  3412  000260  00000007           	ddw	7	; NUM_RANGES
  3413  000264  00000138           	ddw	__ccov28_start_blk16	; block 16 START_ADDR
  3414  000268  0000014C           	ddw	__ccov28_end_blk16	; block 16 END_ADDR
  3415  00026C  00000132           	ddw	__ccov27_start_blk15	; block 15 START_ADDR
  3416  000270  00000138           	ddw	__ccov27_end_blk15	; block 15 END_ADDR
  3417  000274  00000118           	ddw	__ccov26_start_blk13	; block 13 START_ADDR
  3418  000278  00000132           	ddw	__ccov26_end_blk13	; block 13 END_ADDR
  3419  00027C  0000004C           	ddw	__ccov21_start_blk4	; block 4 START_ADDR
  3420  000280  00000060           	ddw	__ccov21_end_blk4	; block 4 END_ADDR
  3421  000284  0000004A           	ddw	__ccov20_start_blk3	; block 3 START_ADDR
  3422  000288  0000004C           	ddw	__ccov20_end_blk3	; block 3 END_ADDR
  3423  00028C  0000003A           	ddw	__ccov19_start_blk2	; block 2 START_ADDR
  3424  000290  0000004A           	ddw	__ccov19_end_blk2	; block 2 END_ADDR
  3425  000294  00000012           	ddw	int_func	; block 0 START_ADDR
  3426  000298  00000032           	ddw	__ccov17_end_blk0	; block 0 END_ADDR
  3427                           
  3428                           ; Function: isr_INTERRUPTS, coverage: 25,24,23,22,21,20,18,17,16,15,13,4,3,2,0
  3429  00029C  00000000           	ddw	0	; CC_ADDR_SPACE=Data
  3430  0002A0  00000004           	ddw	__ccovbit25_12/(0+8)	; CC_ADDR
  3431  0002A4  00000001           	ddw	1	; NUM_POINTS
  3432  0002A8  00000001           	ddw	__ccovbit25_12& (0+7)	; OFFSET
  3433  0002AC  00000000           	ddw	0	; Reserved
  3434  0002B0  FFFFFFFF           	ddw	4294967295	; RANGE_SPACE=restricted
  3435  0002B4  0000000F           	ddw	15	; NUM_RANGES
  3436  0002B8  0000028E           	ddw	__ccov36_start_blk25	; block 25 START_ADDR
  3437  0002BC  000002A0           	ddw	__ccov36_end_blk25	; block 25 END_ADDR
  3438  0002C0  0000028A           	ddw	__ccov35_start_blk24	; block 24 START_ADDR
  3439  0002C4  0000028E           	ddw	__ccov35_end_blk24	; block 24 END_ADDR
  3440  0002C8  00000230           	ddw	__ccov34_start_blk23	; block 23 START_ADDR
  3441  0002CC  0000028A           	ddw	__ccov34_end_blk23	; block 23 END_ADDR
  3442  0002D0  00000196           	ddw	__ccov33_start_blk22	; block 22 START_ADDR
  3443  0002D4  00000230           	ddw	__ccov33_end_blk22	; block 22 END_ADDR
  3444  0002D8  00000166           	ddw	__ccov32_start_blk21	; block 21 START_ADDR
  3445  0002DC  00000196           	ddw	__ccov32_end_blk21	; block 21 END_ADDR
  3446  0002E0  00000164           	ddw	__ccov31_start_blk20	; block 20 START_ADDR
  3447  0002E4  00000166           	ddw	__ccov31_end_blk20	; block 20 END_ADDR
  3448  0002E8  0000015C           	ddw	__ccov30_start_blk18	; block 18 START_ADDR
  3449  0002EC  00000164           	ddw	__ccov30_end_blk18	; block 18 END_ADDR
  3450  0002F0  0000014C           	ddw	__ccov29_start_blk17	; block 17 START_ADDR
  3451  0002F4  0000015C           	ddw	__ccov29_end_blk17	; block 17 END_ADDR
  3452  0002F8  00000138           	ddw	__ccov28_start_blk16	; block 16 START_ADDR
  3453  0002FC  0000014C           	ddw	__ccov28_end_blk16	; block 16 END_ADDR
  3454  000300  00000132           	ddw	__ccov27_start_blk15	; block 15 START_ADDR
  3455  000304  00000138           	ddw	__ccov27_end_blk15	; block 15 END_ADDR
  3456  000308  00000118           	ddw	__ccov26_start_blk13	; block 13 START_ADDR
  3457  00030C  00000132           	ddw	__ccov26_end_blk13	; block 13 END_ADDR
  3458  000310  0000004C           	ddw	__ccov21_start_blk4	; block 4 START_ADDR
  3459  000314  00000060           	ddw	__ccov21_end_blk4	; block 4 END_ADDR
  3460  000318  0000004A           	ddw	__ccov20_start_blk3	; block 3 START_ADDR
  3461  00031C  0000004C           	ddw	__ccov20_end_blk3	; block 3 END_ADDR
  3462  000320  0000003A           	ddw	__ccov19_start_blk2	; block 2 START_ADDR
  3463  000324  0000004A           	ddw	__ccov19_end_blk2	; block 2 END_ADDR
  3464  000328  00000012           	ddw	int_func	; block 0 START_ADDR
  3465  00032C  00000032           	ddw	__ccov17_end_blk0	; block 0 END_ADDR
  3466                           
  3467                           ; Function: isr_INTERRUPTS, coverage: 27,25,24,23,22,21,20,18,17,16,15,13,4,3,2,0
  3468  000330  00000000           	ddw	0	; CC_ADDR_SPACE=Data
  3469  000334  00000004           	ddw	__ccovbit27_13/(0+8)	; CC_ADDR
  3470  000338  00000001           	ddw	1	; NUM_POINTS
  3471  00033C  00000000           	ddw	__ccovbit27_13& (0+7)	; OFFSET
  3472  000340  00000000           	ddw	0	; Reserved
  3473  000344  FFFFFFFF           	ddw	4294967295	; RANGE_SPACE=restricted
  3474  000348  00000010           	ddw	16	; NUM_RANGES
  3475  00034C  000002A0           	ddw	__ccov37_start_blk27	; block 27 START_ADDR
  3476  000350  000002EE           	ddw	__ccov37_end_blk27	; block 27 END_ADDR
  3477  000354  0000028E           	ddw	__ccov36_start_blk25	; block 25 START_ADDR
  3478  000358  000002A0           	ddw	__ccov36_end_blk25	; block 25 END_ADDR
  3479  00035C  0000028A           	ddw	__ccov35_start_blk24	; block 24 START_ADDR
  3480  000360  0000028E           	ddw	__ccov35_end_blk24	; block 24 END_ADDR
  3481  000364  00000230           	ddw	__ccov34_start_blk23	; block 23 START_ADDR
  3482  000368  0000028A           	ddw	__ccov34_end_blk23	; block 23 END_ADDR
  3483  00036C  00000196           	ddw	__ccov33_start_blk22	; block 22 START_ADDR
  3484  000370  00000230           	ddw	__ccov33_end_blk22	; block 22 END_ADDR
  3485  000374  00000166           	ddw	__ccov32_start_blk21	; block 21 START_ADDR
  3486  000378  00000196           	ddw	__ccov32_end_blk21	; block 21 END_ADDR
  3487  00037C  00000164           	ddw	__ccov31_start_blk20	; block 20 START_ADDR
  3488  000380  00000166           	ddw	__ccov31_end_blk20	; block 20 END_ADDR
  3489  000384  0000015C           	ddw	__ccov30_start_blk18	; block 18 START_ADDR
  3490  000388  00000164           	ddw	__ccov30_end_blk18	; block 18 END_ADDR
  3491  00038C  0000014C           	ddw	__ccov29_start_blk17	; block 17 START_ADDR
  3492  000390  0000015C           	ddw	__ccov29_end_blk17	; block 17 END_ADDR
  3493  000394  00000138           	ddw	__ccov28_start_blk16	; block 16 START_ADDR
  3494  000398  0000014C           	ddw	__ccov28_end_blk16	; block 16 END_ADDR
  3495  00039C  00000132           	ddw	__ccov27_start_blk15	; block 15 START_ADDR
  3496  0003A0  00000138           	ddw	__ccov27_end_blk15	; block 15 END_ADDR
  3497  0003A4  00000118           	ddw	__ccov26_start_blk13	; block 13 START_ADDR
  3498  0003A8  00000132           	ddw	__ccov26_end_blk13	; block 13 END_ADDR
  3499  0003AC  0000004C           	ddw	__ccov21_start_blk4	; block 4 START_ADDR
  3500  0003B0  00000060           	ddw	__ccov21_end_blk4	; block 4 END_ADDR
  3501  0003B4  0000004A           	ddw	__ccov20_start_blk3	; block 3 START_ADDR
  3502  0003B8  0000004C           	ddw	__ccov20_end_blk3	; block 3 END_ADDR
  3503  0003BC  0000003A           	ddw	__ccov19_start_blk2	; block 2 START_ADDR
  3504  0003C0  0000004A           	ddw	__ccov19_end_blk2	; block 2 END_ADDR
  3505  0003C4  00000012           	ddw	int_func	; block 0 START_ADDR
  3506  0003C8  00000032           	ddw	__ccov17_end_blk0	; block 0 END_ADDR
  3507                           
  3508                           ; Function: isr_INTERRUPTS, coverage: 39,38,41,36,35,34,33,31,30,29,21,20,18,17,16,15,13
      +                          ,4,3,2,0
  3509  0003CC  00000000           	ddw	0	; CC_ADDR_SPACE=Data
  3510  0003D0  00000003           	ddw	__ccovbit39_14/(0+8)	; CC_ADDR
  3511  0003D4  00000001           	ddw	1	; NUM_POINTS
  3512  0003D8  00000007           	ddw	__ccovbit39_14& (0+7)	; OFFSET
  3513  0003DC  00000000           	ddw	0	; Reserved
  3514  0003E0  FFFFFFFF           	ddw	4294967295	; RANGE_SPACE=restricted
  3515  0003E4  00000015           	ddw	21	; NUM_RANGES
  3516  0003E8  000003DE           	ddw	__ccov46_start_blk39	; block 39 START_ADDR
  3517  0003EC  00000438           	ddw	__ccov46_end_blk39	; block 39 END_ADDR
  3518  0003F0  000003D6           	ddw	__ccov45_start_blk38	; block 38 START_ADDR
  3519  0003F4  000003DE           	ddw	__ccov45_end_blk38	; block 38 END_ADDR
  3520  0003F8  00000438           	ddw	__ccov47_start_blk41	; block 41 START_ADDR
  3521  0003FC  00000450           	ddw	__ccov47_end_blk41	; block 41 END_ADDR
  3522  000400  00000364           	ddw	__ccov44_start_blk36	; block 36 START_ADDR
  3523  000404  000003D6           	ddw	__ccov44_end_blk36	; block 36 END_ADDR
  3524  000408  00000332           	ddw	__ccov43_start_blk35	; block 35 START_ADDR
  3525  00040C  00000364           	ddw	__ccov43_end_blk35	; block 35 END_ADDR
  3526  000410  0000032E           	ddw	__ccov42_start_blk34	; block 34 START_ADDR
  3527  000414  00000332           	ddw	__ccov42_end_blk34	; block 34 END_ADDR
  3528  000418  0000032C           	ddw	__ccov41_start_blk33	; block 33 START_ADDR
  3529  00041C  0000032E           	ddw	__ccov41_end_blk33	; block 33 END_ADDR
  3530  000420  000002FC           	ddw	__ccov40_start_blk31	; block 31 START_ADDR
  3531  000424  0000032C           	ddw	__ccov40_end_blk31	; block 31 END_ADDR
  3532  000428  000002F0           	ddw	__ccov39_start_blk30	; block 30 START_ADDR
  3533  00042C  000002FC           	ddw	__ccov39_end_blk30	; block 30 END_ADDR
  3534  000430  000002EE           	ddw	__ccov38_start_blk29	; block 29 START_ADDR
  3535  000434  000002F0           	ddw	__ccov38_end_blk29	; block 29 END_ADDR
  3536  000438  00000166           	ddw	__ccov32_start_blk21	; block 21 START_ADDR
  3537  00043C  00000196           	ddw	__ccov32_end_blk21	; block 21 END_ADDR
  3538  000440  00000164           	ddw	__ccov31_start_blk20	; block 20 START_ADDR
  3539  000444  00000166           	ddw	__ccov31_end_blk20	; block 20 END_ADDR
  3540  000448  0000015C           	ddw	__ccov30_start_blk18	; block 18 START_ADDR
  3541  00044C  00000164           	ddw	__ccov30_end_blk18	; block 18 END_ADDR
  3542  000450  0000014C           	ddw	__ccov29_start_blk17	; block 17 START_ADDR
  3543  000454  0000015C           	ddw	__ccov29_end_blk17	; block 17 END_ADDR
  3544  000458  00000138           	ddw	__ccov28_start_blk16	; block 16 START_ADDR
  3545  00045C  0000014C           	ddw	__ccov28_end_blk16	; block 16 END_ADDR
  3546  000460  00000132           	ddw	__ccov27_start_blk15	; block 15 START_ADDR
  3547  000464  00000138           	ddw	__ccov27_end_blk15	; block 15 END_ADDR
  3548  000468  00000118           	ddw	__ccov26_start_blk13	; block 13 START_ADDR
  3549  00046C  00000132           	ddw	__ccov26_end_blk13	; block 13 END_ADDR
  3550  000470  0000004C           	ddw	__ccov21_start_blk4	; block 4 START_ADDR
  3551  000474  00000060           	ddw	__ccov21_end_blk4	; block 4 END_ADDR
  3552  000478  0000004A           	ddw	__ccov20_start_blk3	; block 3 START_ADDR
  3553  00047C  0000004C           	ddw	__ccov20_end_blk3	; block 3 END_ADDR
  3554  000480  0000003A           	ddw	__ccov19_start_blk2	; block 2 START_ADDR
  3555  000484  0000004A           	ddw	__ccov19_end_blk2	; block 2 END_ADDR
  3556  000488  00000012           	ddw	int_func	; block 0 START_ADDR
  3557  00048C  00000032           	ddw	__ccov17_end_blk0	; block 0 END_ADDR
  3558                           
  3559                           ; Function: isr_INTERRUPTS, coverage: 41,36,35,34,33,31,30,29,21,20,18,17,16,15,13,4,3,2
      +                          ,0
  3560  000490  00000000           	ddw	0	; CC_ADDR_SPACE=Data
  3561  000494  00000003           	ddw	__ccovbit41_15/(0+8)	; CC_ADDR
  3562  000498  00000001           	ddw	1	; NUM_POINTS
  3563  00049C  00000006           	ddw	__ccovbit41_15& (0+7)	; OFFSET
  3564  0004A0  00000000           	ddw	0	; Reserved
  3565  0004A4  FFFFFFFF           	ddw	4294967295	; RANGE_SPACE=restricted
  3566  0004A8  00000013           	ddw	19	; NUM_RANGES
  3567  0004AC  00000438           	ddw	__ccov47_start_blk41	; block 41 START_ADDR
  3568  0004B0  00000450           	ddw	__ccov47_end_blk41	; block 41 END_ADDR
  3569  0004B4  00000364           	ddw	__ccov44_start_blk36	; block 36 START_ADDR
  3570  0004B8  000003D6           	ddw	__ccov44_end_blk36	; block 36 END_ADDR
  3571  0004BC  00000332           	ddw	__ccov43_start_blk35	; block 35 START_ADDR
  3572  0004C0  00000364           	ddw	__ccov43_end_blk35	; block 35 END_ADDR
  3573  0004C4  0000032E           	ddw	__ccov42_start_blk34	; block 34 START_ADDR
  3574  0004C8  00000332           	ddw	__ccov42_end_blk34	; block 34 END_ADDR
  3575  0004CC  0000032C           	ddw	__ccov41_start_blk33	; block 33 START_ADDR
  3576  0004D0  0000032E           	ddw	__ccov41_end_blk33	; block 33 END_ADDR
  3577  0004D4  000002FC           	ddw	__ccov40_start_blk31	; block 31 START_ADDR
  3578  0004D8  0000032C           	ddw	__ccov40_end_blk31	; block 31 END_ADDR
  3579  0004DC  000002F0           	ddw	__ccov39_start_blk30	; block 30 START_ADDR
  3580  0004E0  000002FC           	ddw	__ccov39_end_blk30	; block 30 END_ADDR
  3581  0004E4  000002EE           	ddw	__ccov38_start_blk29	; block 29 START_ADDR
  3582  0004E8  000002F0           	ddw	__ccov38_end_blk29	; block 29 END_ADDR
  3583  0004EC  00000166           	ddw	__ccov32_start_blk21	; block 21 START_ADDR
  3584  0004F0  00000196           	ddw	__ccov32_end_blk21	; block 21 END_ADDR
  3585  0004F4  00000164           	ddw	__ccov31_start_blk20	; block 20 START_ADDR
  3586  0004F8  00000166           	ddw	__ccov31_end_blk20	; block 20 END_ADDR
  3587  0004FC  0000015C           	ddw	__ccov30_start_blk18	; block 18 START_ADDR
  3588  000500  00000164           	ddw	__ccov30_end_blk18	; block 18 END_ADDR
  3589  000504  0000014C           	ddw	__ccov29_start_blk17	; block 17 START_ADDR
  3590  000508  0000015C           	ddw	__ccov29_end_blk17	; block 17 END_ADDR
  3591  00050C  00000138           	ddw	__ccov28_start_blk16	; block 16 START_ADDR
  3592  000510  0000014C           	ddw	__ccov28_end_blk16	; block 16 END_ADDR
  3593  000514  00000132           	ddw	__ccov27_start_blk15	; block 15 START_ADDR
  3594  000518  00000138           	ddw	__ccov27_end_blk15	; block 15 END_ADDR
  3595  00051C  00000118           	ddw	__ccov26_start_blk13	; block 13 START_ADDR
  3596  000520  00000132           	ddw	__ccov26_end_blk13	; block 13 END_ADDR
  3597  000524  0000004C           	ddw	__ccov21_start_blk4	; block 4 START_ADDR
  3598  000528  00000060           	ddw	__ccov21_end_blk4	; block 4 END_ADDR
  3599  00052C  0000004A           	ddw	__ccov20_start_blk3	; block 3 START_ADDR
  3600  000530  0000004C           	ddw	__ccov20_end_blk3	; block 3 END_ADDR
  3601  000534  0000003A           	ddw	__ccov19_start_blk2	; block 2 START_ADDR
  3602  000538  0000004A           	ddw	__ccov19_end_blk2	; block 2 END_ADDR
  3603  00053C  00000012           	ddw	int_func	; block 0 START_ADDR
  3604  000540  00000032           	ddw	__ccov17_end_blk0	; block 0 END_ADDR
  3605                           
  3606                           ; Function: isr_INTERRUPTS, coverage: 44,43,35,34,33,31,30,29,21,20,18,17,16,15,13,4,3,2
      +                          ,0
  3607  000544  00000000           	ddw	0	; CC_ADDR_SPACE=Data
  3608  000548  00000003           	ddw	__ccovbit44_16/(0+8)	; CC_ADDR
  3609  00054C  00000001           	ddw	1	; NUM_POINTS
  3610  000550  00000005           	ddw	__ccovbit44_16& (0+7)	; OFFSET
  3611  000554  00000000           	ddw	0	; Reserved
  3612  000558  FFFFFFFF           	ddw	4294967295	; RANGE_SPACE=restricted
  3613  00055C  00000013           	ddw	19	; NUM_RANGES
  3614  000560  00000452           	ddw	__ccov49_start_blk44	; block 44 START_ADDR
  3615  000564  00000486           	ddw	__ccov49_end_blk44	; block 44 END_ADDR
  3616  000568  00000450           	ddw	__ccov48_start_blk43	; block 43 START_ADDR
  3617  00056C  00000452           	ddw	__ccov48_end_blk43	; block 43 END_ADDR
  3618  000570  00000332           	ddw	__ccov43_start_blk35	; block 35 START_ADDR
  3619  000574  00000364           	ddw	__ccov43_end_blk35	; block 35 END_ADDR
  3620  000578  0000032E           	ddw	__ccov42_start_blk34	; block 34 START_ADDR
  3621  00057C  00000332           	ddw	__ccov42_end_blk34	; block 34 END_ADDR
  3622  000580  0000032C           	ddw	__ccov41_start_blk33	; block 33 START_ADDR
  3623  000584  0000032E           	ddw	__ccov41_end_blk33	; block 33 END_ADDR
  3624  000588  000002FC           	ddw	__ccov40_start_blk31	; block 31 START_ADDR
  3625  00058C  0000032C           	ddw	__ccov40_end_blk31	; block 31 END_ADDR
  3626  000590  000002F0           	ddw	__ccov39_start_blk30	; block 30 START_ADDR
  3627  000594  000002FC           	ddw	__ccov39_end_blk30	; block 30 END_ADDR
  3628  000598  000002EE           	ddw	__ccov38_start_blk29	; block 29 START_ADDR
  3629  00059C  000002F0           	ddw	__ccov38_end_blk29	; block 29 END_ADDR
  3630  0005A0  00000166           	ddw	__ccov32_start_blk21	; block 21 START_ADDR
  3631  0005A4  00000196           	ddw	__ccov32_end_blk21	; block 21 END_ADDR
  3632  0005A8  00000164           	ddw	__ccov31_start_blk20	; block 20 START_ADDR
  3633  0005AC  00000166           	ddw	__ccov31_end_blk20	; block 20 END_ADDR
  3634  0005B0  0000015C           	ddw	__ccov30_start_blk18	; block 18 START_ADDR
  3635  0005B4  00000164           	ddw	__ccov30_end_blk18	; block 18 END_ADDR
  3636  0005B8  0000014C           	ddw	__ccov29_start_blk17	; block 17 START_ADDR
  3637  0005BC  0000015C           	ddw	__ccov29_end_blk17	; block 17 END_ADDR
  3638  0005C0  00000138           	ddw	__ccov28_start_blk16	; block 16 START_ADDR
  3639  0005C4  0000014C           	ddw	__ccov28_end_blk16	; block 16 END_ADDR
  3640  0005C8  00000132           	ddw	__ccov27_start_blk15	; block 15 START_ADDR
  3641  0005CC  00000138           	ddw	__ccov27_end_blk15	; block 15 END_ADDR
  3642  0005D0  00000118           	ddw	__ccov26_start_blk13	; block 13 START_ADDR
  3643  0005D4  00000132           	ddw	__ccov26_end_blk13	; block 13 END_ADDR
  3644  0005D8  0000004C           	ddw	__ccov21_start_blk4	; block 4 START_ADDR
  3645  0005DC  00000060           	ddw	__ccov21_end_blk4	; block 4 END_ADDR
  3646  0005E0  0000004A           	ddw	__ccov20_start_blk3	; block 3 START_ADDR
  3647  0005E4  0000004C           	ddw	__ccov20_end_blk3	; block 3 END_ADDR
  3648  0005E8  0000003A           	ddw	__ccov19_start_blk2	; block 2 START_ADDR
  3649  0005EC  0000004A           	ddw	__ccov19_end_blk2	; block 2 END_ADDR
  3650  0005F0  00000012           	ddw	int_func	; block 0 START_ADDR
  3651  0005F4  00000032           	ddw	__ccov17_end_blk0	; block 0 END_ADDR
  3652                           
  3653                           ; Function: isr_INTERRUPTS, coverage: 46,45,35,34,33,31,30,29,21,20,18,17,16,15,13,4,3,2
      +                          ,0
  3654  0005F8  00000000           	ddw	0	; CC_ADDR_SPACE=Data
  3655  0005FC  00000003           	ddw	__ccovbit46_17/(0+8)	; CC_ADDR
  3656  000600  00000001           	ddw	1	; NUM_POINTS
  3657  000604  00000004           	ddw	__ccovbit46_17& (0+7)	; OFFSET
  3658  000608  00000000           	ddw	0	; Reserved
  3659  00060C  FFFFFFFF           	ddw	4294967295	; RANGE_SPACE=restricted
  3660  000610  00000013           	ddw	19	; NUM_RANGES
  3661  000614  000004AA           	ddw	__ccov51_start_blk46	; block 46 START_ADDR
  3662  000618  000004AE           	ddw	__ccov51_end_blk46	; block 46 END_ADDR
  3663  00061C  00000486           	ddw	__ccov50_start_blk45	; block 45 START_ADDR
  3664  000620  000004AA           	ddw	__ccov50_end_blk45	; block 45 END_ADDR
  3665  000624  00000332           	ddw	__ccov43_start_blk35	; block 35 START_ADDR
  3666  000628  00000364           	ddw	__ccov43_end_blk35	; block 35 END_ADDR
  3667  00062C  0000032E           	ddw	__ccov42_start_blk34	; block 34 START_ADDR
  3668  000630  00000332           	ddw	__ccov42_end_blk34	; block 34 END_ADDR
  3669  000634  0000032C           	ddw	__ccov41_start_blk33	; block 33 START_ADDR
  3670  000638  0000032E           	ddw	__ccov41_end_blk33	; block 33 END_ADDR
  3671  00063C  000002FC           	ddw	__ccov40_start_blk31	; block 31 START_ADDR
  3672  000640  0000032C           	ddw	__ccov40_end_blk31	; block 31 END_ADDR
  3673  000644  000002F0           	ddw	__ccov39_start_blk30	; block 30 START_ADDR
  3674  000648  000002FC           	ddw	__ccov39_end_blk30	; block 30 END_ADDR
  3675  00064C  000002EE           	ddw	__ccov38_start_blk29	; block 29 START_ADDR
  3676  000650  000002F0           	ddw	__ccov38_end_blk29	; block 29 END_ADDR
  3677  000654  00000166           	ddw	__ccov32_start_blk21	; block 21 START_ADDR
  3678  000658  00000196           	ddw	__ccov32_end_blk21	; block 21 END_ADDR
  3679  00065C  00000164           	ddw	__ccov31_start_blk20	; block 20 START_ADDR
  3680  000660  00000166           	ddw	__ccov31_end_blk20	; block 20 END_ADDR
  3681  000664  0000015C           	ddw	__ccov30_start_blk18	; block 18 START_ADDR
  3682  000668  00000164           	ddw	__ccov30_end_blk18	; block 18 END_ADDR
  3683  00066C  0000014C           	ddw	__ccov29_start_blk17	; block 17 START_ADDR
  3684  000670  0000015C           	ddw	__ccov29_end_blk17	; block 17 END_ADDR
  3685  000674  00000138           	ddw	__ccov28_start_blk16	; block 16 START_ADDR
  3686  000678  0000014C           	ddw	__ccov28_end_blk16	; block 16 END_ADDR
  3687  00067C  00000132           	ddw	__ccov27_start_blk15	; block 15 START_ADDR
  3688  000680  00000138           	ddw	__ccov27_end_blk15	; block 15 END_ADDR
  3689  000684  00000118           	ddw	__ccov26_start_blk13	; block 13 START_ADDR
  3690  000688  00000132           	ddw	__ccov26_end_blk13	; block 13 END_ADDR
  3691  00068C  0000004C           	ddw	__ccov21_start_blk4	; block 4 START_ADDR
  3692  000690  00000060           	ddw	__ccov21_end_blk4	; block 4 END_ADDR
  3693  000694  0000004A           	ddw	__ccov20_start_blk3	; block 3 START_ADDR
  3694  000698  0000004C           	ddw	__ccov20_end_blk3	; block 3 END_ADDR
  3695  00069C  0000003A           	ddw	__ccov19_start_blk2	; block 2 START_ADDR
  3696  0006A0  0000004A           	ddw	__ccov19_end_blk2	; block 2 END_ADDR
  3697  0006A4  00000012           	ddw	int_func	; block 0 START_ADDR
  3698  0006A8  00000032           	ddw	__ccov17_end_blk0	; block 0 END_ADDR
  3699                           
  3700                           ; Function: isr_INTERRUPTS, coverage: 51,0
  3701  0006AC  00000000           	ddw	0	; CC_ADDR_SPACE=Data
  3702  0006B0  00000003           	ddw	__ccovbit51_18/(0+8)	; CC_ADDR
  3703  0006B4  00000001           	ddw	1	; NUM_POINTS
  3704  0006B8  00000003           	ddw	__ccovbit51_18& (0+7)	; OFFSET
  3705  0006BC  00000000           	ddw	0	; Reserved
  3706  0006C0  FFFFFFFF           	ddw	4294967295	; RANGE_SPACE=restricted
  3707  0006C4  00000002           	ddw	2	; NUM_RANGES
  3708  0006C8  000004AE           	ddw	__ccov52_start_blk51	; block 51 START_ADDR
  3709  0006CC  000004C4           	ddw	__end_of_isr_INTERRUPTS	; block 51 END_ADDR
  3710  0006D0  00000012           	ddw	int_func	; block 0 START_ADDR
  3711  0006D4  00000032           	ddw	__ccov17_end_blk0	; block 0 END_ADDR
  3712                           
  3713                           ; Function: config_os, coverage: 3,2,1,0
  3714  0006D8  00000000           	ddw	0	; CC_ADDR_SPACE=Data
  3715  0006DC  00000003           	ddw	__ccovbit3_19/(0+8)	; CC_ADDR
  3716  0006E0  00000001           	ddw	1	; NUM_POINTS
  3717  0006E4  00000002           	ddw	__ccovbit3_19& (0+7)	; OFFSET
  3718  0006E8  00000000           	ddw	0	; Reserved
  3719  0006EC  FFFFFFFF           	ddw	4294967295	; RANGE_SPACE=restricted
  3720  0006F0  00000004           	ddw	4	; NUM_RANGES
  3721  0006F4  00000BD4           	ddw	__ccov56_start_blk3	; block 3 START_ADDR
  3722  0006F8  00000BD8           	ddw	__end_of_config_os	; block 3 END_ADDR
  3723  0006FC  00000BD0           	ddw	__ccov55_start_blk2	; block 2 START_ADDR
  3724  000700  00000BD4           	ddw	__ccov55_end_blk2	; block 2 END_ADDR
  3725  000704  00000BC8           	ddw	__ccov54_start_blk1	; block 1 START_ADDR
  3726  000708  00000BD0           	ddw	__ccov54_end_blk1	; block 1 END_ADDR
  3727  00070C  00000B9E           	ddw	_config_os	; block 0 START_ADDR
  3728  000710  00000BC8           	ddw	__ccov53_end_blk0	; block 0 END_ADDR
  3729                           
  3730                           ; Function: create_task, coverage: 7,6,5,4,3,2,1,0
  3731  000714  00000000           	ddw	0	; CC_ADDR_SPACE=Data
  3732  000718  00000003           	ddw	__ccovbit7_20/(0+8)	; CC_ADDR
  3733  00071C  00000001           	ddw	1	; NUM_POINTS
  3734  000720  00000001           	ddw	__ccovbit7_20& (0+7)	; OFFSET
  3735  000724  00000000           	ddw	0	; Reserved
  3736  000728  FFFFFFFF           	ddw	4294967295	; RANGE_SPACE=restricted
  3737  00072C  00000008           	ddw	8	; NUM_RANGES
  3738  000730  00000B5A           	ddw	__ccov64_start_blk7	; block 7 START_ADDR
  3739  000734  00000B5E           	ddw	__end_of_create_task	; block 7 END_ADDR
  3740  000738  00000B50           	ddw	__ccov63_start_blk6	; block 6 START_ADDR
  3741  00073C  00000B5A           	ddw	__ccov63_end_blk6	; block 6 END_ADDR
  3742  000740  00000B20           	ddw	__ccov62_start_blk5	; block 5 START_ADDR
  3743  000744  00000B50           	ddw	__ccov62_end_blk5	; block 5 END_ADDR
  3744  000748  00000B18           	ddw	__ccov61_start_blk4	; block 4 START_ADDR
  3745  00074C  00000B20           	ddw	__ccov61_end_blk4	; block 4 END_ADDR
  3746  000750  00000B10           	ddw	__ccov60_start_blk3	; block 3 START_ADDR
  3747  000754  00000B18           	ddw	__ccov60_end_blk3	; block 3 END_ADDR
  3748  000758  00000B0A           	ddw	__ccov59_start_blk2	; block 2 START_ADDR
  3749  00075C  00000B10           	ddw	__ccov59_end_blk2	; block 2 END_ADDR
  3750  000760  00000B02           	ddw	__ccov58_start_blk1	; block 1 START_ADDR
  3751  000764  00000B0A           	ddw	__ccov58_end_blk1	; block 1 END_ADDR
  3752  000768  00000AF2           	ddw	_create_task	; block 0 START_ADDR
  3753  00076C  00000B02           	ddw	__ccov57_end_blk0	; block 0 END_ADDR
  3754                           
  3755                           ; Function: start_os, coverage: 2,1,0
  3756  000770  00000000           	ddw	0	; CC_ADDR_SPACE=Data
  3757  000774  00000003           	ddw	__ccovbit2_21/(0+8)	; CC_ADDR
  3758  000778  00000001           	ddw	1	; NUM_POINTS
  3759  00077C  00000000           	ddw	__ccovbit2_21& (0+7)	; OFFSET
  3760  000780  00000000           	ddw	0	; Reserved
  3761  000784  FFFFFFFF           	ddw	4294967295	; RANGE_SPACE=restricted
  3762  000788  00000003           	ddw	3	; NUM_RANGES
  3763  00078C  00000D1A           	ddw	__ccov83_start_blk2	; block 2 START_ADDR
  3764  000790  00000D1E           	ddw	__end_of_start_os	; block 2 END_ADDR
  3765  000794  00000D12           	ddw	__ccov82_start_blk1	; block 1 START_ADDR
  3766  000798  00000D1A           	ddw	__ccov82_end_blk1	; block 1 END_ADDR
  3767  00079C  00000D0E           	ddw	_start_os	; block 0 START_ADDR
  3768  0007A0  00000D12           	ddw	__ccov81_end_blk0	; block 0 END_ADDR
  3769                           
  3770                           ; Function: delay_task, coverage: 10,9,8,7,6,5,3,2,1,0
  3771  0007A4  00000000           	ddw	0	; CC_ADDR_SPACE=Data
  3772  0007A8  00000002           	ddw	__ccovbit10_22/(0+8)	; CC_ADDR
  3773  0007AC  00000001           	ddw	1	; NUM_POINTS
  3774  0007B0  00000007           	ddw	__ccovbit10_22& (0+7)	; OFFSET
  3775  0007B4  00000000           	ddw	0	; Reserved
  3776  0007B8  FFFFFFFF           	ddw	4294967295	; RANGE_SPACE=restricted
  3777  0007BC  0000000A           	ddw	10	; NUM_RANGES
  3778  0007C0  0000063A           	ddw	__ccov94_start_blk10	; block 10 START_ADDR
  3779  0007C4  0000064C           	ddw	__ccov94_end_blk10	; block 10 END_ADDR
  3780  0007C8  00000634           	ddw	__ccov93_start_blk9	; block 9 START_ADDR
  3781  0007CC  0000063A           	ddw	__ccov93_end_blk9	; block 9 END_ADDR
  3782  0007D0  000005D6           	ddw	__ccov92_start_blk8	; block 8 START_ADDR
  3783  0007D4  00000634           	ddw	__ccov92_end_blk8	; block 8 END_ADDR
  3784  0007D8  00000536           	ddw	__ccov91_start_blk7	; block 7 START_ADDR
  3785  0007DC  000005D6           	ddw	__ccov91_end_blk7	; block 7 END_ADDR
  3786  0007E0  00000504           	ddw	__ccov90_start_blk6	; block 6 START_ADDR
  3787  0007E4  00000536           	ddw	__ccov90_end_blk6	; block 6 END_ADDR
  3788  0007E8  00000502           	ddw	__ccov89_start_blk5	; block 5 START_ADDR
  3789  0007EC  00000504           	ddw	__ccov89_end_blk5	; block 5 END_ADDR
  3790  0007F0  000004FA           	ddw	__ccov88_start_blk3	; block 3 START_ADDR
  3791  0007F4  00000502           	ddw	__ccov88_end_blk3	; block 3 END_ADDR
  3792  0007F8  000004F2           	ddw	__ccov87_start_blk2	; block 2 START_ADDR
  3793  0007FC  000004FA           	ddw	__ccov87_end_blk2	; block 2 END_ADDR
  3794  000800  000004C6           	ddw	__ccov86_start_blk1	; block 1 START_ADDR
  3795  000804  000004F2           	ddw	__ccov86_end_blk1	; block 1 END_ADDR
  3796  000808  000004C4           	ddw	_delay_task	; block 0 START_ADDR
  3797  00080C  000004C6           	ddw	__ccov85_end_blk0	; block 0 END_ADDR
  3798                           
  3799                           ; Function: delay_task, coverage: 12,10,9,8,7,6,5,3,2,1,0
  3800  000810  00000000           	ddw	0	; CC_ADDR_SPACE=Data
  3801  000814  00000002           	ddw	__ccovbit12_23/(0+8)	; CC_ADDR
  3802  000818  00000001           	ddw	1	; NUM_POINTS
  3803  00081C  00000006           	ddw	__ccovbit12_23& (0+7)	; OFFSET
  3804  000820  00000000           	ddw	0	; Reserved
  3805  000824  FFFFFFFF           	ddw	4294967295	; RANGE_SPACE=restricted
  3806  000828  0000000B           	ddw	11	; NUM_RANGES
  3807  00082C  0000064C           	ddw	__ccov95_start_blk12	; block 12 START_ADDR
  3808  000830  0000069E           	ddw	__ccov95_end_blk12	; block 12 END_ADDR
  3809  000834  0000063A           	ddw	__ccov94_start_blk10	; block 10 START_ADDR
  3810  000838  0000064C           	ddw	__ccov94_end_blk10	; block 10 END_ADDR
  3811  00083C  00000634           	ddw	__ccov93_start_blk9	; block 9 START_ADDR
  3812  000840  0000063A           	ddw	__ccov93_end_blk9	; block 9 END_ADDR
  3813  000844  000005D6           	ddw	__ccov92_start_blk8	; block 8 START_ADDR
  3814  000848  00000634           	ddw	__ccov92_end_blk8	; block 8 END_ADDR
  3815  00084C  00000536           	ddw	__ccov91_start_blk7	; block 7 START_ADDR
  3816  000850  000005D6           	ddw	__ccov91_end_blk7	; block 7 END_ADDR
  3817  000854  00000504           	ddw	__ccov90_start_blk6	; block 6 START_ADDR
  3818  000858  00000536           	ddw	__ccov90_end_blk6	; block 6 END_ADDR
  3819  00085C  00000502           	ddw	__ccov89_start_blk5	; block 5 START_ADDR
  3820  000860  00000504           	ddw	__ccov89_end_blk5	; block 5 END_ADDR
  3821  000864  000004FA           	ddw	__ccov88_start_blk3	; block 3 START_ADDR
  3822  000868  00000502           	ddw	__ccov88_end_blk3	; block 3 END_ADDR
  3823  00086C  000004F2           	ddw	__ccov87_start_blk2	; block 2 START_ADDR
  3824  000870  000004FA           	ddw	__ccov87_end_blk2	; block 2 END_ADDR
  3825  000874  000004C6           	ddw	__ccov86_start_blk1	; block 1 START_ADDR
  3826  000878  000004F2           	ddw	__ccov86_end_blk1	; block 1 END_ADDR
  3827  00087C  000004C4           	ddw	_delay_task	; block 0 START_ADDR
  3828  000880  000004C6           	ddw	__ccov85_end_blk0	; block 0 END_ADDR
  3829                           
  3830                           ; Function: delay_task, coverage: 24,23,26,21,20,19,18,16,15,14,6,5,3,2,1,0
  3831  000884  00000000           	ddw	0	; CC_ADDR_SPACE=Data
  3832  000888  00000002           	ddw	__ccovbit24_24/(0+8)	; CC_ADDR
  3833  00088C  00000001           	ddw	1	; NUM_POINTS
  3834  000890  00000005           	ddw	__ccovbit24_24& (0+7)	; OFFSET
  3835  000894  00000000           	ddw	0	; Reserved
  3836  000898  FFFFFFFF           	ddw	4294967295	; RANGE_SPACE=restricted
  3837  00089C  00000010           	ddw	16	; NUM_RANGES
  3838  0008A0  0000079A           	ddw	__ccov104_start_blk24	; block 24 START_ADDR
  3839  0008A4  000007FA           	ddw	__ccov104_end_blk24	; block 24 END_ADDR
  3840  0008A8  00000792           	ddw	__ccov103_start_blk23	; block 23 START_ADDR
  3841  0008AC  0000079A           	ddw	__ccov103_end_blk23	; block 23 END_ADDR
  3842  0008B0  000007FA           	ddw	__ccov105_start_blk26	; block 26 START_ADDR
  3843  0008B4  00000812           	ddw	__ccov105_end_blk26	; block 26 END_ADDR
  3844  0008B8  0000071A           	ddw	__ccov102_start_blk21	; block 21 START_ADDR
  3845  0008BC  00000792           	ddw	__ccov102_end_blk21	; block 21 END_ADDR
  3846  0008C0  000006E6           	ddw	__ccov101_start_blk20	; block 20 START_ADDR
  3847  0008C4  0000071A           	ddw	__ccov101_end_blk20	; block 20 END_ADDR
  3848  0008C8  000006E2           	ddw	__ccov100_start_blk19	; block 19 START_ADDR
  3849  0008CC  000006E6           	ddw	__ccov100_end_blk19	; block 19 END_ADDR
  3850  0008D0  000006E0           	ddw	__ccov99_start_blk18	; block 18 START_ADDR
  3851  0008D4  000006E2           	ddw	__ccov99_end_blk18	; block 18 END_ADDR
  3852  0008D8  000006AE           	ddw	__ccov98_start_blk16	; block 16 START_ADDR
  3853  0008DC  000006E0           	ddw	__ccov98_end_blk16	; block 16 END_ADDR
  3854  0008E0  000006A0           	ddw	__ccov97_start_blk15	; block 15 START_ADDR
  3855  0008E4  000006AE           	ddw	__ccov97_end_blk15	; block 15 END_ADDR
  3856  0008E8  0000069E           	ddw	__ccov96_start_blk14	; block 14 START_ADDR
  3857  0008EC  000006A0           	ddw	__ccov96_end_blk14	; block 14 END_ADDR
  3858  0008F0  00000504           	ddw	__ccov90_start_blk6	; block 6 START_ADDR
  3859  0008F4  00000536           	ddw	__ccov90_end_blk6	; block 6 END_ADDR
  3860  0008F8  00000502           	ddw	__ccov89_start_blk5	; block 5 START_ADDR
  3861  0008FC  00000504           	ddw	__ccov89_end_blk5	; block 5 END_ADDR
  3862  000900  000004FA           	ddw	__ccov88_start_blk3	; block 3 START_ADDR
  3863  000904  00000502           	ddw	__ccov88_end_blk3	; block 3 END_ADDR
  3864  000908  000004F2           	ddw	__ccov87_start_blk2	; block 2 START_ADDR
  3865  00090C  000004FA           	ddw	__ccov87_end_blk2	; block 2 END_ADDR
  3866  000910  000004C6           	ddw	__ccov86_start_blk1	; block 1 START_ADDR
  3867  000914  000004F2           	ddw	__ccov86_end_blk1	; block 1 END_ADDR
  3868  000918  000004C4           	ddw	_delay_task	; block 0 START_ADDR
  3869  00091C  000004C6           	ddw	__ccov85_end_blk0	; block 0 END_ADDR
  3870                           
  3871                           ; Function: delay_task, coverage: 26,21,20,19,18,16,15,14,6,5,3,2,1,0
  3872  000920  00000000           	ddw	0	; CC_ADDR_SPACE=Data
  3873  000924  00000002           	ddw	__ccovbit26_25/(0+8)	; CC_ADDR
  3874  000928  00000001           	ddw	1	; NUM_POINTS
  3875  00092C  00000004           	ddw	__ccovbit26_25& (0+7)	; OFFSET
  3876  000930  00000000           	ddw	0	; Reserved
  3877  000934  FFFFFFFF           	ddw	4294967295	; RANGE_SPACE=restricted
  3878  000938  0000000E           	ddw	14	; NUM_RANGES
  3879  00093C  000007FA           	ddw	__ccov105_start_blk26	; block 26 START_ADDR
  3880  000940  00000812           	ddw	__ccov105_end_blk26	; block 26 END_ADDR
  3881  000944  0000071A           	ddw	__ccov102_start_blk21	; block 21 START_ADDR
  3882  000948  00000792           	ddw	__ccov102_end_blk21	; block 21 END_ADDR
  3883  00094C  000006E6           	ddw	__ccov101_start_blk20	; block 20 START_ADDR
  3884  000950  0000071A           	ddw	__ccov101_end_blk20	; block 20 END_ADDR
  3885  000954  000006E2           	ddw	__ccov100_start_blk19	; block 19 START_ADDR
  3886  000958  000006E6           	ddw	__ccov100_end_blk19	; block 19 END_ADDR
  3887  00095C  000006E0           	ddw	__ccov99_start_blk18	; block 18 START_ADDR
  3888  000960  000006E2           	ddw	__ccov99_end_blk18	; block 18 END_ADDR
  3889  000964  000006AE           	ddw	__ccov98_start_blk16	; block 16 START_ADDR
  3890  000968  000006E0           	ddw	__ccov98_end_blk16	; block 16 END_ADDR
  3891  00096C  000006A0           	ddw	__ccov97_start_blk15	; block 15 START_ADDR
  3892  000970  000006AE           	ddw	__ccov97_end_blk15	; block 15 END_ADDR
  3893  000974  0000069E           	ddw	__ccov96_start_blk14	; block 14 START_ADDR
  3894  000978  000006A0           	ddw	__ccov96_end_blk14	; block 14 END_ADDR
  3895  00097C  00000504           	ddw	__ccov90_start_blk6	; block 6 START_ADDR
  3896  000980  00000536           	ddw	__ccov90_end_blk6	; block 6 END_ADDR
  3897  000984  00000502           	ddw	__ccov89_start_blk5	; block 5 START_ADDR
  3898  000988  00000504           	ddw	__ccov89_end_blk5	; block 5 END_ADDR
  3899  00098C  000004FA           	ddw	__ccov88_start_blk3	; block 3 START_ADDR
  3900  000990  00000502           	ddw	__ccov88_end_blk3	; block 3 END_ADDR
  3901  000994  000004F2           	ddw	__ccov87_start_blk2	; block 2 START_ADDR
  3902  000998  000004FA           	ddw	__ccov87_end_blk2	; block 2 END_ADDR
  3903  00099C  000004C6           	ddw	__ccov86_start_blk1	; block 1 START_ADDR
  3904  0009A0  000004F2           	ddw	__ccov86_end_blk1	; block 1 END_ADDR
  3905  0009A4  000004C4           	ddw	_delay_task	; block 0 START_ADDR
  3906  0009A8  000004C6           	ddw	__ccov85_end_blk0	; block 0 END_ADDR
  3907                           
  3908                           ; Function: delay_task, coverage: 29,28,20,19,18,16,15,14,6,5,3,2,1,0
  3909  0009AC  00000000           	ddw	0	; CC_ADDR_SPACE=Data
  3910  0009B0  00000002           	ddw	__ccovbit29_26/(0+8)	; CC_ADDR
  3911  0009B4  00000001           	ddw	1	; NUM_POINTS
  3912  0009B8  00000003           	ddw	__ccovbit29_26& (0+7)	; OFFSET
  3913  0009BC  00000000           	ddw	0	; Reserved
  3914  0009C0  FFFFFFFF           	ddw	4294967295	; RANGE_SPACE=restricted
  3915  0009C4  0000000E           	ddw	14	; NUM_RANGES
  3916  0009C8  00000814           	ddw	__ccov107_start_blk29	; block 29 START_ADDR
  3917  0009CC  0000084C           	ddw	__ccov107_end_blk29	; block 29 END_ADDR
  3918  0009D0  00000812           	ddw	__ccov106_start_blk28	; block 28 START_ADDR
  3919  0009D4  00000814           	ddw	__ccov106_end_blk28	; block 28 END_ADDR
  3920  0009D8  000006E6           	ddw	__ccov101_start_blk20	; block 20 START_ADDR
  3921  0009DC  0000071A           	ddw	__ccov101_end_blk20	; block 20 END_ADDR
  3922  0009E0  000006E2           	ddw	__ccov100_start_blk19	; block 19 START_ADDR
  3923  0009E4  000006E6           	ddw	__ccov100_end_blk19	; block 19 END_ADDR
  3924  0009E8  000006E0           	ddw	__ccov99_start_blk18	; block 18 START_ADDR
  3925  0009EC  000006E2           	ddw	__ccov99_end_blk18	; block 18 END_ADDR
  3926  0009F0  000006AE           	ddw	__ccov98_start_blk16	; block 16 START_ADDR
  3927  0009F4  000006E0           	ddw	__ccov98_end_blk16	; block 16 END_ADDR
  3928  0009F8  000006A0           	ddw	__ccov97_start_blk15	; block 15 START_ADDR
  3929  0009FC  000006AE           	ddw	__ccov97_end_blk15	; block 15 END_ADDR
  3930  000A00  0000069E           	ddw	__ccov96_start_blk14	; block 14 START_ADDR
  3931  000A04  000006A0           	ddw	__ccov96_end_blk14	; block 14 END_ADDR
  3932  000A08  00000504           	ddw	__ccov90_start_blk6	; block 6 START_ADDR
  3933  000A0C  00000536           	ddw	__ccov90_end_blk6	; block 6 END_ADDR
  3934  000A10  00000502           	ddw	__ccov89_start_blk5	; block 5 START_ADDR
  3935  000A14  00000504           	ddw	__ccov89_end_blk5	; block 5 END_ADDR
  3936  000A18  000004FA           	ddw	__ccov88_start_blk3	; block 3 START_ADDR
  3937  000A1C  00000502           	ddw	__ccov88_end_blk3	; block 3 END_ADDR
  3938  000A20  000004F2           	ddw	__ccov87_start_blk2	; block 2 START_ADDR
  3939  000A24  000004FA           	ddw	__ccov87_end_blk2	; block 2 END_ADDR
  3940  000A28  000004C6           	ddw	__ccov86_start_blk1	; block 1 START_ADDR
  3941  000A2C  000004F2           	ddw	__ccov86_end_blk1	; block 1 END_ADDR
  3942  000A30  000004C4           	ddw	_delay_task	; block 0 START_ADDR
  3943  000A34  000004C6           	ddw	__ccov85_end_blk0	; block 0 END_ADDR
  3944                           
  3945                           ; Function: delay_task, coverage: 33,31,30,20,19,18,16,15,14,6,5,3,2,1,0
  3946  000A38  00000000           	ddw	0	; CC_ADDR_SPACE=Data
  3947  000A3C  00000002           	ddw	__ccovbit33_27/(0+8)	; CC_ADDR
  3948  000A40  00000001           	ddw	1	; NUM_POINTS
  3949  000A44  00000002           	ddw	__ccovbit33_27& (0+7)	; OFFSET
  3950  000A48  00000000           	ddw	0	; Reserved
  3951  000A4C  FFFFFFFF           	ddw	4294967295	; RANGE_SPACE=restricted
  3952  000A50  0000000F           	ddw	15	; NUM_RANGES
  3953  000A54  00000874           	ddw	__ccov110_start_blk33	; block 33 START_ADDR
  3954  000A58  00000878           	ddw	__end_of_delay_task	; block 33 END_ADDR
  3955  000A5C  00000872           	ddw	__ccov109_start_blk31	; block 31 START_ADDR
  3956  000A60  00000874           	ddw	__ccov109_end_blk31	; block 31 END_ADDR
  3957  000A64  0000084C           	ddw	__ccov108_start_blk30	; block 30 START_ADDR
  3958  000A68  00000872           	ddw	__ccov108_end_blk30	; block 30 END_ADDR
  3959  000A6C  000006E6           	ddw	__ccov101_start_blk20	; block 20 START_ADDR
  3960  000A70  0000071A           	ddw	__ccov101_end_blk20	; block 20 END_ADDR
  3961  000A74  000006E2           	ddw	__ccov100_start_blk19	; block 19 START_ADDR
  3962  000A78  000006E6           	ddw	__ccov100_end_blk19	; block 19 END_ADDR
  3963  000A7C  000006E0           	ddw	__ccov99_start_blk18	; block 18 START_ADDR
  3964  000A80  000006E2           	ddw	__ccov99_end_blk18	; block 18 END_ADDR
  3965  000A84  000006AE           	ddw	__ccov98_start_blk16	; block 16 START_ADDR
  3966  000A88  000006E0           	ddw	__ccov98_end_blk16	; block 16 END_ADDR
  3967  000A8C  000006A0           	ddw	__ccov97_start_blk15	; block 15 START_ADDR
  3968  000A90  000006AE           	ddw	__ccov97_end_blk15	; block 15 END_ADDR
  3969  000A94  0000069E           	ddw	__ccov96_start_blk14	; block 14 START_ADDR
  3970  000A98  000006A0           	ddw	__ccov96_end_blk14	; block 14 END_ADDR
  3971  000A9C  00000504           	ddw	__ccov90_start_blk6	; block 6 START_ADDR
  3972  000AA0  00000536           	ddw	__ccov90_end_blk6	; block 6 END_ADDR
  3973  000AA4  00000502           	ddw	__ccov89_start_blk5	; block 5 START_ADDR
  3974  000AA8  00000504           	ddw	__ccov89_end_blk5	; block 5 END_ADDR
  3975  000AAC  000004FA           	ddw	__ccov88_start_blk3	; block 3 START_ADDR
  3976  000AB0  00000502           	ddw	__ccov88_end_blk3	; block 3 END_ADDR
  3977  000AB4  000004F2           	ddw	__ccov87_start_blk2	; block 2 START_ADDR
  3978  000AB8  000004FA           	ddw	__ccov87_end_blk2	; block 2 END_ADDR
  3979  000ABC  000004C6           	ddw	__ccov86_start_blk1	; block 1 START_ADDR
  3980  000AC0  000004F2           	ddw	__ccov86_end_blk1	; block 1 END_ADDR
  3981  000AC4  000004C4           	ddw	_delay_task	; block 0 START_ADDR
  3982  000AC8  000004C6           	ddw	__ccov85_end_blk0	; block 0 END_ADDR
  3983                           
  3984                           ; Function: PRIOR_scheduler, coverage: 5,4,11,2,1,0
  3985  000ACC  00000000           	ddw	0	; CC_ADDR_SPACE=Data
  3986  000AD0  00000002           	ddw	__ccovbit5_28/(0+8)	; CC_ADDR
  3987  000AD4  00000001           	ddw	1	; NUM_POINTS
  3988  000AD8  00000001           	ddw	__ccovbit5_28& (0+7)	; OFFSET
  3989  000ADC  00000000           	ddw	0	; Reserved
  3990  000AE0  FFFFFFFF           	ddw	4294967295	; RANGE_SPACE=restricted
  3991  000AE4  00000006           	ddw	6	; NUM_RANGES
  3992  000AE8  000008F0           	ddw	__ccov119_start_blk5	; block 5 START_ADDR
  3993  000AEC  00000924           	ddw	__ccov119_end_blk5	; block 5 END_ADDR
  3994  000AF0  000008B8           	ddw	__ccov118_start_blk4	; block 4 START_ADDR
  3995  000AF4  000008F0           	ddw	__ccov118_end_blk4	; block 4 END_ADDR
  3996  000AF8  0000095E           	ddw	__ccov123_start_blk11	; block 11 START_ADDR
  3997  000AFC  00000978           	ddw	__ccov123_end_blk11	; block 11 END_ADDR
  3998  000B00  000008AC           	ddw	__ccov117_start_blk2	; block 2 START_ADDR
  3999  000B04  000008B8           	ddw	__ccov117_end_blk2	; block 2 END_ADDR
  4000  000B08  00000882           	ddw	__ccov116_start_blk1	; block 1 START_ADDR
  4001  000B0C  000008AC           	ddw	__ccov116_end_blk1	; block 1 END_ADDR
  4002  000B10  00000878           	ddw	_PRIOR_scheduler	; block 0 START_ADDR
  4003  000B14  00000882           	ddw	__ccov115_end_blk0	; block 0 END_ADDR
  4004                           
  4005                           ; Function: PRIOR_scheduler, coverage: 7,6,5,4,11,2,1,0
  4006  000B18  00000000           	ddw	0	; CC_ADDR_SPACE=Data
  4007  000B1C  00000002           	ddw	__ccovbit7_29/(0+8)	; CC_ADDR
  4008  000B20  00000001           	ddw	1	; NUM_POINTS
  4009  000B24  00000000           	ddw	__ccovbit7_29& (0+7)	; OFFSET
  4010  000B28  00000000           	ddw	0	; Reserved
  4011  000B2C  FFFFFFFF           	ddw	4294967295	; RANGE_SPACE=restricted
  4012  000B30  00000008           	ddw	8	; NUM_RANGES
  4013  000B34  0000094E           	ddw	__ccov121_start_blk7	; block 7 START_ADDR
  4014  000B38  00000958           	ddw	__ccov121_end_blk7	; block 7 END_ADDR
  4015  000B3C  00000924           	ddw	__ccov120_start_blk6	; block 6 START_ADDR
  4016  000B40  0000094E           	ddw	__ccov120_end_blk6	; block 6 END_ADDR
  4017  000B44  000008F0           	ddw	__ccov119_start_blk5	; block 5 START_ADDR
  4018  000B48  00000924           	ddw	__ccov119_end_blk5	; block 5 END_ADDR
  4019  000B4C  000008B8           	ddw	__ccov118_start_blk4	; block 4 START_ADDR
  4020  000B50  000008F0           	ddw	__ccov118_end_blk4	; block 4 END_ADDR
  4021  000B54  0000095E           	ddw	__ccov123_start_blk11	; block 11 START_ADDR
  4022  000B58  00000978           	ddw	__ccov123_end_blk11	; block 11 END_ADDR
  4023  000B5C  000008AC           	ddw	__ccov117_start_blk2	; block 2 START_ADDR
  4024  000B60  000008B8           	ddw	__ccov117_end_blk2	; block 2 END_ADDR
  4025  000B64  00000882           	ddw	__ccov116_start_blk1	; block 1 START_ADDR
  4026  000B68  000008AC           	ddw	__ccov116_end_blk1	; block 1 END_ADDR
  4027  000B6C  00000878           	ddw	_PRIOR_scheduler	; block 0 START_ADDR
  4028  000B70  00000882           	ddw	__ccov115_end_blk0	; block 0 END_ADDR
  4029                           
  4030                           ; Function: PRIOR_scheduler, coverage: 9,4,11,2,1,0
  4031  000B74  00000000           	ddw	0	; CC_ADDR_SPACE=Data
  4032  000B78  00000001           	ddw	__ccovbit9_30/(0+8)	; CC_ADDR
  4033  000B7C  00000001           	ddw	1	; NUM_POINTS
  4034  000B80  00000007           	ddw	__ccovbit9_30& (0+7)	; OFFSET
  4035  000B84  00000000           	ddw	0	; Reserved
  4036  000B88  FFFFFFFF           	ddw	4294967295	; RANGE_SPACE=restricted
  4037  000B8C  00000006           	ddw	6	; NUM_RANGES
  4038  000B90  00000958           	ddw	__ccov122_start_blk9	; block 9 START_ADDR
  4039  000B94  0000095E           	ddw	__ccov122_end_blk9	; block 9 END_ADDR
  4040  000B98  000008B8           	ddw	__ccov118_start_blk4	; block 4 START_ADDR
  4041  000B9C  000008F0           	ddw	__ccov118_end_blk4	; block 4 END_ADDR
  4042  000BA0  0000095E           	ddw	__ccov123_start_blk11	; block 11 START_ADDR
  4043  000BA4  00000978           	ddw	__ccov123_end_blk11	; block 11 END_ADDR
  4044  000BA8  000008AC           	ddw	__ccov117_start_blk2	; block 2 START_ADDR
  4045  000BAC  000008B8           	ddw	__ccov117_end_blk2	; block 2 END_ADDR
  4046  000BB0  00000882           	ddw	__ccov116_start_blk1	; block 1 START_ADDR
  4047  000BB4  000008AC           	ddw	__ccov116_end_blk1	; block 1 END_ADDR
  4048  000BB8  00000878           	ddw	_PRIOR_scheduler	; block 0 START_ADDR
  4049  000BBC  00000882           	ddw	__ccov115_end_blk0	; block 0 END_ADDR
  4050                           
  4051                           ; Function: PRIOR_scheduler, coverage: 13,12,11,2,1,0
  4052  000BC0  00000000           	ddw	0	; CC_ADDR_SPACE=Data
  4053  000BC4  00000001           	ddw	__ccovbit13_31/(0+8)	; CC_ADDR
  4054  000BC8  00000001           	ddw	1	; NUM_POINTS
  4055  000BCC  00000006           	ddw	__ccovbit13_31& (0+7)	; OFFSET
  4056  000BD0  00000000           	ddw	0	; Reserved
  4057  000BD4  FFFFFFFF           	ddw	4294967295	; RANGE_SPACE=restricted
  4058  000BD8  00000006           	ddw	6	; NUM_RANGES
  4059  000BDC  00000980           	ddw	__ccov125_start_blk13	; block 13 START_ADDR
  4060  000BE0  00000984           	ddw	__end_of_PRIOR_scheduler	; block 13 END_ADDR
  4061  000BE4  00000978           	ddw	__ccov124_start_blk12	; block 12 START_ADDR
  4062  000BE8  00000980           	ddw	__ccov124_end_blk12	; block 12 END_ADDR
  4063  000BEC  0000095E           	ddw	__ccov123_start_blk11	; block 11 START_ADDR
  4064  000BF0  00000978           	ddw	__ccov123_end_blk11	; block 11 END_ADDR
  4065  000BF4  000008AC           	ddw	__ccov117_start_blk2	; block 2 START_ADDR
  4066  000BF8  000008B8           	ddw	__ccov117_end_blk2	; block 2 END_ADDR
  4067  000BFC  00000882           	ddw	__ccov116_start_blk1	; block 1 START_ADDR
  4068  000C00  000008AC           	ddw	__ccov116_end_blk1	; block 1 END_ADDR
  4069  000C04  00000878           	ddw	_PRIOR_scheduler	; block 0 START_ADDR
  4070  000C08  00000882           	ddw	__ccov115_end_blk0	; block 0 END_ADDR
  4071                           
  4072                           ; Function: scheduler, coverage: 3,1,0
  4073  000C0C  00000000           	ddw	0	; CC_ADDR_SPACE=Data
  4074  000C10  00000001           	ddw	__ccovbit3_32/(0+8)	; CC_ADDR
  4075  000C14  00000001           	ddw	1	; NUM_POINTS
  4076  000C18  00000005           	ddw	__ccovbit3_32& (0+7)	; OFFSET
  4077  000C1C  00000000           	ddw	0	; Reserved
  4078  000C20  FFFFFFFF           	ddw	4294967295	; RANGE_SPACE=restricted
  4079  000C24  00000003           	ddw	3	; NUM_RANGES
  4080  000C28  00000CF2           	ddw	__ccov130_start_blk3	; block 3 START_ADDR
  4081  000C2C  00000CF6           	ddw	__end_of_scheduler	; block 3 END_ADDR
  4082  000C30  00000CEA           	ddw	__ccov129_start_blk1	; block 1 START_ADDR
  4083  000C34  00000CF2           	ddw	__ccov129_end_blk1	; block 1 END_ADDR
  4084  000C38  00000CDE           	ddw	_scheduler	; block 0 START_ADDR
  4085  000C3C  00000CEA           	ddw	__ccov128_end_blk0	; block 0 END_ADDR
  4086                           
  4087                           ; Function: PRIOR_scheduler, coverage: 5,4,11,2,1,0
  4088  000C40  00000000           	ddw	0	; CC_ADDR_SPACE=Data
  4089  000C44  00000001           	ddw	__ccovbit5_33/(0+8)	; CC_ADDR
  4090  000C48  00000001           	ddw	1	; NUM_POINTS
  4091  000C4C  00000004           	ddw	__ccovbit5_33& (0+7)	; OFFSET
  4092  000C50  00000000           	ddw	0	; Reserved
  4093  000C54  FFFFFFFF           	ddw	4294967295	; RANGE_SPACE=restricted
  4094  000C58  00000006           	ddw	6	; NUM_RANGES
  4095  000C5C  000009F6           	ddw	__ccov135_start_blk5	; block 5 START_ADDR
  4096  000C60  00000A28           	ddw	__ccov135_end_blk5	; block 5 END_ADDR
  4097  000C64  000009C0           	ddw	__ccov134_start_blk4	; block 4 START_ADDR
  4098  000C68  000009F6           	ddw	__ccov134_end_blk4	; block 4 END_ADDR
  4099  000C6C  00000A60           	ddw	__ccov139_start_blk11	; block 11 START_ADDR
  4100  000C70  00000A7A           	ddw	__ccov139_end_blk11	; block 11 END_ADDR
  4101  000C74  000009B4           	ddw	__ccov133_start_blk2	; block 2 START_ADDR
  4102  000C78  000009C0           	ddw	__ccov133_end_blk2	; block 2 END_ADDR
  4103  000C7C  0000098C           	ddw	__ccov132_start_blk1	; block 1 START_ADDR
  4104  000C80  000009B4           	ddw	__ccov132_end_blk1	; block 1 END_ADDR
  4105  000C84  00000984           	ddw	i2_PRIOR_scheduler	; block 0 START_ADDR
  4106  000C88  0000098C           	ddw	__ccov131_end_blk0	; block 0 END_ADDR
  4107                           
  4108                           ; Function: PRIOR_scheduler, coverage: 7,6,5,4,11,2,1,0
  4109  000C8C  00000000           	ddw	0	; CC_ADDR_SPACE=Data
  4110  000C90  00000001           	ddw	__ccovbit7_34/(0+8)	; CC_ADDR
  4111  000C94  00000001           	ddw	1	; NUM_POINTS
  4112  000C98  00000003           	ddw	__ccovbit7_34& (0+7)	; OFFSET
  4113  000C9C  00000000           	ddw	0	; Reserved
  4114  000CA0  FFFFFFFF           	ddw	4294967295	; RANGE_SPACE=restricted
  4115  000CA4  00000008           	ddw	8	; NUM_RANGES
  4116  000CA8  00000A50           	ddw	__ccov137_start_blk7	; block 7 START_ADDR
  4117  000CAC  00000A5A           	ddw	__ccov137_end_blk7	; block 7 END_ADDR
  4118  000CB0  00000A28           	ddw	__ccov136_start_blk6	; block 6 START_ADDR
  4119  000CB4  00000A50           	ddw	__ccov136_end_blk6	; block 6 END_ADDR
  4120  000CB8  000009F6           	ddw	__ccov135_start_blk5	; block 5 START_ADDR
  4121  000CBC  00000A28           	ddw	__ccov135_end_blk5	; block 5 END_ADDR
  4122  000CC0  000009C0           	ddw	__ccov134_start_blk4	; block 4 START_ADDR
  4123  000CC4  000009F6           	ddw	__ccov134_end_blk4	; block 4 END_ADDR
  4124  000CC8  00000A60           	ddw	__ccov139_start_blk11	; block 11 START_ADDR
  4125  000CCC  00000A7A           	ddw	__ccov139_end_blk11	; block 11 END_ADDR
  4126  000CD0  000009B4           	ddw	__ccov133_start_blk2	; block 2 START_ADDR
  4127  000CD4  000009C0           	ddw	__ccov133_end_blk2	; block 2 END_ADDR
  4128  000CD8  0000098C           	ddw	__ccov132_start_blk1	; block 1 START_ADDR
  4129  000CDC  000009B4           	ddw	__ccov132_end_blk1	; block 1 END_ADDR
  4130  000CE0  00000984           	ddw	i2_PRIOR_scheduler	; block 0 START_ADDR
  4131  000CE4  0000098C           	ddw	__ccov131_end_blk0	; block 0 END_ADDR
  4132                           
  4133                           ; Function: PRIOR_scheduler, coverage: 9,4,11,2,1,0
  4134  000CE8  00000000           	ddw	0	; CC_ADDR_SPACE=Data
  4135  000CEC  00000001           	ddw	__ccovbit9_35/(0+8)	; CC_ADDR
  4136  000CF0  00000001           	ddw	1	; NUM_POINTS
  4137  000CF4  00000002           	ddw	__ccovbit9_35& (0+7)	; OFFSET
  4138  000CF8  00000000           	ddw	0	; Reserved
  4139  000CFC  FFFFFFFF           	ddw	4294967295	; RANGE_SPACE=restricted
  4140  000D00  00000006           	ddw	6	; NUM_RANGES
  4141  000D04  00000A5A           	ddw	__ccov138_start_blk9	; block 9 START_ADDR
  4142  000D08  00000A60           	ddw	__ccov138_end_blk9	; block 9 END_ADDR
  4143  000D0C  000009C0           	ddw	__ccov134_start_blk4	; block 4 START_ADDR
  4144  000D10  000009F6           	ddw	__ccov134_end_blk4	; block 4 END_ADDR
  4145  000D14  00000A60           	ddw	__ccov139_start_blk11	; block 11 START_ADDR
  4146  000D18  00000A7A           	ddw	__ccov139_end_blk11	; block 11 END_ADDR
  4147  000D1C  000009B4           	ddw	__ccov133_start_blk2	; block 2 START_ADDR
  4148  000D20  000009C0           	ddw	__ccov133_end_blk2	; block 2 END_ADDR
  4149  000D24  0000098C           	ddw	__ccov132_start_blk1	; block 1 START_ADDR
  4150  000D28  000009B4           	ddw	__ccov132_end_blk1	; block 1 END_ADDR
  4151  000D2C  00000984           	ddw	i2_PRIOR_scheduler	; block 0 START_ADDR
  4152  000D30  0000098C           	ddw	__ccov131_end_blk0	; block 0 END_ADDR
  4153                           
  4154                           ; Function: PRIOR_scheduler, coverage: 13,12,11,2,1,0
  4155  000D34  00000000           	ddw	0	; CC_ADDR_SPACE=Data
  4156  000D38  00000001           	ddw	__ccovbit13_36/(0+8)	; CC_ADDR
  4157  000D3C  00000001           	ddw	1	; NUM_POINTS
  4158  000D40  00000001           	ddw	__ccovbit13_36& (0+7)	; OFFSET
  4159  000D44  00000000           	ddw	0	; Reserved
  4160  000D48  FFFFFFFF           	ddw	4294967295	; RANGE_SPACE=restricted
  4161  000D4C  00000006           	ddw	6	; NUM_RANGES
  4162  000D50  00000A82           	ddw	__ccov141_start_blk13	; block 13 START_ADDR
  4163  000D54  00000A86           	ddw	__end_ofi2_PRIOR_scheduler	; block 13 END_ADDR
  4164  000D58  00000A7A           	ddw	__ccov140_start_blk12	; block 12 START_ADDR
  4165  000D5C  00000A82           	ddw	__ccov140_end_blk12	; block 12 END_ADDR
  4166  000D60  00000A60           	ddw	__ccov139_start_blk11	; block 11 START_ADDR
  4167  000D64  00000A7A           	ddw	__ccov139_end_blk11	; block 11 END_ADDR
  4168  000D68  000009B4           	ddw	__ccov133_start_blk2	; block 2 START_ADDR
  4169  000D6C  000009C0           	ddw	__ccov133_end_blk2	; block 2 END_ADDR
  4170  000D70  0000098C           	ddw	__ccov132_start_blk1	; block 1 START_ADDR
  4171  000D74  000009B4           	ddw	__ccov132_end_blk1	; block 1 END_ADDR
  4172  000D78  00000984           	ddw	i2_PRIOR_scheduler	; block 0 START_ADDR
  4173  000D7C  0000098C           	ddw	__ccov131_end_blk0	; block 0 END_ADDR
  4174                           
  4175                           ; Function: scheduler, coverage: 3,1,0
  4176  000D80  00000000           	ddw	0	; CC_ADDR_SPACE=Data
  4177  000D84  00000001           	ddw	__ccovbit3_37/(0+8)	; CC_ADDR
  4178  000D88  00000001           	ddw	1	; NUM_POINTS
  4179  000D8C  00000000           	ddw	__ccovbit3_37& (0+7)	; OFFSET
  4180  000D90  00000000           	ddw	0	; Reserved
  4181  000D94  FFFFFFFF           	ddw	4294967295	; RANGE_SPACE=restricted
  4182  000D98  00000003           	ddw	3	; NUM_RANGES
  4183  000D9C  00000D0A           	ddw	__ccov144_start_blk3	; block 3 START_ADDR
  4184  000DA0  00000D0E           	ddw	__end_ofi2_scheduler	; block 3 END_ADDR
  4185  000DA4  00000D02           	ddw	__ccov143_start_blk1	; block 1 START_ADDR
  4186  000DA8  00000D0A           	ddw	__ccov143_end_blk1	; block 1 END_ADDR
  4187  000DAC  00000CF6           	ddw	i2_scheduler	; block 0 START_ADDR
  4188  000DB0  00000D02           	ddw	__ccov142_end_blk0	; block 0 END_ADDR
  4189  0000                     
  4190                           	psect	text17
  4191  000000                     __ptext17:
  4192                           	callstack 0
  4193  000000                     
  4194                           	psect	rparam
  4195  0000                     
  4196                           	psect	temp
  4197  00002D                     btemp:
  4198                           	callstack 0
  4199  00002D                     	ds	1
  4200  0000                     int$flags	set	btemp
  4201  0000                     wtemp8	set	btemp+1
  4202  0000                     ttemp5	set	btemp+1
  4203  0000                     ttemp6	set	btemp+4
  4204  0000                     ttemp7	set	btemp+8
  4205                           
  4206                           	psect	idloc
  4207                           
  4208                           ;Config register IDLOC0 @ 0x200000
  4209                           ;	unspecified, using default values
  4210  200000                     	org	2097152
  4211  200000  FF                 	db	255
  4212                           
  4213                           ;Config register IDLOC1 @ 0x200001
  4214                           ;	unspecified, using default values
  4215  200001                     	org	2097153
  4216  200001  FF                 	db	255
  4217                           
  4218                           ;Config register IDLOC2 @ 0x200002
  4219                           ;	unspecified, using default values
  4220  200002                     	org	2097154
  4221  200002  FF                 	db	255
  4222                           
  4223                           ;Config register IDLOC3 @ 0x200003
  4224                           ;	unspecified, using default values
  4225  200003                     	org	2097155
  4226  200003  FF                 	db	255
  4227                           
  4228                           ;Config register IDLOC4 @ 0x200004
  4229                           ;	unspecified, using default values
  4230  200004                     	org	2097156
  4231  200004  FF                 	db	255
  4232                           
  4233                           ;Config register IDLOC5 @ 0x200005
  4234                           ;	unspecified, using default values
  4235  200005                     	org	2097157
  4236  200005  FF                 	db	255
  4237                           
  4238                           ;Config register IDLOC6 @ 0x200006
  4239                           ;	unspecified, using default values
  4240  200006                     	org	2097158
  4241  200006  FF                 	db	255
  4242                           
  4243                           ;Config register IDLOC7 @ 0x200007
  4244                           ;	unspecified, using default values
  4245  200007                     	org	2097159
  4246  200007  FF                 	db	255
  4247                           
  4248                           	psect	config
  4249                           
  4250                           ; Padding undefined space
  4251  300000                     	org	3145728
  4252  300000  FF                 	db	255
  4253                           
  4254                           ;Config register CONFIG1H @ 0x300001
  4255                           ;	unspecified, using default values
  4256                           ;	Oscillator Selection bits
  4257                           ;	OSC = 0x7, unprogrammed default
  4258                           ;	Fail-Safe Clock Monitor Enable bit
  4259                           ;	FCMEN = 0x0, unprogrammed default
  4260                           ;	Internal/External Oscillator Switchover bit
  4261                           ;	IESO = 0x0, unprogrammed default
  4262  300001                     	org	3145729
  4263  300001  07                 	db	7
  4264                           
  4265                           ;Config register CONFIG2L @ 0x300002
  4266                           ;	unspecified, using default values
  4267                           ;	Power-up Timer Enable bit
  4268                           ;	PWRT = 0x1, unprogrammed default
  4269                           ;	Brown-out Reset Enable bits
  4270                           ;	BOREN = 0x3, unprogrammed default
  4271                           ;	Brown Out Reset Voltage bits
  4272                           ;	BORV = 0x3, unprogrammed default
  4273  300002                     	org	3145730
  4274  300002  1F                 	db	31
  4275                           
  4276                           ;Config register CONFIG2H @ 0x300003
  4277                           ;	Watchdog Timer Enable bit
  4278                           ;	WDT = OFF, WDT disabled (control is placed on the SWDTEN bit)
  4279                           ;	Watchdog Timer Postscale Select bits
  4280                           ;	WDTPS = 0xF, unprogrammed default
  4281  300003                     	org	3145731
  4282  300003  1E                 	db	30
  4283                           
  4284                           ; Padding undefined space
  4285  300004                     	org	3145732
  4286  300004  FF                 	db	255
  4287                           
  4288                           ;Config register CONFIG3H @ 0x300005
  4289                           ;	CCP2 MUX bit
  4290                           ;	CCP2MX = 0x1, unprogrammed default
  4291                           ;	PORTB A/D Enable bit
  4292                           ;	PBADEN = OFF, PORTB<4:0> pins are configured as digital I/O on Reset
  4293                           ;	Low-Power Timer1 Oscillator Enable bit
  4294                           ;	LPT1OSC = 0x0, unprogrammed default
  4295                           ;	MCLR Pin Enable bit
  4296                           ;	MCLRE = 0x1, unprogrammed default
  4297  300005                     	org	3145733
  4298  300005  81                 	db	129
  4299                           
  4300                           ;Config register CONFIG4L @ 0x300006
  4301                           ;	unspecified, using default values
  4302                           ;	Stack Full/Underflow Reset Enable bit
  4303                           ;	STVREN = 0x1, unprogrammed default
  4304                           ;	Single-Supply ICSP Enable bit
  4305                           ;	LVP = 0x1, unprogrammed default
  4306                           ;	Extended Instruction Set Enable bit
  4307                           ;	XINST = 0x0, unprogrammed default
  4308                           ;	Background Debugger Enable bit
  4309                           ;	DEBUG = 0x1, unprogrammed default
  4310  300006                     	org	3145734
  4311  300006  85                 	db	133
  4312                           
  4313                           ; Padding undefined space
  4314  300007                     	org	3145735
  4315  300007  FF                 	db	255
  4316                           
  4317                           ;Config register CONFIG5L @ 0x300008
  4318                           ;	unspecified, using default values
  4319                           ;	Code Protection bit
  4320                           ;	CP0 = 0x1, unprogrammed default
  4321                           ;	Code Protection bit
  4322                           ;	CP1 = 0x1, unprogrammed default
  4323                           ;	Code Protection bit
  4324                           ;	CP2 = 0x1, unprogrammed default
  4325                           ;	Code Protection bit
  4326                           ;	CP3 = 0x1, unprogrammed default
  4327  300008                     	org	3145736
  4328  300008  0F                 	db	15
  4329                           
  4330                           ;Config register CONFIG5H @ 0x300009
  4331                           ;	unspecified, using default values
  4332                           ;	Boot Block Code Protection bit
  4333                           ;	CPB = 0x1, unprogrammed default
  4334                           ;	Data EEPROM Code Protection bit
  4335                           ;	CPD = 0x1, unprogrammed default
  4336  300009                     	org	3145737
  4337  300009  C0                 	db	192
  4338                           
  4339                           ;Config register CONFIG6L @ 0x30000A
  4340                           ;	unspecified, using default values
  4341                           ;	Write Protection bit
  4342                           ;	WRT0 = 0x1, unprogrammed default
  4343                           ;	Write Protection bit
  4344                           ;	WRT1 = 0x1, unprogrammed default
  4345                           ;	Write Protection bit
  4346                           ;	WRT2 = 0x1, unprogrammed default
  4347                           ;	Write Protection bit
  4348                           ;	WRT3 = 0x1, unprogrammed default
  4349  30000A                     	org	3145738
  4350  30000A  0F                 	db	15
  4351                           
  4352                           ;Config register CONFIG6H @ 0x30000B
  4353                           ;	unspecified, using default values
  4354                           ;	Configuration Register Write Protection bit
  4355                           ;	WRTC = 0x1, unprogrammed default
  4356                           ;	Boot Block Write Protection bit
  4357                           ;	WRTB = 0x1, unprogrammed default
  4358                           ;	Data EEPROM Write Protection bit
  4359                           ;	WRTD = 0x1, unprogrammed default
  4360  30000B                     	org	3145739
  4361  30000B  E0                 	db	224
  4362                           
  4363                           ;Config register CONFIG7L @ 0x30000C
  4364                           ;	unspecified, using default values
  4365                           ;	Table Read Protection bit
  4366                           ;	EBTR0 = 0x1, unprogrammed default
  4367                           ;	Table Read Protection bit
  4368                           ;	EBTR1 = 0x1, unprogrammed default
  4369                           ;	Table Read Protection bit
  4370                           ;	EBTR2 = 0x1, unprogrammed default
  4371                           ;	Table Read Protection bit
  4372                           ;	EBTR3 = 0x1, unprogrammed default
  4373  30000C                     	org	3145740
  4374  30000C  0F                 	db	15
  4375                           
  4376                           ;Config register CONFIG7H @ 0x30000D
  4377                           ;	unspecified, using default values
  4378                           ;	Boot Block Table Read Protection bit
  4379                           ;	EBTRB = 0x1, unprogrammed default
  4380  30000D                     	org	3145741
  4381  30000D  40                 	db	64
  4382                           tosu	equ	0xFFF
  4383                           tosh	equ	0xFFE
  4384                           tosl	equ	0xFFD
  4385                           stkptr	equ	0xFFC
  4386                           pclatu	equ	0xFFB
  4387                           pclath	equ	0xFFA
  4388                           pcl	equ	0xFF9
  4389                           tblptru	equ	0xFF8
  4390                           tblptrh	equ	0xFF7
  4391                           tblptrl	equ	0xFF6
  4392                           tablat	equ	0xFF5
  4393                           prodh	equ	0xFF4
  4394                           prodl	equ	0xFF3
  4395                           indf0	equ	0xFEF
  4396                           postinc0	equ	0xFEE
  4397                           postdec0	equ	0xFED
  4398                           preinc0	equ	0xFEC
  4399                           plusw0	equ	0xFEB
  4400                           fsr0h	equ	0xFEA
  4401                           fsr0l	equ	0xFE9
  4402                           wreg	equ	0xFE8
  4403                           indf1	equ	0xFE7
  4404                           postinc1	equ	0xFE6
  4405                           postdec1	equ	0xFE5
  4406                           preinc1	equ	0xFE4
  4407                           plusw1	equ	0xFE3
  4408                           fsr1h	equ	0xFE2
  4409                           fsr1l	equ	0xFE1
  4410                           bsr	equ	0xFE0
  4411                           indf2	equ	0xFDF
  4412                           postinc2	equ	0xFDE
  4413                           postdec2	equ	0xFDD
  4414                           preinc2	equ	0xFDC
  4415                           plusw2	equ	0xFDB
  4416                           fsr2h	equ	0xFDA
  4417                           fsr2l	equ	0xFD9
  4418                           status	equ	0xFD8

Data Sizes:
    Strings     0
    Constant    0
    Data        2
    BSS         468
    Persistent  0
    Stack       0

Auto Spaces:
    Space          Size  Autos    Used
    COMRAM          126     37      44
    BANK0           128     72      72
    BANK1           256    128     128
    BANK2           256      0       0
    BANK3           256      0       0
    BANK4           256      0       0
    BANK5           256      0       0

Pointer List with Targets:

    create_task@task	PTR FTN()void  size(2) Largest target is 1
		 -> task_3(), task_2(), task_1(), 

    new_task.task_PTR	PTR FTN()void  size(2) Largest target is 1
		 -> task_3(), task_2(), task_1(), 

    S237TCB$task_PTR	PTR FTN()void  size(2) Largest target is 1
		 -> task_3(), task_2(), task_1(), 

    ready_queue.tasks_list.task_PTR	PTR FTN()void  size(2) Largest target is 1
		 -> task_3(), task_2(), task_1(), 


Critical Paths under _main in COMRAM

    None.

Critical Paths under _task_1 in COMRAM

    None.

Critical Paths under _task_2 in COMRAM

    None.

Critical Paths under _task_3 in COMRAM

    None.

Critical Paths under _task_1 in COMRAM

    None.

Critical Paths under _task_2 in COMRAM

    None.

Critical Paths under _task_3 in COMRAM

    None.

Critical Paths under _isr_INTERRUPTS in COMRAM

    _isr_INTERRUPTS->i2_scheduler
    i2_scheduler->i2_PRIOR_scheduler
    i2_PRIOR_scheduler->i2___wmul

Critical Paths under _main in BANK0

    None.

Critical Paths under _task_1 in BANK0

    None.

Critical Paths under _task_2 in BANK0

    None.

Critical Paths under _task_3 in BANK0

    _task_3->_delay_task
    _delay_task->_scheduler
    _scheduler->_PRIOR_scheduler
    _PRIOR_scheduler->i1___wmul

Critical Paths under _task_1 in BANK0

    None.

Critical Paths under _task_2 in BANK0

    None.

Critical Paths under _task_3 in BANK0

    _task_3->_delay_task
    _delay_task->_scheduler
    _scheduler->_PRIOR_scheduler
    _PRIOR_scheduler->i1___wmul

Critical Paths under _isr_INTERRUPTS in BANK0

    None.

Critical Paths under _main in BANK1

    _main->_create_task
    _create_task->___wmul

Critical Paths under _task_1 in BANK1

    None.

Critical Paths under _task_2 in BANK1

    None.

Critical Paths under _task_3 in BANK1

    None.

Critical Paths under _task_1 in BANK1

    None.

Critical Paths under _task_2 in BANK1

    None.

Critical Paths under _task_3 in BANK1

    None.

Critical Paths under _isr_INTERRUPTS in BANK1

    None.

Critical Paths under _main in BANK2

    None.

Critical Paths under _task_1 in BANK2

    None.

Critical Paths under _task_2 in BANK2

    None.

Critical Paths under _task_3 in BANK2

    None.

Critical Paths under _task_1 in BANK2

    None.

Critical Paths under _task_2 in BANK2

    None.

Critical Paths under _task_3 in BANK2

    None.

Critical Paths under _isr_INTERRUPTS in BANK2

    None.

Critical Paths under _main in BANK3

    None.

Critical Paths under _task_1 in BANK3

    None.

Critical Paths under _task_2 in BANK3

    None.

Critical Paths under _task_3 in BANK3

    None.

Critical Paths under _task_1 in BANK3

    None.

Critical Paths under _task_2 in BANK3

    None.

Critical Paths under _task_3 in BANK3

    None.

Critical Paths under _isr_INTERRUPTS in BANK3

    None.

Critical Paths under _main in BANK4

    None.

Critical Paths under _task_1 in BANK4

    None.

Critical Paths under _task_2 in BANK4

    None.

Critical Paths under _task_3 in BANK4

    None.

Critical Paths under _task_1 in BANK4

    None.

Critical Paths under _task_2 in BANK4

    None.

Critical Paths under _task_3 in BANK4

    None.

Critical Paths under _isr_INTERRUPTS in BANK4

    None.

Critical Paths under _main in BANK5

    None.

Critical Paths under _task_1 in BANK5

    None.

Critical Paths under _task_2 in BANK5

    None.

Critical Paths under _task_3 in BANK5

    None.

Critical Paths under _task_1 in BANK5

    None.

Critical Paths under _task_2 in BANK5

    None.

Critical Paths under _task_3 in BANK5

    None.

Critical Paths under _isr_INTERRUPTS in BANK5

    None.

Call Graph Tables:

 ---------------------------------------------------------------------------------
 (Depth) Function   	        Calls       Base Space   Used Autos Params    Refs
 ---------------------------------------------------------------------------------
 (0) _main                                                 0     0      0    8476
                          _config_os
                        _create_task
                           _start_os
 ---------------------------------------------------------------------------------
 (1) _start_os                                             0     0      0       0
 ---------------------------------------------------------------------------------
 (1) _create_task                                        122   116      6    8476
                                              6 BANK1    122   116      6
                             ___wmul
 ---------------------------------------------------------------------------------
 (2) ___wmul                                               6     2      4    7282
                                              0 BANK1      6     2      4
 ---------------------------------------------------------------------------------
 (1) _config_os                                            0     0      0       0
                       _config_tasks
 ---------------------------------------------------------------------------------
 (2) _config_tasks                                         0     0      0       0
 ---------------------------------------------------------------------------------
 Estimated maximum stack depth 2
 ---------------------------------------------------------------------------------
 (Depth) Function   	        Calls       Base Space   Used Autos Params    Refs
 ---------------------------------------------------------------------------------
 (3) _task_1                                               1     1      0       0
                                             36 BANK0      1     1      0
 ---------------------------------------------------------------------------------
 Estimated maximum stack depth 3
 ---------------------------------------------------------------------------------
 (Depth) Function   	        Calls       Base Space   Used Autos Params    Refs
 ---------------------------------------------------------------------------------
 (3) _task_2                                               1     1      0       0
                                             37 BANK0      1     1      0
 ---------------------------------------------------------------------------------
 Estimated maximum stack depth 3
 ---------------------------------------------------------------------------------
 (Depth) Function   	        Calls       Base Space   Used Autos Params    Refs
 ---------------------------------------------------------------------------------
 (3) _task_3                                               1     1      0   10011
                                             71 BANK0      1     1      0
                         _delay_task
 ---------------------------------------------------------------------------------
 (4) _delay_task                                          13    11      2   10011
                                             58 BANK0     13    11      2
                          _scheduler
                           i1___wmul
 ---------------------------------------------------------------------------------
 (5) _scheduler                                            4     2      2    4556
                                             54 BANK0      4     2      2
                    _PRIOR_scheduler
 ---------------------------------------------------------------------------------
 (6) _PRIOR_scheduler                                     12    10      2    4471
                                             44 BANK0     10     8      2
                           i1___wmul
 ---------------------------------------------------------------------------------
 (5) i1___wmul                                             6     2      4    3821
                                             38 BANK0      6     2      4
 ---------------------------------------------------------------------------------
 Estimated maximum stack depth 6
 ---------------------------------------------------------------------------------
 (Depth) Function   	        Calls       Base Space   Used Autos Params    Refs
 ---------------------------------------------------------------------------------
 (3) _task_1                                               1     1      0       0
                                             36 BANK0      1     1      0
 ---------------------------------------------------------------------------------
 Estimated maximum stack depth 3
 ---------------------------------------------------------------------------------
 (Depth) Function   	        Calls       Base Space   Used Autos Params    Refs
 ---------------------------------------------------------------------------------
 (3) _task_2                                               1     1      0       0
                                             37 BANK0      1     1      0
 ---------------------------------------------------------------------------------
 Estimated maximum stack depth 3
 ---------------------------------------------------------------------------------
 (Depth) Function   	        Calls       Base Space   Used Autos Params    Refs
 ---------------------------------------------------------------------------------
 (3) _task_3                                               1     1      0   10011
                                             71 BANK0      1     1      0
                         _delay_task
 ---------------------------------------------------------------------------------
 (4) _delay_task                                          13    11      2   10011
                                             58 BANK0     13    11      2
                          _scheduler
                           i1___wmul
 ---------------------------------------------------------------------------------
 (5) _scheduler                                            4     2      2    4556
                                             54 BANK0      4     2      2
                    _PRIOR_scheduler
 ---------------------------------------------------------------------------------
 (6) _PRIOR_scheduler                                     12    10      2    4471
                                             44 BANK0     10     8      2
                           i1___wmul
 ---------------------------------------------------------------------------------
 (5) i1___wmul                                             6     2      4    3821
                                             38 BANK0      6     2      4
 ---------------------------------------------------------------------------------
 Estimated maximum stack depth 6
 ---------------------------------------------------------------------------------
 (Depth) Function   	        Calls       Base Space   Used Autos Params    Refs
 ---------------------------------------------------------------------------------
 (8) _isr_INTERRUPTS                                      17    17      0    3659
                                             20 COMRAM    17    17      0
                           i2___wmul
                        i2_scheduler
 ---------------------------------------------------------------------------------
 (9) i2_scheduler                                          4     2      2    1664
                                             16 COMRAM     4     2      2
                  i2_PRIOR_scheduler
 ---------------------------------------------------------------------------------
 (10) i2_PRIOR_scheduler                                  12    10      2    1641
                                              6 COMRAM    10     8      2
                           i2___wmul
 ---------------------------------------------------------------------------------
 (11) i2___wmul                                            6     2      4    1459
                                              0 COMRAM     6     2      4
 ---------------------------------------------------------------------------------
 Estimated maximum stack depth 11
 ---------------------------------------------------------------------------------

 Call Graph Graphs:

 _main (ROOT)
   _config_os
     _config_tasks
   _create_task
     ___wmul
   _start_os

 _task_1 (ROOT)

 _task_2 (ROOT)

 _task_3 (ROOT)
   _delay_task
     _scheduler
       _PRIOR_scheduler
         i1___wmul
     i1___wmul

 _task_1 (ROOT)

 _task_2 (ROOT)

 _task_3 (ROOT)
   _delay_task
     _scheduler
       _PRIOR_scheduler
         i1___wmul
     i1___wmul

 _isr_INTERRUPTS (ROOT)
   i2___wmul
   i2_scheduler
     i2_PRIOR_scheduler
       i2___wmul

 Address spaces:
Name               Size   Autos  Total    Cost      Usage
BIGRAM             5FF      0     1D4      17       30.5%
EEDATA             100      0       0       0        0.0%
BITBANK5           100      0       0      16        0.0%
BANK5              100      0       0      14        0.0%
BITBANK4           100      0       0      12        0.0%
BANK4              100      0       0      13        0.0%
BITBANK3           100      0       0      10        0.0%
BANK3              100      0       0      11        0.0%
BITBANK2           100      0       0       8        0.0%
BANK2              100      0       0       9        0.0%
BITBANK1           100      0       0       6        0.0%
BANK1              100     80      80       7       50.0%
BITBANK0            80      0       0       4        0.0%
BANK0               80     48      48       5       56.2%
BITCOMRAM           7E      0       5       0        4.0%
COMRAM              7E     25      2C       1       34.9%
BITSFR               0      0       0     200        0.0%
SFR                  0      0       0     200        0.0%
STACK                0      0       0       2        0.0%
NULL                 0      0       0       0        0.0%
ABS                  0      0      F4      15        0.0%
DATA                 0      0     2C8       3        0.0%
CODE                 0      0       0       0        0.0%


Microchip Technology PIC18 Macro Assembler V2.20 build 20200408173844 
Symbol Table                                                                                   Wed May 18 16:02:34 2022

                __ccov132_end_blk1 09B4                  __ccov116_end_blk1 08AC  
              __end_ofi2_scheduler 0D0E                 __ccov140_end_blk12 0A82  
               __ccov124_end_blk12 0980                 __ccov108_end_blk30 0872  
               __pcodecov_info_hdr 0000               __ccov103_start_blk23 0792  
                __ccov133_end_blk2 09C0                  __ccov117_end_blk2 08B8  
                               l31 0D24                                 l40 0C12  
                               l17 0AE8                                 l34 0C3E  
                               l18 0AE8                                 l46 0BD8  
              ___wmul@multiplicand 0102                   i1___wmul@product 00AA  
                __ccov142_end_blk0 0D02                  __ccov134_end_blk4 09F6  
                __ccov118_end_blk4 08F0                 __ccov141_end_blk13 0A86  
               __ccov125_end_blk13 0984                 __ccov109_end_blk31 0874  
                              l106 0BD4                                l109 0B5A  
                              l125 0D1A                                l169 0C8E  
                              _BSR 000FE0                                _TOS 000FFD  
                    create_task@id 0106                  __ccov143_end_blk1 0D0A  
                __ccov135_end_blk5 0A28                  __ccov119_end_blk5 0924  
               __ccov22_start_blk6 0060                                wreg 000FE8  
                __ccov128_end_blk0 0CEA                  __ccov144_end_blk3 0D0E  
                __ccov136_end_blk6 0A50                    isr_INTERRUPTS@i 0025  
              __ccov120_start_blk6 0924                               l1800 0B0A  
                             l1802 0B10                               l1810 0D0E  
                             l1804 0B18                               l1812 0D12  
                             l1820 0AC6                               l1750 0C3E  
                             l1806 0B20                               l1822 0AE4  
                             l1814 0A86                               l1752 0C12  
                             l1808 0B50                               l1816 0A8A  
                             l1754 0BD8                               l1818 0AA8  
                             l1756 0BFE                               l1782 0D1E  
                             l1790 0B9E                               l1792 0BC8  
                             l1784 0C68                               l1794 0BD0  
                             l1786 0C86                               l1796 0AF2  
                             l1798 0B02                  __ccov129_end_blk1 0CF2  
                __ccov137_end_blk7 0A5A                               u1031 0B48  
                             i2l82 003A                               i2l93 0230  
                             i2l95 02F0                               i2l97 0450  
                             _TMR0 000FD6                               _WREG 000FE8  
                             _main 0A86                  __ccov138_end_blk9 0A60  
                             fsr1h 000FE2                               fsr2h 000FDA  
                             indf2 000FDF                               fsr1l 000FE1  
                             fsr2l 000FD9                               btemp 002D  
                             prodh 000FF4                               prodl 000FF3  
              __ccov30_start_blk18 015C                               start 000E  
                   ??_config_tasks 0100                 __ccov15_start_blk1 0BD8  
               __ccov23_start_blk7 0092                       ___param_bank 000000  
              __ccov121_start_blk7 094E            __end_of_PRIOR_scheduler 0984  
             __ccov104_start_blk24 079A                              ?_main 0006  
                     __ccovbit2_21 0018                       __ccovbit3_32 000D  
                     __ccovbit3_19 001A                       __ccovbit3_37 0008  
                     __ccovbit5_33 000C                       __ccovbit5_28 0011  
                     __ccovbit7_20 0019                       __ccovbit7_34 000B  
                     __ccovbit7_29 0010                       __ccovbit9_30 000F  
                     __ccovbit9_35 000A                              i1l140 0812  
                            i1l160 0980                              i1l144 084C  
                            i1l136 05D6                              i1l146 0874  
                            i1l138 06A0                              i2l101 0486  
                            i1l166 0CF2                              i2l103 04AE  
                            i1l159 0978                              i1l169 0CB6  
                            i2l160 0A82                              i2l166 0D0A  
                            i2l159 0A7A                              i2l169 0CDC  
                            u98_20 0C50                              u98_21 0C4A  
                            u98_26 0C52                              u99_20 0C24  
                            u99_21 0C1E                              u99_26 0C26  
               delay_task@task_pos 00C3                 __ccov16_start_blk2 0BFE  
               __ccov24_start_blk8 00EC                __ccov130_start_blk3 0CF2  
              __ccov122_start_blk9 0958                    create_task@task 010A  
                   __pbitbssCOMRAM 0008                              tablat 000FF5  
                 __end_ofi1___wmul 0CB8                   __end_ofi2___wmul 0CDE  
                            plusw1 000FE3                              plusw2 000FDB  
                            ttemp5 002E                              ttemp6 0031  
                            ttemp7 0035                              status 000FD8  
              i1___wmul@multiplier 00A6                              wtemp8 002E  
                      i2_scheduler 0CF6                 __ccov139_end_blk11 0A7A  
                   __pcodecov_info 0000                __ccov31_start_blk20 0164  
                   delay_task@time 00BA                 __ccov17_start_blk0 0012  
                  __initialization 0B5E                       __end_of_main 0AF2  
              __ccov131_start_blk0 0984                __ccov115_start_blk0 0878  
              __ccov94_start_blk10 063A               __ccov105_start_blk26 07FA  
                           ??_main 0180                      __activetblptr 000000  
       isr_INTERRUPTS@task_pos_429 0029                delay_task@p_context 00BF  
               __ccov18_start_blk1 0032                      __ccovbit10_22 0017  
                    __ccovbit11_10 0023                      __ccovbit12_23 0016  
                    __ccovbit13_31 000E                      __ccovbit13_36 0009  
              __ccov132_start_blk1 098C                __ccov116_start_blk1 0882  
                    __ccovbit16_11 0022                      __ccovbit24_24 0015  
                    __ccovbit25_12 0021                      __ccovbit41_15 001E  
                    __ccovbit33_27 0012                      __ccovbit26_25 0014  
                    __ccovbit27_13 0020                      __ccovbit51_18 001B  
                    __ccovbit44_16 001D                      __ccovbit29_26 0013  
                    __ccovbit46_17 001C                      __ccovbit39_14 001F  
                           u100_20 0BE8                             u100_21 0BE2  
                           u100_26 0BEA                             i1l1700 04C6  
                           i1l1710 0536                             i1l1702 04F2  
                           i1l1720 06AE                             i1l1712 0634  
                           i1l1704 04FA                             i1l1730 0792  
                           i1l1722 06E0                             i1l1714 063A  
                           i1l1706 0502                             i1l1732 079A  
                           i1l1724 06E2                             i1l1716 064C  
                           i1l1708 0504                             i2l1110 0CB8  
                           i1l1670 0CAE                             i1l1734 07FA  
                           i1l1726 06E6                             i1l1718 069E  
                           i2l1112 0CD4                             i1l1680 08B8  
                           i1l1736 0814                             i1l1728 071A  
                           i2l1130 0984                             i1l1682 08F0  
                           i1l1690 095E                             i1l1674 0878  
                           i1l1738 0872                             i2l1140 0A28  
                           i2l1132 098C                             i1l1668 0C90  
                           i1l1684 0924                             i1l1676 0882  
                           i1l1692 0CDE                             i2l1142 0A50  
                           i2l1134 09B4                             i2l1214 0CF6  
                           i1l1686 094E                             i1l1678 08AC  
                           i1l1694 0CEA               scheduler@task_to_run 00B8  
                           i2l1144 0A5A                             i2l1136 09C0  
                           i2l1216 0D02                             i2l1240 0032  
                           i1l1688 0958                             i2l1138 09F6  
                           i2l1146 0A60                             i2l1250 00EC  
                           i2l1242 004A                             i1l1698 04C4  
                           i2l1260 014C                             i2l1252 0112  
                           i2l1244 004C                             i2l1270 028A  
                           i2l1262 015C                             i2l1246 0060  
                           i2l1254 0118                             i2l1238 0024  
                           i2l1280 032C                             i2l1272 028E  
                           i2l1264 0164                             i2l1256 0132  
                           i2l1248 0092                             i2l1290 03DE  
                           i2l1282 032E                             i2l1274 02A0  
                           i2l1266 0166                             i2l1258 0138  
                           i2l1292 0438                             i2l1284 0332  
                           i2l1268 0196                             i2l1276 02EE  
                           i2l1294 0452                             i2l1286 0364  
                           i2l1278 02FC                             i2l1296 04AA  
                           i2l1288 03D6                             _STATUS 000FD8  
                           _STKPTR 000FFC                   __ccov11_end_blk1 0C66  
              __ccov32_start_blk21 0166                __ccov40_start_blk31 02FC  
             __size_of_create_task 006C                   __ccov20_end_blk3 004C  
               __ccov19_start_blk2 003A                             ___wmul 0C68  
                 __ccov13_end_blk1 0C3C                   __ccov21_end_blk4 0060  
              __ccov133_start_blk2 09B4                __ccov117_start_blk2 08AC  
                 ?_PRIOR_scheduler 00AC                __ccov95_start_blk12 064C  
             __ccov106_start_blk28 0812                             clear_0 0B7E  
                           _task_1 0C3E                             _task_2 0C12  
                           _task_3 0BD8                   __ccov22_end_blk6 0092  
                 create_task@prior 0108                   __ccov15_end_blk1 0BFE  
                 __ccov23_end_blk7 00EC                       __pdataCOMRAM 002B  
               _rr_quantum_control 002B               __end_of_config_tasks 0D28  
                           tblptrh 000FF7                             tblptrl 000FF6  
                 __ccov16_end_blk2 0C10                             tblptru 000FF8  
               __ccov60_start_blk3 0B10                   __ccov24_end_blk8 0112  
                 __end_of_start_os 0D1E                   __ccov17_end_blk0 0032  
              __ccov142_start_blk0 0CF6                __ccov134_start_blk4 09C0  
              __ccov118_start_blk4 08B8                   __ccov18_end_blk1 003A  
                       __accesstop 0080            __end_of__initialization 0B94  
                    ___rparam_used 000001                   __ccov19_end_blk2 004A  
              __ccov25_start_blk11 0112                __ccov33_start_blk22 0196  
              __ccov41_start_blk33 032C                 __ccov53_start_blk0 0B9E  
                 __ccov60_end_blk3 0B18                 __ccov61_start_blk4 0B18  
                   __pcstackCOMRAM 0006                   __ccov53_end_blk0 0BC8  
                 __ccov61_end_blk4 0B20                __ccov143_start_blk1 0D02  
              __ccov135_start_blk5 09F6                __ccov119_start_blk5 08F0  
              __ccov96_start_blk14 069E               __ccov123_start_blk11 095E  
             __ccov107_start_blk29 0814                   __ccov54_end_blk1 0BD0  
                 __ccov62_end_blk5 0B50                          ?i1___wmul 00A6  
                        ?i2___wmul 0006            __size_of_isr_INTERRUPTS 04BC  
                 __ccov55_end_blk2 0BD4                   __ccov63_end_blk6 0B5A  
                 __ccov56_end_blk3 0BD8                 __ccov54_start_blk1 0BC8  
                 __ccov64_end_blk7 0B5E                 __ccov62_start_blk5 0B20  
               __size_of_config_os 003A                    __ccov1_end_blk0 0A8A  
                 __ccov57_end_blk0 0B02                   __ccov81_end_blk0 0D12  
              __ccov128_start_blk0 0CDE                __ccov144_start_blk3 0D0A  
              __ccov136_start_blk6 0A28                    __ccov2_end_blk1 0AA8  
                 __ccov58_end_blk1 0B0A                   __ccov82_end_blk1 0D1A  
                 __ccov90_end_blk6 0536                    __ccov3_end_blk2 0AC6  
                 __ccov59_end_blk2 0B10                   __ccov83_end_blk2 0D1E  
                 __ccov91_end_blk7 05D6                __ccov26_start_blk13 0118  
              __ccov34_start_blk23 0230                __ccov42_start_blk34 032E  
              __ccov50_start_blk45 0486                         _delay_task 04C4  
                  __ccov4_end_blk3 0AE4                 __ccov55_start_blk2 0BD0  
                 __ccov92_end_blk8 0634                 __ccov63_start_blk6 0B50  
               i2PRIOR_scheduler@y 0014                 __size_of_scheduler 0018  
                          ?___wmul 0100                    __ccov5_end_blk4 0AE8  
                 __ccov85_end_blk0 04C6                   __ccov93_end_blk9 063A  
              __ccov129_start_blk1 0CEA                __ccov137_start_blk7 0A50  
              __ccov97_start_blk15 06A0               __ccov140_start_blk12 0A7A  
             __ccov124_start_blk12 0978               __ccov108_start_blk30 084C  
                          ?_task_1 0006                            ?_task_2 0006  
                          ?_task_3 0006                   __ccov86_end_blk1 04F2  
                       ??i1___wmul 00AA                         ??i2___wmul 000A  
                  __ccov7_end_blk6 0AEE                   __ccov87_end_blk2 04FA  
                  __ccov8_end_blk0 0D24                            i2u31_40 09F6  
                          i2u31_41 09F2                            i2u32_40 0A28  
                          i2u32_41 0A24                            i2u33_40 0A7A  
                          i2u33_41 0A76                            i2u50_40 0364  
                          i2u42_40 0032                            i2u50_41 0360  
                          i2u42_41 002E                            i1u91_20 08F0  
                          i1u91_21 08EC                            i2u51_40 044C  
                          i2u43_40 004A                            i2u51_41 0448  
                          i2u43_41 0046                            i1u92_20 0924  
                          i1u92_21 0920                            i2u44_40 0092  
                          i2u44_41 008E                            i1u93_20 0978  
                          i1u93_21 0974                            i2u45_40 00EC  
                          i2u45_41 00E8                            i1u94_20 0536  
                          i1u94_21 0532                            i2u46_40 0132  
                          i2u46_41 012E                            i1u95_20 064C  
                          i1u95_21 0648                   __ccov88_end_blk3 0502  
                          i2u47_40 014C                 __ccov56_start_blk3 0BD4  
                          i2u47_41 0148                            i1u96_20 071A  
               __ccov64_start_blk7 0B5A                            i1u96_21 0716  
                          i2u48_40 0196                            i2u48_41 0192  
                          i1u97_20 080E                            i1u97_21 080A  
                          i2u49_40 02A0                            i2u49_41 029C  
                  __ccov9_end_blk1 0D28                   __ccov89_end_blk5 0504  
              __ccov138_start_blk9 0A5A                       ?i2_scheduler 0016  
     i2PRIOR_scheduler@task_to_run 0012                  __ccov1_start_blk0 0A86  
                          __Hparam 0000                __ccov27_start_blk15 0132  
              __ccov35_start_blk24 028A                __ccov43_start_blk35 0332  
              __ccov51_start_blk46 04AA                            __Lparam 0000  
               __ccov57_start_blk0 0AF2                 __ccov81_start_blk0 0D0E  
                __end_of_config_os 0BD8                    __size_of___wmul 0028  
                        ?_start_os 0006                __ccov98_start_blk16 06AE  
             __ccov141_start_blk13 0A82               __ccov125_start_blk13 0980  
             __ccov109_start_blk31 0872                            __pcinit 0B5E  
            __size_of_config_tasks 000A                            __ramtop 0600  
                  __size_of_task_1 002A                    __size_of_task_2 002C  
                  __size_of_task_3 003A                            __ptext0 0A86  
                          __ptext1 0D0E                            __ptext2 0AF2  
                          __ptext3 0C68                            __ptext4 0B9E  
                          __ptext5 0D1E                            __ptext6 0C3E  
                          __ptext7 0C12                            __ptext8 0BD8  
                          __ptext9 04C4                          _T0CONbits 000FD5  
                __ccov2_start_blk1 0A8A                  __ccov30_end_blk18 0164  
               __ccov58_start_blk1 0B02                 __ccov82_start_blk1 0D12  
               __ccov90_start_blk6 0504                  __end_of_scheduler 0CF6  
                   __pintcode_body 0012               end_of_initialization 0B94  
i2PRIOR_scheduler@menor_prioridade 0010    PRIOR_scheduler@menor_prioridade 00B0  
                __ccov31_end_blk20 0166                            int_func 0012  
              i2___wmul@multiplier 0006                  __ccov3_start_blk2 0AA8  
       PRIOR_scheduler@task_to_run 00B2                        ?_delay_task 00BA  
                __ccov32_end_blk21 0196                  __ccov40_end_blk31 032C  
              __ccov28_start_blk16 0138                __ccov36_start_blk25 028E  
              __ccov52_start_blk51 04AE                __ccov44_start_blk36 0364  
                     _config_tasks 0D1E                 __ccov59_start_blk2 0B0A  
               __ccov83_start_blk2 0D1A                 __ccov91_start_blk7 0536  
                          postdec1 000FE5                            postdec2 000FDD  
                          postinc0 000FEE                            postinc2 000FDE  
                       ??_start_os 0100              i1___wmul@multiplicand 00A8  
              __ccov99_start_blk18 06E0                  __ccov25_end_blk11 0118  
                __ccov33_end_blk22 0230                  __ccov41_end_blk33 032E  
                        _PORTDbits 000F83                     _isr_INTERRUPTS 0008  
                __ccov4_start_blk3 0AC6                  __ccov26_end_blk13 0132  
                        _TRISBbits 000F93                  __ccov34_end_blk23 028A  
                __ccov42_end_blk34 0332                  __ccov50_end_blk45 04AA  
                        _TRISDbits 000F95                 __ccov92_start_blk8 05D6  
           delay_task@task_pos_473 00C5                  __ccov27_end_blk15 0138  
                __ccov35_end_blk24 028E                  __ccov43_end_blk35 0364  
                __ccov51_end_blk46 04AE                      ??_create_task 010C  
          isr_INTERRUPTS@p_context 0021                  __ccov5_start_blk4 0AE4  
          delay_task@p_context_474 00C1                  __ccov28_end_blk16 014C  
                __ccov36_end_blk25 02A0                  __ccov52_end_blk51 04C4  
                __ccov44_end_blk36 03D6                __ccov29_start_blk17 014C  
              __ccov37_start_blk27 02A0                __ccov45_start_blk38 03D6  
               __ccov85_start_blk0 04C4                 __ccov93_start_blk9 0634  
                      __ccovbit1_2 002B                        __ccovbit1_3 002A  
                      __ccovbit1_4 0029                        __ccovbit1_6 0027  
                      __ccovbit2_5 0028                        __ccovbit2_7 0026  
                      __ccovbit6_1 002C                        __ccovbit7_8 0025  
                      __ccovbit8_9 0024                     __end_of___wmul 0C90  
           __end_of_isr_INTERRUPTS 04C4                      __pidataCOMRAM 0D28  
                __ccov29_end_blk17 015C                  __ccov37_end_blk27 02EE  
                __ccov45_end_blk38 03DE                     __end_of_task_1 0C68  
                   __end_of_task_2 0C3E                     __end_of_task_3 0C12  
                 i2___wmul@product 000A           __size_of_PRIOR_scheduler 010C  
              start_initialization 0B5E                  __size_ofi1___wmul 0028  
                __size_ofi2___wmul 0026                  __ccov38_end_blk29 02F0  
                __ccov46_end_blk39 0438                __size_of_delay_task 03B4  
               __ccov86_start_blk1 04C6                  __ccov39_end_blk30 02FC  
                __ccov47_end_blk41 0450                  __ccov7_start_blk6 0AE8  
             __size_ofi2_scheduler 0018                  __ccov48_end_blk43 0452  
              __ccov38_start_blk29 02EE                __ccov46_start_blk39 03DE  
              __end_of_create_task 0B5E                 __ccov87_start_blk2 04F2  
                         ??___wmul 0104                           ??_task_1 00A4  
                         ??_task_2 00A5                           ??_task_3 00C7  
                  ?_isr_INTERRUPTS 0006                  __ccov49_end_blk44 0486  
                      __pbssBIGRAM 0180                  __ccov8_start_blk0 0D1E  
                i2_PRIOR_scheduler 0984                      __pcstackBANK0 0080  
                    __pcstackBANK1 0100                 __ccov88_start_blk3 04FA  
               ?i2_PRIOR_scheduler 000C                ??i2_PRIOR_scheduler 000E  
                __ccov9_start_blk1 0D24                __ccov39_start_blk30 02F0  
              __ccov47_start_blk41 0438                          __pintcode 0008  
               __ccov89_start_blk5 0502                          _config_os 0B9E  
                __size_of_start_os 0010          __end_ofi2_PRIOR_scheduler 0A86  
                __ccov94_end_blk10 064C                  ??_PRIOR_scheduler 00AE  
                __ccov95_end_blk12 069E                          _scheduler 0CDE  
                      _create_task 0AF2                     ___wmul@product 0104  
                         _LATDbits 000F8C                       ??_delay_task 00BC  
                __ccov96_end_blk14 06A0                __ccov48_start_blk43 0450  
              create_task@new_task 010C                         ?_config_os 0006  
                __ccov97_end_blk15 06AE                          fp__task_1 0000  
                        fp__task_2 0000                          fp__task_3 0000  
                ___wmul@multiplier 0100                           i1___wmul 0C90  
                         i2___wmul 0CB8                  __ccov98_end_blk16 06E0  
               __end_of_delay_task 0878             isr_INTERRUPTS@task_pos 0027  
           i2scheduler@task_to_run 0018                         ?_scheduler 00B6  
                __ccov99_end_blk18 06E2                           __Hrparam 0000  
                         __Lrparam 0000                __ccov49_start_blk44 0452  
             __ccov100_start_blk19 06E2              i2___wmul@multiplicand 0008  
      isr_INTERRUPTS@p_context_430 0023               __ccov139_start_blk11 0A60  
       __size_ofi2_PRIOR_scheduler 0102                           __ptext10 0CDE  
                         __ptext11 0878                           __ptext12 0C90  
                         __ptext14 0CF6                           __ptext15 0984  
                         __ptext16 0CB8                           __ptext17 0000  
                    __size_of_main 006C                        _ready_queue 0180  
                 ??_isr_INTERRUPTS 001A                 __ccov100_end_blk19 06E6  
             __ccov101_start_blk20 06E6                           int$flags 002D  
                         _start_os 0D0E                        ??_config_os 0100  
               __ccov101_end_blk20 071A                         _INTCONbits 000FF2  
               __ccov102_end_blk21 0792                 __ccov110_end_blk33 0878  
                         intlevel1 0000                           intlevel2 0000  
                    ??i2_scheduler 0018                 __ccov103_end_blk23 079A  
                      ??_scheduler 00B8                 __ccov11_start_blk1 0C3E  
               __ccov104_end_blk24 07FA               __ccov102_start_blk21 071A  
             __ccov110_start_blk33 0874                 __ccov105_end_blk26 0812  
                  _PRIOR_scheduler 0878                 __ccov20_start_blk3 004A  
                __ccov120_end_blk6 094E                 __ccov106_end_blk28 0814  
                __ccov121_end_blk7 0958                  __ccov130_end_blk3 0CF6  
                __ccov122_end_blk9 095E                       ?_create_task 0106  
               __ccov123_end_blk11 0978                 __ccov107_end_blk29 084C  
                 PRIOR_scheduler@y 00B4                  __ccov131_end_blk0 098C  
                __ccov115_end_blk0 0882                 __ccov13_start_blk1 0C12  
               __ccov21_start_blk4 004C                      ?_config_tasks 0006  
